

HI-TECH Software PIC LITE Macro Assembler V9.70 build 5239 
                                                                                               Tue Jan 01 15:58:10 2002

HI-TECH Software Omniscient Code Generator (Lite mode) build 5239
     1  0000                     opt subtitle "HI-TECH Software Omniscient Code Generator (Lite mode) build 5239"
     2                           
     3                           opt pagewidth 120
     4                           
     5                           	opt lm
     6                           
     7                           	processor	16F876A
     8                           clrc	macro
     9                           	bcf	3,0
    10  0000                     	endm
    11                           clrz	macro
    12                           	bcf	3,2
    13  0000                     	endm
    14                           setc	macro
    15                           	bsf	3,0
    16  0000                     	endm
    17                           setz	macro
    18                           	bsf	3,2
    19  0000                     	endm
    20                           skipc	macro
    21                           	btfss	3,0
    22  0000                     	endm
    23                           skipz	macro
    24                           	btfss	3,2
    25  0000                     	endm
    26                           skipnc	macro
    27                           	btfsc	3,0
    28  0000                     	endm
    29                           skipnz	macro
    30                           	btfsc	3,2
    31  0000                     	endm
    32  0000                     indf	equ	0
    33  0000                     indf0	equ	0
    34  0002                     pc	equ	2
    35  0002                     pcl	equ	2
    36  0003                     status	equ	3
    37  0004                     fsr	equ	4
    38  0004                     fsr0	equ	4
    39  0001                     c	equ	1
    40  0000                     z	equ	0
    41  000A                     pclath	equ	10
    42                           ;COMMON:	_main->_get_key
    43                           	FNCALL	_main,_init_uart
    44                           	FNCALL	_main,_init
    45                           	FNCALL	_main,_get_key
    46                           	FNCALL	_main,_keyprocess
    47                           	FNCALL	_keyprocess,_process_a
    48                           	FNCALL	_keyprocess,_process_b
    49                           	FNCALL	_keyprocess,_process_c
    50                           	FNCALL	_keyprocess,_key_release
    51                           	FNCALL	_get_key,_uart_disp
    52                           	FNCALL	_init,_init_keypad
    53                           	FNCALL	_init,_init_timer
    54                           	FNCALL	_init,_init_delay_1sec
    55                           	FNCALL	_uart_disp,_home_screen
    56                           	FNCALL	_uart_disp,_tx
    57                           	FNCALL	_home_screen,_tx
    58                           	FNCALL	_home_screen,_uart_delay
    59                           	FNROOT	_main
    60                           	FNCALL	_isr_t0,i1_init_timer
    61                           	FNCALL	_isr_t0,_delay_1sec
    62                           	FNCALL	_isr_t0,_scanner
    63                           	FNCALL	_isr_t0,_incrementd
    64                           	FNCALL	_scanner,_k1
    65                           	FNCALL	intlevel1,_isr_t0
    66                           	global	intlevel1
    67                           	FNROOT	intlevel1
    68                           	global	_ascii_tab
    69                           	global	_cnt
    70                           	global	_ds1
    71                           	global	_ds2
    72                           	global	_ds3
    73                           	global	_ds4
    74                           	global	_disp
    75                           psect	idataBANK0,class=CODE,space=0,delta=2
    76                           global __pidataBANK0
    77  0406                     __pidataBANK0:
    78                           	file	"D:\ABHISHEK JOSHI\PIC\UART\UART T10\UART T10.C"
    79                           	line	22
    80                           
    81                           ;initializer for _ascii_tab
    82  0406  3430               	retlw	030h
    83  0407  3431               	retlw	031h
    84  0408  3432               	retlw	032h
    85  0409  3433               	retlw	033h
    86  040A  3434               	retlw	034h
    87  040B  3435               	retlw	035h
    88  040C  3436               	retlw	036h
    89  040D  3437               	retlw	037h
    90  040E  3438               	retlw	038h
    91  040F  3439               	retlw	039h
    92  0410  3441               	retlw	041h
    93  0411  3442               	retlw	042h
    94  0412  3443               	retlw	043h
    95  0413  3444               	retlw	044h
    96  0414  3445               	retlw	045h
    97  0415  3446               	retlw	046h
    98  0416  3400               	retlw	0
    99  0417  3400               	retlw	0
   100  0418  3400               	retlw	0
   101  0419  3400               	retlw	0
   102  041A  3400               	retlw	0
   103  041B  3400               	retlw	0
   104  041C  3400               	retlw	0
   105  041D  3400               	retlw	0
   106  041E  3400               	retlw	0
   107                           	line	20
   108                           
   109                           ;initializer for _cnt
   110  041F  3453               	retlw	053h
   111  0420  3454               	retlw	054h
   112  0421  344F               	retlw	04Fh
   113  0422  3450               	retlw	050h
   114  0423  3457               	retlw	057h
   115  0424  3441               	retlw	041h
   116  0425  3454               	retlw	054h
   117  0426  3443               	retlw	043h
   118  0427  3448               	retlw	048h
   119  0428  3400               	retlw	0
   120                           psect	idataCOMMON,class=CODE,space=0,delta=2
   121                           global __pidataCOMMON
   122  051B                     __pidataCOMMON:
   123                           	line	23
   124                           
   125                           ;initializer for _ds1
   126  051B  3430               	retlw	030h
   127                           
   128                           ;initializer for _ds2
   129  051C  3430               	retlw	030h
   130                           
   131                           ;initializer for _ds3
   132  051D  3430               	retlw	030h
   133                           
   134                           ;initializer for _ds4
   135  051E  3430               	retlw	030h
   136                           psect	idataBANK1,class=CODE,space=0,delta=2
   137                           global __pidataBANK1
   138  0468                     __pidataBANK1:
   139                           	line	21
   140                           
   141                           ;initializer for _disp
   142  0468  34FC               	retlw	0FCh
   143  0469  3460               	retlw	060h
   144  046A  34DA               	retlw	0DAh
   145  046B  34F2               	retlw	0F2h
   146  046C  3466               	retlw	066h
   147  046D  34B6               	retlw	0B6h
   148  046E  34BE               	retlw	0BEh
   149  046F  34E0               	retlw	0E0h
   150  0470  34FE               	retlw	0FEh
   151  0471  34F6               	retlw	0F6h
   152  0472  34FF               	retlw	0FFh
   153  0473  34FF               	retlw	0FFh
   154  0474  34FF               	retlw	0FFh
   155  0475  34FF               	retlw	0FFh
   156  0476  34FF               	retlw	0FFh
   157  0477  34FF               	retlw	0FFh
   158  0478  34FF               	retlw	0FFh
   159  0479  34EE               	retlw	0EEh
   160  047A  343E               	retlw	03Eh
   161  047B  349C               	retlw	09Ch
   162  047C  347A               	retlw	07Ah
   163  047D  349E               	retlw	09Eh
   164  047E  348E               	retlw	08Eh
   165  047F  3400               	retlw	0
   166  0480  3400               	retlw	0
   167                           	global	_a
   168                           	global	_c
   169                           	global	_i
   170                           	global	_k
   171                           	global	_key_code
   172                           	global	_key_ready
   173                           	global	_nkp
   174                           	global	_scan_no
   175                           	global	_start_buzzer
   176                           	global	_start_sw
   177                           	global	_tb
   178                           	global	_cmd_data
   179                           	global	_disp_data
   180                           	global	_cnt_1sh
   181                           psect	nvBANK0,class=BANK0,space=1
   182                           global __pnvBANK0
   183  005A                     __pnvBANK0:
   184  005A                     _cnt_1sh:
   185  005A                            ds      2
   186                           
   187                           	global	_cnt_1sl
   188  005C                     _cnt_1sl:
   189  005C                            ds      2
   190                           
   191                           	global	_dcount
   192  005E                     _dcount:
   193  005E                            ds      2
   194                           
   195                           	global	_krcount
   196  0060                     _krcount:
   197  0060                            ds      2
   198                           
   199                           	global	_s1_over
   200  0062                     _s1_over:
   201  0062                            ds      2
   202                           
   203                           	global	_ADCON0
   204  001F                     _ADCON0  equ     31
   205                           	global	_ADRESH
   206  001E                     _ADRESH  equ     30
   207                           	global	_CCP1CON
   208  0017                     _CCP1CON  equ     23
   209                           	global	_CCP2CON
   210  001D                     _CCP2CON  equ     29
   211                           	global	_CCPR1H
   212  0016                     _CCPR1H  equ     22
   213                           	global	_CCPR1L
   214  0015                     _CCPR1L  equ     21
   215                           	global	_CCPR2H
   216  001C                     _CCPR2H  equ     28
   217                           	global	_CCPR2L
   218  001B                     _CCPR2L  equ     27
   219                           	global	_FSR
   220  0004                     _FSR  equ     4
   221                           	global	_INDF
   222  0000                     _INDF  equ     0
   223                           	global	_INTCON
   224  000B                     _INTCON  equ     11
   225                           	global	_PCL
   226  0002                     _PCL  equ     2
   227                           	global	_PCLATH
   228  000A                     _PCLATH  equ     10
   229                           	global	_PIR1
   230  000C                     _PIR1  equ     12
   231                           	global	_PIR2
   232  000D                     _PIR2  equ     13
   233                           	global	_PORTA
   234  0005                     _PORTA  equ     5
   235                           	global	_PORTB
   236  0006                     _PORTB  equ     6
   237                           	global	_PORTC
   238  0007                     _PORTC  equ     7
   239                           	global	_RCREG
   240  001A                     _RCREG  equ     26
   241                           	global	_RCSTA
   242  0018                     _RCSTA  equ     24
   243                           	global	_SSPBUF
   244  0013                     _SSPBUF  equ     19
   245                           	global	_SSPCON
   246  0014                     _SSPCON  equ     20
   247                           	global	_STATUS
   248  0003                     _STATUS  equ     3
   249                           	global	_T1CON
   250  0010                     _T1CON  equ     16
   251                           	global	_T2CON
   252  0012                     _T2CON  equ     18
   253                           	global	_TMR0
   254  0001                     _TMR0  equ     1
   255                           	global	_TMR1H
   256  000F                     _TMR1H  equ     15
   257                           	global	_TMR1L
   258  000E                     _TMR1L  equ     14
   259                           	global	_TMR2
   260  0011                     _TMR2  equ     17
   261                           	global	_TXREG
   262  0019                     _TXREG  equ     25
   263                           	global	_ADCS0
   264  00FE                     _ADCS0  equ     254
   265                           	global	_ADCS1
   266  00FF                     _ADCS1  equ     255
   267                           	global	_ADDEN
   268  00C3                     _ADDEN  equ     195
   269                           	global	_ADGO
   270  00FA                     _ADGO  equ     250
   271                           	global	_ADIF
   272  0066                     _ADIF  equ     102
   273                           	global	_ADON
   274  00F8                     _ADON  equ     248
   275                           	global	_BCLIF
   276  006B                     _BCLIF  equ     107
   277                           	global	_CARRY
   278  0018                     _CARRY  equ     24
   279                           	global	_CCP1IF
   280  0062                     _CCP1IF  equ     98
   281                           	global	_CCP1M0
   282  00B8                     _CCP1M0  equ     184
   283                           	global	_CCP1M1
   284  00B9                     _CCP1M1  equ     185
   285                           	global	_CCP1M2
   286  00BA                     _CCP1M2  equ     186
   287                           	global	_CCP1M3
   288  00BB                     _CCP1M3  equ     187
   289                           	global	_CCP1X
   290  00BD                     _CCP1X  equ     189
   291                           	global	_CCP1Y
   292  00BC                     _CCP1Y  equ     188
   293                           	global	_CCP2IF
   294  0068                     _CCP2IF  equ     104
   295                           	global	_CCP2M0
   296  00E8                     _CCP2M0  equ     232
   297                           	global	_CCP2M1
   298  00E9                     _CCP2M1  equ     233
   299                           	global	_CCP2M2
   300  00EA                     _CCP2M2  equ     234
   301                           	global	_CCP2M3
   302  00EB                     _CCP2M3  equ     235
   303                           	global	_CCP2X
   304  00ED                     _CCP2X  equ     237
   305                           	global	_CCP2Y
   306  00EC                     _CCP2Y  equ     236
   307                           	global	_CHS0
   308  00FB                     _CHS0  equ     251
   309                           	global	_CHS1
   310  00FC                     _CHS1  equ     252
   311                           	global	_CHS2
   312  00FD                     _CHS2  equ     253
   313                           	global	_CKP
   314  00A4                     _CKP  equ     164
   315                           	global	_CMIF
   316  006E                     _CMIF  equ     110
   317                           	global	_CREN
   318  00C4                     _CREN  equ     196
   319                           	global	_DC
   320  0019                     _DC  equ     25
   321                           	global	_EEIF
   322  006C                     _EEIF  equ     108
   323                           	global	_FERR
   324  00C2                     _FERR  equ     194
   325                           	global	_GIE
   326  005F                     _GIE  equ     95
   327                           	global	_GODONE
   328  00FA                     _GODONE  equ     250
   329                           	global	_INTE
   330  005C                     _INTE  equ     92
   331                           	global	_INTF
   332  0059                     _INTF  equ     89
   333                           	global	_IRP
   334  001F                     _IRP  equ     31
   335                           	global	_OERR
   336  00C1                     _OERR  equ     193
   337                           	global	_PD
   338  001B                     _PD  equ     27
   339                           	global	_PEIE
   340  005E                     _PEIE  equ     94
   341                           	global	_RA0
   342  0028                     _RA0  equ     40
   343                           	global	_RA1
   344  0029                     _RA1  equ     41
   345                           	global	_RA2
   346  002A                     _RA2  equ     42
   347                           	global	_RA3
   348  002B                     _RA3  equ     43
   349                           	global	_RA4
   350  002C                     _RA4  equ     44
   351                           	global	_RA5
   352  002D                     _RA5  equ     45
   353                           	global	_RB0
   354  0030                     _RB0  equ     48
   355                           	global	_RB1
   356  0031                     _RB1  equ     49
   357                           	global	_RB2
   358  0032                     _RB2  equ     50
   359                           	global	_RB3
   360  0033                     _RB3  equ     51
   361                           	global	_RB4
   362  0034                     _RB4  equ     52
   363                           	global	_RB5
   364  0035                     _RB5  equ     53
   365                           	global	_RB6
   366  0036                     _RB6  equ     54
   367                           	global	_RB7
   368  0037                     _RB7  equ     55
   369                           	global	_RBIE
   370  005B                     _RBIE  equ     91
   371                           	global	_RBIF
   372  0058                     _RBIF  equ     88
   373                           	global	_RC0
   374  0038                     _RC0  equ     56
   375                           	global	_RC1
   376  0039                     _RC1  equ     57
   377                           	global	_RC2
   378  003A                     _RC2  equ     58
   379                           	global	_RC3
   380  003B                     _RC3  equ     59
   381                           	global	_RC4
   382  003C                     _RC4  equ     60
   383                           	global	_RC5
   384  003D                     _RC5  equ     61
   385                           	global	_RC6
   386  003E                     _RC6  equ     62
   387                           	global	_RC7
   388  003F                     _RC7  equ     63
   389                           	global	_RCIF
   390  0065                     _RCIF  equ     101
   391                           	global	_RP0
   392  001D                     _RP0  equ     29
   393                           	global	_RP1
   394  001E                     _RP1  equ     30
   395                           	global	_RX9
   396  00C6                     _RX9  equ     198
   397                           	global	_RX9D
   398  00C0                     _RX9D  equ     192
   399                           	global	_SPEN
   400  00C7                     _SPEN  equ     199
   401                           	global	_SREN
   402  00C5                     _SREN  equ     197
   403                           	global	_SSPEN
   404  00A5                     _SSPEN  equ     165
   405                           	global	_SSPIF
   406  0063                     _SSPIF  equ     99
   407                           	global	_SSPM0
   408  00A0                     _SSPM0  equ     160
   409+                          	global	_SSPM1
   410+ 00A1                     _SSPM1  equ     161
   411+                          	global	_SSPM2
   412+ 00A2                     _SSPM2  equ     162
   413+                          	global	_SSPM3
   414+ 00A3                     _SSPM3  equ     163
   415                           	global	_SSPOV
   416  00A6                     _SSPOV  equ     166
   417+                          	global	_T0IE
   418+ 005D                     _T0IE  equ     93
   419+                          	global	_T0IF
   420+ 005A                     _T0IF  equ     90
   421+                          	global	_T1CKPS0
   422+ 0084                     _T1CKPS0  equ     132
   423+                          	global	_T1CKPS1
   424+ 0085                     _T1CKPS1  equ     133
   425+                          	global	_T1OSCEN
   426+ 0083                     _T1OSCEN  equ     131
   427                           	global	_T1SYNC
   428  0082                     _T1SYNC  equ     130
   429+                          	global	_T2CKPS0
   430+ 0090                     _T2CKPS0  equ     144
   431                           	global	_T2CKPS1
   432  0091                     _T2CKPS1  equ     145
   433+                          	global	_TMR0IE
   434+ 005D                     _TMR0IE  equ     93
   435+                          	global	_TMR0IF
   436+ 005A                     _TMR0IF  equ     90
   437+                          	global	_TMR1CS
   438+ 0081                     _TMR1CS  equ     129
   439+                          	global	_TMR1IF
   440+ 0060                     _TMR1IF  equ     96
   441+                          	global	_TMR1ON
   442+ 0080                     _TMR1ON  equ     128
   443                           	global	_TMR2IF
   444  0061                     _TMR2IF  equ     97
   445                           	global	_TMR2ON
   446  0092                     _TMR2ON  equ     146
   447+                          	global	_TO
   448+ 001C                     _TO  equ     28
   449+                          	global	_TOUTPS0
   450+ 0093                     _TOUTPS0  equ     147
   451                           	global	_TOUTPS1
   452  0094                     _TOUTPS1  equ     148
   453+                          	global	_TOUTPS2
   454+ 0095                     _TOUTPS2  equ     149
   455                           	global	_TOUTPS3
   456  0096                     _TOUTPS3  equ     150
   457+                          	global	_TXIF
   458+ 0064                     _TXIF  equ     100
   459                           	global	_WCOL
   460  00A7                     _WCOL  equ     167
   461+                          	global	_ZERO
   462+ 001A                     _ZERO  equ     26
   463+                          	global	_ADCON1
   464+ 009F                     _ADCON1  equ     159
   465+                          	global	_ADRESL
   466+ 009E                     _ADRESL  equ     158
   467+                          	global	_CMCON
   468+ 009C                     _CMCON  equ     156
   469+                          	global	_CVRCON
   470+ 009D                     _CVRCON  equ     157
   471                           	global	_OPTION
   472  0081                     _OPTION  equ     129
   473+                          	global	_PCON
   474+ 008E                     _PCON  equ     142
   475+                          	global	_PIE1
   476+ 008C                     _PIE1  equ     140
   477+                          	global	_PIE2
   478+ 008D                     _PIE2  equ     141
   479                           	global	_PR2
   480  0092                     _PR2  equ     146
   481+                          	global	_SPBRG
   482+ 0099                     _SPBRG  equ     153
   483                           	global	_SSPADD
   484  0093                     _SSPADD  equ     147
   485+                          	global	_SSPCON2
   486+ 0091                     _SSPCON2  equ     145
   487                           	global	_SSPSTAT
   488  0094                     _SSPSTAT  equ     148
   489+                          	global	_TRISA
   490+ 0085                     _TRISA  equ     133
   491+                          	global	_TRISB
   492+ 0086                     _TRISB  equ     134
   493+                          	global	_TRISC
   494+ 0087                     _TRISC  equ     135
   495+                          	global	_TXSTA
   496+ 0098                     _TXSTA  equ     152
   497+                          	global	_ACKDT
   498+ 048D                     _ACKDT  equ     1165
   499                           	global	_ACKEN
   500  048C                     _ACKEN  equ     1164
   501+                          	global	_ACKSTAT
   502+ 048E                     _ACKSTAT  equ     1166
   503+                          	global	_ADCS2
   504+ 04FE                     _ADCS2  equ     1278
   505+                          	global	_ADFM
   506+ 04FF                     _ADFM  equ     1279
   507+                          	global	_ADIE
   508+ 0466                     _ADIE  equ     1126
   509+                          	global	_BCLIE
   510+ 046B                     _BCLIE  equ     1131
   511                           	global	_BF
   512  04A0                     _BF  equ     1184
   513+                          	global	_BOR
   514+ 0470                     _BOR  equ     1136
   515                           	global	_BRGH
   516  04C2                     _BRGH  equ     1218
   517+                          	global	_C1INV
   518+ 04E4                     _C1INV  equ     1252
   519+                          	global	_C1OUT
   520+ 04E6                     _C1OUT  equ     1254
   521+                          	global	_C2INV
   522+ 04E5                     _C2INV  equ     1253
   523+                          	global	_C2OUT
   524+ 04E7                     _C2OUT  equ     1255
   525+                          	global	_CCP1IE
   526+ 0462                     _CCP1IE  equ     1122
   527                           	global	_CCP2IE
   528  0468                     _CCP2IE  equ     1128
   529+                          	global	_CIS
   530+ 04E3                     _CIS  equ     1251
   531+                          	global	_CKE
   532+ 04A6                     _CKE  equ     1190
   533+                          	global	_CM0
   534+ 04E0                     _CM0  equ     1248
   535+                          	global	_CM1
   536+ 04E1                     _CM1  equ     1249
   537+                          	global	_CM2
   538+ 04E2                     _CM2  equ     1250
   539                           	global	_CMIE
   540  046E                     _CMIE  equ     1134
   541+                          	global	_CSRC
   542+ 04C7                     _CSRC  equ     1223
   543                           	global	_CVR0
   544  04E8                     _CVR0  equ     1256
   545+                          	global	_CVR1
   546+ 04E9                     _CVR1  equ     1257
   547+                          	global	_CVR2
   548+ 04EA                     _CVR2  equ     1258
   549+                          	global	_CVR3
   550+ 04EB                     _CVR3  equ     1259
   551+                          	global	_CVREN
   552+ 04EF                     _CVREN  equ     1263
   553+                          	global	_CVROE
   554+ 04EE                     _CVROE  equ     1262
   555                           	global	_CVRR
   556  04ED                     _CVRR  equ     1261
   557+                          	global	_DA
   558+ 04A5                     _DA  equ     1189
   559+                          	global	_EEIE
   560+ 046C                     _EEIE  equ     1132
   561+                          	global	_GCEN
   562+ 048F                     _GCEN  equ     1167
   563+                          	global	_INTEDG
   564+ 040E                     _INTEDG  equ     1038
   565+                          	global	_PCFG0
   566+ 04F8                     _PCFG0  equ     1272
   567                           	global	_PCFG1
   568  04F9                     _PCFG1  equ     1273
   569+                          	global	_PCFG2
   570+ 04FA                     _PCFG2  equ     1274
   571                           	global	_PCFG3
   572  04FB                     _PCFG3  equ     1275
   573+                          	global	_PEN
   574+ 048A                     _PEN  equ     1162
   575+                          	global	_POR
   576+ 0471                     _POR  equ     1137
   577+                          	global	_PS0
   578+ 0408                     _PS0  equ     1032
   579+                          	global	_PS1
   580+ 0409                     _PS1  equ     1033
   581+                          	global	_PS2
   582+ 040A                     _PS2  equ     1034
   583                           	global	_PSA
   584  040B                     _PSA  equ     1035
   585+                          	global	_RBPU
   586+ 040F                     _RBPU  equ     1039
   587+                          	global	_RCEN
   588+ 048B                     _RCEN  equ     1163
   589+                          	global	_RCIE
   590+ 0465                     _RCIE  equ     1125
   591+                          	global	_RSEN
   592+ 0489                     _RSEN  equ     1161
   593+                          	global	_RW
   594+ 04A2                     _RW  equ     1186
   595                           	global	_SEN
   596  0488                     _SEN  equ     1160
   597+                          	global	_SMP
   598+ 04A7                     _SMP  equ     1191
   599                           	global	_SSPIE
   600  0463                     _SSPIE  equ     1123
   601+                          	global	_START
   602+ 04A3                     _START  equ     1187
   603+                          	global	_STOP
   604+ 04A4                     _STOP  equ     1188
   605+                          	global	_SYNC
   606+ 04C4                     _SYNC  equ     1220
   607+                          	global	_T0CS
   608+ 040D                     _T0CS  equ     1037
   609                           	global	_T0SE
   610  040C                     _T0SE  equ     1036
   611                           	global	_TMR1IE
   612  0460                     _TMR1IE  equ     1120
   613                           	global	_TMR2IE
   614  0461                     _TMR2IE  equ     1121
   615                           	global	_TRISA0
   616  0428                     _TRISA0  equ     1064
   617                           	global	_TRISA1
   618  0429                     _TRISA1  equ     1065
   619                           	global	_TRISA2
   620  042A                     _TRISA2  equ     1066
   621                           	global	_TRISA3
   622  042B                     _TRISA3  equ     1067
   623                           	global	_TRISA4
   624  042C                     _TRISA4  equ     1068
   625                           	global	_TRISA5
   626  042D                     _TRISA5  equ     1069
   627                           	global	_TRISB0
   628  0430                     _TRISB0  equ     1072
   629                           	global	_TRISB1
   630  0431                     _TRISB1  equ     1073
   631                           	global	_TRISB2
   632  0432                     _TRISB2  equ     1074
   633                           	global	_TRISB3
   634  0433                     _TRISB3  equ     1075
   635                           	global	_TRISB4
   636  0434                     _TRISB4  equ     1076
   637                           	global	_TRISB5
   638  0435                     _TRISB5  equ     1077
   639                           	global	_TRISB6
   640  0436                     _TRISB6  equ     1078
   641                           	global	_TRISB7
   642  0437                     _TRISB7  equ     1079
   643                           	global	_TRISC0
   644  0438                     _TRISC0  equ     1080
   645                           	global	_TRISC1
   646  0439                     _TRISC1  equ     1081
   647                           	global	_TRISC2
   648  043A                     _TRISC2  equ     1082
   649                           	global	_TRISC3
   650  043B                     _TRISC3  equ     1083
   651                           	global	_TRISC4
   652  043C                     _TRISC4  equ     1084
   653                           	global	_TRISC5
   654  043D                     _TRISC5  equ     1085
   655                           	global	_TRISC6
   656  043E                     _TRISC6  equ     1086
   657                           	global	_TRISC7
   658  043F                     _TRISC7  equ     1087
   659                           	global	_TRMT
   660  04C1                     _TRMT  equ     1217
   661                           	global	_TX9
   662  04C6                     _TX9  equ     1222
   663                           	global	_TX9D
   664  04C0                     _TX9D  equ     1216
   665                           	global	_TXEN
   666  04C5                     _TXEN  equ     1221
   667                           	global	_TXIE
   668  0464                     _TXIE  equ     1124
   669                           	global	_UA
   670  04A1                     _UA  equ     1185
   671                           	global	_EEADR
   672  010D                     _EEADR  equ     269
   673                           	global	_EEADRH
   674  010F                     _EEADRH  equ     271
   675                           	global	_EEADRL
   676  010D                     _EEADRL  equ     269
   677                           	global	_EEDATA
   678  010C                     _EEDATA  equ     268
   679                           	global	_EEDATH
   680  010E                     _EEDATH  equ     270
   681                           	global	_EECON1
   682  018C                     _EECON1  equ     396
   683                           	global	_EECON2
   684  018D                     _EECON2  equ     397
   685                           	global	_EEPGD
   686  0C67                     _EEPGD  equ     3175
   687                           	global	_RD
   688  0C60                     _RD  equ     3168
   689                           	global	_WR
   690  0C61                     _WR  equ     3169
   691                           	global	_WREN
   692  0C62                     _WREN  equ     3170
   693                           	global	_WRERR
   694  0C63                     _WRERR  equ     3171
   695                           	file	"UART T10.as"
   696                           	line	#
   697                           psect cinit,class=CODE,delta=2
   698                           global start_initialization
   699  028F                     start_initialization:
   700                           
   701                           psect	bssCOMMON,class=COMMON,space=1
   702                           global __pbssCOMMON
   703  0079                     __pbssCOMMON:
   704  0079                     _disp_data:
   705  0079                            ds      1
   706                           
   707                           psect	dataCOMMON,class=COMMON,space=1
   708                           global __pdataCOMMON
   709  0075                     __pdataCOMMON:
   710                           	file	"D:\ABHISHEK JOSHI\PIC\UART\UART T10\UART T10.C"
   711                           	line	23
   712  0075                     _ds1:
   713  0075                            ds      1
   714                           
   715                           psect	dataCOMMON
   716                           	file	"D:\ABHISHEK JOSHI\PIC\UART\UART T10\UART T10.C"
   717                           	line	23
   718  0076                     _ds2:
   719  0076                            ds      1
   720                           
   721                           psect	dataCOMMON
   722                           	file	"D:\ABHISHEK JOSHI\PIC\UART\UART T10\UART T10.C"
   723                           	line	23
   724  0077                     _ds3:
   725  0077                            ds      1
   726                           
   727                           psect	dataCOMMON
   728                           	file	"D:\ABHISHEK JOSHI\PIC\UART\UART T10\UART T10.C"
   729                           	line	23
   730  0078                     _ds4:
   731  0078                            ds      1
   732                           
   733                           psect	bssBANK0,class=BANK0,space=1
   734                           global __pbssBANK0
   735  0043                     __pbssBANK0:
   736  0043                     _a:
   737  0043                            ds      2
   738                           
   739  0045                     _c:
   740  0045                            ds      2
   741                           
   742  0047                     _i:
   743  0047                            ds      2
   744                           
   745  0049                     _k:
   746  0049                            ds      2
   747                           
   748  004B                     _key_code:
   749  004B                            ds      2
   750                           
   751  004D                     _key_ready:
   752  004D                            ds      2
   753                           
   754  004F                     _nkp:
   755  004F                            ds      2
   756                           
   757  0051                     _scan_no:
   758  0051                            ds      2
   759                           
   760  0053                     _start_buzzer:
   761  0053                            ds      2
   762                           
   763  0055                     _start_sw:
   764  0055                            ds      2
   765                           
   766  0057                     _tb:
   767  0057                            ds      2
   768                           
   769  0059                     _cmd_data:
   770  0059                            ds      1
   771                           
   772                           psect	dataBANK0,class=BANK0,space=1
   773                           global __pdataBANK0
   774  0020                     __pdataBANK0:
   775                           	file	"D:\ABHISHEK JOSHI\PIC\UART\UART T10\UART T10.C"
   776                           	line	22
   777  0020                     _ascii_tab:
   778  0020                            ds      25
   779                           
   780                           psect	dataBANK0
   781                           	file	"D:\ABHISHEK JOSHI\PIC\UART\UART T10\UART T10.C"
   782                           	line	20
   783  0039                     _cnt:
   784  0039                            ds      10
   785                           
   786                           psect	dataBANK1,class=BANK1,space=1
   787                           global __pdataBANK1
   788  00A0                     __pdataBANK1:
   789                           	file	"D:\ABHISHEK JOSHI\PIC\UART\UART T10\UART T10.C"
   790                           	line	21
   791  00A0                     _disp:
   792  00A0                            ds      25
   793                           
   794                           psect clrtext,class=CODE,delta=2
   795                           global clear_ram
   796                           ;	Called with FSR containing the base address, and
   797                           ;	W with the last address+1
   798  0505                     clear_ram:
   799  0505  0064               	clrwdt			;clear the watchdog before getting into this loop
   800  0506                     clrloop:
   801  0506  0180               	clrf	indf		;clear RAM location pointed to by FSR
   802  0507  0A84               	incf	fsr,f		;increment pointer
   803  0508  0604               	xorwf	fsr,w		;XOR with final address
   804  0509  1903               	btfsc	status,2	;have we reached the end yet?
   805  050A  3400               	retlw	0		;all done for this memory range, return
   806  050B  0604               	xorwf	fsr,w		;XOR again to restore value
   807  050C  2D06               	goto	clrloop		;do the next byte
   808                           
   809                           ; Clear objects allocated to COMMON
   810                           psect cinit,class=CODE,delta=2
   811  028F  01F9               	clrf	((__pbssCOMMON)+0)&07Fh
   812                           ; Clear objects allocated to BANK0
   813                           psect cinit,class=CODE,delta=2
   814  0290  1383               	bcf	status, 7	;select IRP bank0
   815  0291  3043               	movlw	low(__pbssBANK0)
   816  0292  0084               	movwf	fsr
   817  0293  305A               	movlw	low((__pbssBANK0)+017h)
   818  0294  120A  118A  2505   	fcall	clear_ram
              120A  118A         
   819                           global btemp
   820                           psect inittext,class=CODE,delta=2
   821                           global init_fetch,btemp
   822                           ;	Called with low address in FSR and high address in W
   823  0493                     init_fetch:
   824  0493  087E               	movf btemp,w
   825  0494  008A               	movwf pclath
   826  0495  087F               	movf btemp+1,w
   827  0496  0082               	movwf pc
   828                           global init_ram
   829                           ;Called with:
   830                           ;	high address of idata address in btemp 
   831                           ;	low address of idata address in btemp+1 
   832                           ;	low address of data in FSR
   833                           ;	high address + 1 of data in btemp-1
   834  0497                     init_ram:
   835  0497  2493  120A  118A   	fcall init_fetch
   836  049A  0080               	movwf indf,f
   837  049B  0A84               	incf fsr,f
   838  049C  0804               	movf fsr,w
   839  049D  067D               	xorwf btemp-1,w
   840  049E  1903               	btfsc status,2
   841  049F  3400               	retlw 0
   842  04A0  0AFF               	incf btemp+1,f
   843  04A1  1903               	btfsc status,2
   844  04A2  0AFE               	incf btemp,f
   845  04A3  2C97               	goto init_ram
   846                           ; Initialize objects allocated to COMMON
   847                           psect cinit,class=CODE,delta=2
   848                           global init_ram, __pidataCOMMON
   849  0299  3079               	movlw low(__pdataCOMMON+4)
   850  029A  00FD               	movwf btemp-1,f
   851  029B  3005               	movlw high(__pidataCOMMON)
   852  029C  00FE               	movwf btemp,f
   853  029D  301B               	movlw low(__pidataCOMMON)
   854  029E  00FF               	movwf btemp+1,f
   855  029F  3075               	movlw low(__pdataCOMMON)
   856  02A0  0084               	movwf fsr,f
   857  02A1  120A  118A  2497   	fcall init_ram
              120A  118A         
   858                           ; Initialize objects allocated to BANK0
   859                           psect cinit,class=CODE,delta=2
   860                           global init_ram, __pidataBANK0
   861  02A6  3043               	movlw low(__pdataBANK0+35)
   862  02A7  00FD               	movwf btemp-1,f
   863  02A8  3004               	movlw high(__pidataBANK0)
   864  02A9  00FE               	movwf btemp,f
   865  02AA  3006               	movlw low(__pidataBANK0)
   866  02AB  00FF               	movwf btemp+1,f
   867  02AC  3020               	movlw low(__pdataBANK0)
   868  02AD  0084               	movwf fsr,f
   869  02AE  120A  118A  2497   	fcall init_ram
              120A  118A         
   870                           ; Initialize objects allocated to BANK1
   871                           psect cinit,class=CODE,delta=2
   872                           global init_ram, __pidataBANK1
   873  02B3  30B9               	movlw low(__pdataBANK1+25)
   874  02B4  00FD               	movwf btemp-1,f
   875  02B5  3004               	movlw high(__pidataBANK1)
   876  02B6  00FE               	movwf btemp,f
   877  02B7  3068               	movlw low(__pidataBANK1)
   878  02B8  00FF               	movwf btemp+1,f
   879  02B9  30A0               	movlw low(__pdataBANK1)
   880  02BA  0084               	movwf fsr,f
   881  02BB  120A  118A  2497   	fcall init_ram
              120A  118A         
   882                           psect cinit,class=CODE,delta=2
   883                           global end_of_initialization
   884                           
   885                           ;End of C runtime variable initationation code
   886                           
   887  02C0                     end_of_initialization:
   888  02C0  0183               clrf status
   889  02C1  120A  118A  2B5A   ljmp _main	;jump to C main() function
   890                           psect	cstackBANK1,class=BANK1,space=1
   891                           global __pcstackBANK1
   892  00B9                     __pcstackBANK1:
   893                           	global	??_isr_t0
   894  00B9                     ??_isr_t0: ;@ 0x0
   895  00B9                     	ds	4
   896                           psect	cstackCOMMON,class=COMMON,space=1
   897                           global __pcstackCOMMON
   898  0070                     __pcstackCOMMON:
   899                           	global	??_process_b
   900  0070                     ??_process_b: ;@ 0x0
   901                           	global	?_init_delay_1sec
   902  0070                     ?_init_delay_1sec: ;@ 0x0
   903                           	global	??_init_delay_1sec
   904  0070                     ??_init_delay_1sec: ;@ 0x0
   905                           	global	?_process_c
   906  0070                     ?_process_c: ;@ 0x0
   907                           	global	??_process_c
   908  0070                     ??_process_c: ;@ 0x0
   909                           	global	?_process_b
   910  0070                     ?_process_b: ;@ 0x0
   911                           	global	??_init_keypad
   912  0070                     ??_init_keypad: ;@ 0x0
   913                           	global	??_tx
   914  0070                     ??_tx: ;@ 0x0
   915                           	global	??_uart_delay
   916  0070                     ??_uart_delay: ;@ 0x0
   917                           	global	?_init_timer
   918  0070                     ?_init_timer: ;@ 0x0
   919                           	global	??_init_timer
   920  0070                     ??_init_timer: ;@ 0x0
   921                           	global	?_init_keypad
   922  0070                     ?_init_keypad: ;@ 0x0
   923                           	global	??_key_release
   924  0070                     ??_key_release: ;@ 0x0
   925                           	global	?_init_uart
   926  0070                     ?_init_uart: ;@ 0x0
   927                           	global	??_init_uart
   928  0070                     ??_init_uart: ;@ 0x0
   929                           	global	?_keyprocess
   930  0070                     ?_keyprocess: ;@ 0x0
   931                           	global	??_keyprocess
   932  0070                     ??_keyprocess: ;@ 0x0
   933                           	global	?_init
   934  0070                     ?_init: ;@ 0x0
   935                           	global	??_process_a
   936  0070                     ??_process_a: ;@ 0x0
   937                           	global	?_key_release
   938  0070                     ?_key_release: ;@ 0x0
   939                           	global	?_process_a
   940  0070                     ?_process_a: ;@ 0x0
   941                           	global	??_init
   942  0070                     ??_init: ;@ 0x0
   943                           	global	tx@tx_data
   944  0070                     tx@tx_data:	; 1 bytes @ 0x0
   945  0070                     	ds	1
   946                           	global	?_tx
   947  0071                     ?_tx: ;@ 0x1
   948                           	global	??_home_screen
   949  0071                     ??_home_screen: ;@ 0x1
   950                           	global	?_uart_delay
   951  0071                     ?_uart_delay: ;@ 0x1
   952                           	global	??_uart_disp
   953  0071                     ??_uart_disp: ;@ 0x1
   954                           	global	uart_delay@del
   955  0071                     uart_delay@del:	; 2 bytes @ 0x1
   956  0071                     	ds	2
   957                           	global	??_get_key
   958  0073                     ??_get_key: ;@ 0x3
   959                           	global	??_main
   960  0073                     ??_main: ;@ 0x3
   961                           	global	?_home_screen
   962  0073                     ?_home_screen: ;@ 0x3
   963                           	global	?_uart_disp
   964  0073                     ?_uart_disp: ;@ 0x3
   965  0073                     	ds	2
   966                           	global	?_main
   967  0075                     ?_main: ;@ 0x5
   968                           	global	?_get_key
   969  0075                     ?_get_key: ;@ 0x5
   970                           psect	cstackBANK0,class=BANK0,space=1
   971                           global __pcstackBANK0
   972  0064                     __pcstackBANK0:
   973                           	global	uart_delay@i
   974  0064                     uart_delay@i:	; 2 bytes @ 0x0
   975  0064                     	ds	2
   976                           	global	uart_delay@j
   977  0066                     uart_delay@j:	; 2 bytes @ 0x2
   978  0066                     	ds	2
   979                           	global	??i1_init_timer
   980  0068                     ??i1_init_timer: ;@ 0x4
   981                           	global	?i1_init_timer
   982  0068                     ?i1_init_timer: ;@ 0x4
   983                           	global	??_delay_1sec
   984  0068                     ??_delay_1sec: ;@ 0x4
   985                           	global	?_delay_1sec
   986  0068                     ?_delay_1sec: ;@ 0x4
   987                           	global	??_incrementd
   988  0068                     ??_incrementd: ;@ 0x4
   989                           	global	?_k1
   990  0068                     ?_k1: ;@ 0x4
   991                           	global	??_k1
   992  0068                     ??_k1: ;@ 0x4
   993                           	global	?_incrementd
   994  0068                     ?_incrementd: ;@ 0x4
   995                           	global	??_scanner
   996  0068                     ??_scanner: ;@ 0x4
   997  0068                     	ds	2
   998                           	global	?_isr_t0
   999  006A                     ?_isr_t0: ;@ 0x6
  1000                           	global	?_scanner
  1001  006A                     ?_scanner: ;@ 0x6
  1002                           ;Data sizes: Strings 0, constant 0, data 64, bss 24, persistent 10 stack 0
  1003                           ;Auto spaces:   Size  Autos    Used
  1004                           ; COMMON          14      5      10
  1005                           ; BANK0           80      6      74
  1006                           ; BANK1           80      4      29
  1007                           ; BANK3           96      0       0
  1008                           ; BANK2           96      0       0
  1009                           
  1010                           
  1011                           ;Pointer list with targets:
  1012                           
  1013                           
  1014                           
  1015                           ;Main: autosize = 0, tempsize = 0, incstack = 0, save=0
  1016                           
  1017                           
  1018                           ;Call graph:                      Base Space Used Autos Args Refs Density
  1019                           ;_main                                                0    0  140   0.00
  1020                           ;          _init_uart
  1021                           ;               _init
  1022                           ;            _get_key
  1023                           ;         _keyprocess
  1024                           ;  _keyprocess                                        0    0    0   0.00
  1025                           ;          _process_a
  1026                           ;          _process_b
  1027                           ;          _process_c
  1028                           ;        _key_release
  1029                           ;  _get_key                                           2    0  140   0.00
  1030                           ;                                    3 COMMO    2
  1031                           ;          _uart_disp
  1032                           ;  _init_uart                                         0    0    0   0.00
  1033                           ;  _init                                              0    0    0   0.00
  1034                           ;        _init_keypad
  1035                           ;         _init_timer
  1036                           ;    _init_delay_1sec
  1037                           ;    _process_a                                       0    0    0   0.00
  1038                           ;    _key_release                                     0    0    0   0.00
  1039                           ;    _process_c                                       0    0    0   0.00
  1040                           ;    _process_b                                       0    0    0   0.00
  1041                           ;    _init_delay_1sec                                 0    0    0   0.00
  1042                           ;    _init_timer                                      0    0    0   0.00
  1043                           ;    _init_keypad                                     0    0    0   0.00
  1044                           ;    _uart_disp                                       0    0  140   0.00
  1045                           ;        _home_screen
  1046                           ;                 _tx
  1047                           ;      _home_screen                                   0    0  124   0.00
  1048                           ;                 _tx
  1049                           ;         _uart_delay
  1050                           ;        _tx                                          1    0   16   0.00
  1051                           ;                                    0 COMMO    1
  1052                           ;        _uart_delay                                  5    2  108   0.00
  1053                           ;                                    0 COMMO    3
  1054                           ;                                    0 BANK0    4
  1055                           ; Estimated maximum call depth 4
  1056                           ;_isr_t0                                              4    0    0   0.00
  1057                           ;                                    0 BANK1    4
  1058                           ;       i1_init_timer
  1059                           ;         _delay_1sec
  1060                           ;            _scanner
  1061                           ;         _incrementd
  1062                           ;  _scanner                                           2    0    0   0.00
  1063                           ;                                    4 BANK0    2
  1064                           ;                 _k1
  1065                           ;  _incrementd                                        0    0    0   0.00
  1066                           ;  i1_init_timer                                      0    0    0   0.00
  1067                           ;  _delay_1sec                                        0    0    0   0.00
  1068                           ;    _k1                                              0    0    0   0.00
  1069                           ; Estimated maximum call depth 2
  1070                           ; Address spaces:
  1071                           
  1072                           ;Name               Size   Autos  Total    Cost      Usage
  1073                           ;BITCOMMON            E      0       0       0        0.0%
  1074                           ;CODE                 0      0       0       0        0.0%
  1075                           ;NULL                 0      0       0       0        0.0%
  1076                           ;COMMON               E      5       A       1       71.4%
  1077                           ;SFR0                 0      0       0       1        0.0%
  1078                           ;BITSFR0              0      0       0       1        0.0%
  1079                           ;BITSFR1              0      0       0       2        0.0%
  1080                           ;SFR1                 0      0       0       2        0.0%
  1081                           ;ABS                  0      0      71       2        0.0%
  1082                           ;STACK                0      0       0       3        0.0%
  1083                           ;BITBANK0            50      0       0       4        0.0%
  1084                           ;SFR3                 0      0       0       4        0.0%
  1085                           ;BITSFR3              0      0       0       4        0.0%
  1086                           ;BANK0               50      6      4A       5       92.5%
  1087                           ;BITSFR2              0      0       0       5        0.0%
  1088                           ;SFR2                 0      0       0       5        0.0%
  1089                           ;BITBANK1            50      0       0       6        0.0%
  1090                           ;BANK1               50      4      1D       7       36.3%
  1091                           ;BITBANK3            60      0       0       8        0.0%
  1092                           ;BANK3               60      0       0       9        0.0%
  1093                           ;BITBANK2            60      0       0      10        0.0%
  1094                           ;BANK2               60      0       0      11        0.0%
  1095                           ;DATA                 0      0      71      12        0.0%
  1096                           ;EEDATA             100      0       0    1000        0.0%
  1097                           
  1098                           	global	_main
  1099                           psect	maintext,local,class=CODE,delta=2
  1100                           global __pmaintext
  1101  035A                     __pmaintext:
  1102                           
  1103                           ; *************** function _main *****************
  1104                           ; Defined at:
  1105                           ;		line 69 in file "D:\ABHISHEK JOSHI\PIC\UART\UART T10\UART T10.C"
  1106                           ; Parameters:    Size  Location     Type
  1107                           ;		None
  1108                           ; Auto vars:     Size  Location     Type
  1109                           ;		None
  1110                           ; Return value:  Size  Location     Type
  1111                           ;		None               void
  1112                           ; Registers used:
  1113                           ;		wreg, fsr0l, fsr0h, status,2, status,0, pclath, cstack
  1114                           ; Tracked objects:
  1115                           ;		On entry : 17F/0
  1116                           ;		On exit  : 0/0
  1117                           ;		Unchanged: 0/0
  1118                           ; Data sizes:     COMMON   BANK0   BANK1   BANK3   BANK2
  1119                           ;      Locals:         0       0       0       0       0
  1120                           ;      Temp:     0
  1121                           ;      Total:    0
  1122                           ; This function calls:
  1123                           ;		_init_uart
  1124                           ;		_init
  1125                           ;		_get_key
  1126                           ;		_keyprocess
  1127                           ; This function is called by:
  1128                           ;		Startup code after reset
  1129                           ; This function uses a non-reentrant model
  1130                           ; 
  1131                           psect	maintext
  1132                           	file	"D:\ABHISHEK JOSHI\PIC\UART\UART T10\UART T10.C"
  1133                           	line	69
  1134                           	global	__size_of_main
  1135  002F                     	__size_of_main	equ	__end_of_main-_main
  1136                           ;UART T10.C: 68: void main()
  1137                           ;UART T10.C: 69: {
  1138                           	
  1139  035A                     _main:	
  1140                           	opt stack 5
  1141                           ; Regs used in _main: [wreg-fsr0h+status,2+status,0+pclath+cstack]
  1142                           	line	70
  1143                           	
  1144  035A                     l30000698:	
  1145                           ;UART T10.C: 70: TRISB=0x00;
  1146  035A  1003               	clrc
  1147  035B  3000               	movlw	0
  1148  035C  1803               	btfsc	status,0
  1149  035D  3001               	movlw	1
  1150  035E  1683               	bsf	status, 5	;RP0=1, select bank1
  1151  035F  1303               	bcf	status, 6	;RP1=0, select bank1
  1152  0360  0086               	movwf	(134)^080h	;volatile
  1153                           	
  1154  0361                     l30000699:	
  1155                           	line	71
  1156                           ;UART T10.C: 71: TRISA=0x3C;
  1157  0361  303C               	movlw	(03Ch)
  1158  0362  0085               	movwf	(133)^080h	;volatile
  1159                           	
  1160  0363                     l30000700:	
  1161                           	line	72
  1162                           ;UART T10.C: 72: TRISC=0xC0;
  1163  0363  30C0               	movlw	(0C0h)
  1164  0364  0087               	movwf	(135)^080h	;volatile
  1165                           	
  1166  0365                     l30000701:	
  1167                           	line	73
  1168                           ;UART T10.C: 73: ADCON1=0x06;
  1169  0365  3006               	movlw	(06h)
  1170  0366  009F               	movwf	(159)^080h	;volatile
  1171                           	
  1172  0367                     l30000702:	
  1173                           	line	74
  1174                           ;UART T10.C: 74: init_uart();
  1175  0367  120A  118A  24FB   	fcall	_init_uart
              120A  118A         
  1176                           	
  1177  036C                     l30000703:	
  1178                           	line	75
  1179                           ;UART T10.C: 75: start_sw=0;
  1180  036C  3000               	movlw	low(0)
  1181  036D  1283               	bcf	status, 5	;RP0=0, select bank0
  1182  036E  1303               	bcf	status, 6	;RP1=0, select bank0
  1183  036F  00D5               	movwf	(_start_sw)
  1184  0370  3000               	movlw	high(0)
  1185  0371  00D6               	movwf	((_start_sw))+1
  1186                           	
  1187  0372                     l30000704:	
  1188                           	line	76
  1189                           ;UART T10.C: 76: init();
  1190  0372  120A  118A  24A4   	fcall	_init
              120A  118A         
  1191                           	
  1192  0377                     l30000705:	
  1193                           	line	77
  1194                           ;UART T10.C: 77: GIE=1;
  1195  0377  1283               	bcf	status, 5	;RP0=0, select bank0
  1196  0378  1303               	bcf	status, 6	;RP1=0, select bank0
  1197  0379  178B               	bsf	(95/8),(95)&7
  1198                           	
  1199  037A                     l30000706:	
  1200                           	line	78
  1201                           ;UART T10.C: 78: PEIE=1;
  1202  037A  170B               	bsf	(94/8),(94)&7
  1203                           	
  1204  037B                     l30000707:	
  1205                           	line	88
  1206                           ;UART T10.C: 87: {
  1207                           ;UART T10.C: 88: get_key();
  1208  037B  120A  118A  2429   	fcall	_get_key
              120A  118A         
  1209                           	
  1210  0380                     l30000708:	
  1211                           	line	89
  1212                           ;UART T10.C: 89: keyprocess();
  1213  0380  120A  118A  23B7   	fcall	_keyprocess
              120A  118A         
  1214  0385  2B7B               	goto	l30000707
  1215                           	global	start
  1216  0386  120A  118A  2812   	ljmp	start
  1217                           	opt stack 0
  1218                           GLOBAL	__end_of_main
  1219  0389                     	__end_of_main:
  1220                           ; =============== function _main ends ============
  1221                           
  1222                           psect	maintext
  1223                           	line	91
  1224                           	signat	_main,88
  1225                           	global	_keyprocess
  1226                           psect	text145,local,class=CODE,delta=2
  1227                           global __ptext145
  1228  03B7                     __ptext145:
  1229                           
  1230                           ; *************** function _keyprocess *****************
  1231                           ; Defined at:
  1232                           ;		line 402 in file "D:\ABHISHEK JOSHI\PIC\UART\UART T10\UART T10.C"
  1233                           ; Parameters:    Size  Location     Type
  1234                           ;		None
  1235                           ; Auto vars:     Size  Location     Type
  1236                           ;		None
  1237                           ; Return value:  Size  Location     Type
  1238                           ;		None               void
  1239                           ; Registers used:
  1240                           ;		wreg, fsr0l, fsr0h, status,2, status,0, pclath, cstack
  1241                           ; Tracked objects:
  1242                           ;		On entry : 0/0
  1243                           ;		On exit  : 0/0
  1244                           ;		Unchanged: 0/0
  1245                           ; Data sizes:     COMMON   BANK0   BANK1   BANK3   BANK2
  1246                           ;      Locals:         0       0       0       0       0
  1247                           ;      Temp:     0
  1248                           ;      Total:    0
  1249                           ; This function calls:
  1250                           ;		_process_a
  1251                           ;		_process_b
  1252                           ;		_process_c
  1253                           ;		_key_release
  1254                           ; This function is called by:
  1255                           ;		_main
  1256                           ; This function uses a non-reentrant model
  1257                           ; 
  1258                           psect	text145
  1259                           	file	"D:\ABHISHEK JOSHI\PIC\UART\UART T10\UART T10.C"
  1260                           	line	402
  1261                           	global	__size_of_keyprocess
  1262  002C                     	__size_of_keyprocess	equ	__end_of_keyprocess-_keyprocess
  1263                           ;UART T10.C: 401: void keyprocess()
  1264                           ;UART T10.C: 402: {
  1265                           	
  1266  03B7                     _keyprocess:	
  1267                           	opt stack 4
  1268                           ; Regs used in _keyprocess: [wreg-fsr0h+status,2+status,0+pclath+cstack]
  1269                           	
  1270  03B7                     l30000667:	
  1271  03B7  2BCA               	goto	l30000672
  1272                           	
  1273  03B8                     l30000668:	
  1274                           	line	406
  1275                           ;UART T10.C: 406: process_a();
  1276  03B8  120A  118A  2514   	fcall	_process_a
              120A  118A         
  1277  03BD  2BDD               	goto	l30000673
  1278                           	
  1279  03BE                     l30000669:	
  1280                           	line	410
  1281                           ;UART T10.C: 410: process_b();
  1282  03BE  120A  118A  250D   	fcall	_process_b
              120A  118A         
  1283  03C3  2BDD               	goto	l30000673
  1284                           	
  1285  03C4                     l30000670:	
  1286                           	line	413
  1287                           ;UART T10.C: 413: process_c();
  1288  03C4  120A  118A  24C3   	fcall	_process_c
              120A  118A         
  1289  03C9  2BDD               	goto	l30000673
  1290                           	
  1291  03CA                     l30000672:	
  1292                           	line	403
  1293  03CA  2BD8               		goto	l30023
  1294  03CB                     l30024:
  1295  03CB  1283               	bcf	status, 5	;RP0=0, select bank0
  1296  03CC  1303               	bcf	status, 6	;RP1=0, select bank0
  1297  03CD  084B               	movf (_key_code),w
  1298  03CE  3A41               	xorlw	65^0
  1299  03CF  1903               	skipnz
  1300  03D0  2BB8               	goto	l30000668
  1301  03D1  3A03               	xorlw	66^65
  1302  03D2  1903               	skipnz
  1303  03D3  2BBE               	goto	l30000669
  1304  03D4  3A01               	xorlw	67^66
  1305  03D5  1903               	skipnz
  1306  03D6  2BC4               	goto	l30000670
  1307  03D7  2BDD               	goto	l30000673
  1308                           
  1309  03D8                     l30023:
  1310  03D8  084C               	movf (_key_code+1),w
  1311  03D9  3A00               	xorlw	0^0
  1312  03DA  1903               	skipnz
  1313  03DB  2BCB               	goto	l30024
  1314  03DC  2BDD               	goto	l30000673
  1315                           
  1316                           	
  1317  03DD                     l30000673:	
  1318                           	line	416
  1319                           ;UART T10.C: 416: key_release();
  1320  03DD  120A  118A  2481   	fcall	_key_release
              120A  118A         
  1321                           	
  1322  03E2                     l73:	
  1323  03E2  0008               	return
  1324                           	opt stack 0
  1325                           GLOBAL	__end_of_keyprocess
  1326  03E3                     	__end_of_keyprocess:
  1327                           ; =============== function _keyprocess ends ============
  1328                           
  1329                           psect	text146,local,class=CODE,delta=2
  1330                           global __ptext146
  1331  0429                     __ptext146:
  1332                           	line	417
  1333                           	signat	_keyprocess,88
  1334                           	global	_get_key
  1335                           
  1336                           ; *************** function _get_key *****************
  1337                           ; Defined at:
  1338                           ;		line 394 in file "D:\ABHISHEK JOSHI\PIC\UART\UART T10\UART T10.C"
  1339                           ; Parameters:    Size  Location     Type
  1340                           ;		None
  1341                           ; Auto vars:     Size  Location     Type
  1342                           ;		None
  1343                           ; Return value:  Size  Location     Type
  1344                           ;		None               void
  1345                           ; Registers used:
  1346                           ;		wreg, fsr0l, fsr0h, status,2, status,0, pclath, cstack
  1347                           ; Tracked objects:
  1348                           ;		On entry : 0/0
  1349                           ;		On exit  : 0/0
  1350                           ;		Unchanged: 0/0
  1351                           ; Data sizes:     COMMON   BANK0   BANK1   BANK3   BANK2
  1352                           ;      Locals:         2       0       0       0       0
  1353                           ;      Temp:     2
  1354                           ;      Total:    2
  1355                           ; This function calls:
  1356                           ;		_uart_disp
  1357                           ; This function is called by:
  1358                           ;		_main
  1359                           ; This function uses a non-reentrant model
  1360                           ; 
  1361                           psect	text146
  1362                           	file	"D:\ABHISHEK JOSHI\PIC\UART\UART T10\UART T10.C"
  1363                           	line	394
  1364                           	global	__size_of_get_key
  1365  0021                     	__size_of_get_key	equ	__end_of_get_key-_get_key
  1366                           ;UART T10.C: 393: void get_key()
  1367                           ;UART T10.C: 394: {
  1368                           	
  1369  0429                     _get_key:	
  1370                           	opt stack 4
  1371                           ; Regs used in _get_key: [wreg-fsr0h+status,2+status,0+pclath+cstack]
  1372                           	
  1373  0429                     l30000693:	
  1374  0429  2C2F               	goto	l30000695
  1375                           	
  1376  042A                     l30000694:	
  1377                           	line	396
  1378                           ;UART T10.C: 396: uart_disp();
  1379  042A  120A  118A  244A   	fcall	_uart_disp
              120A  118A         
  1380                           	
  1381  042F                     l30000695:	
  1382                           	line	395
  1383  042F  3001               	movlw	01h
  1384  0430  1283               	bcf	status, 5	;RP0=0, select bank0
  1385  0431  1303               	bcf	status, 6	;RP1=0, select bank0
  1386  0432  064D               	xorwf	(_key_ready),w
  1387  0433  044E               	iorwf	(_key_ready+1),w
  1388  0434  1D03               	skipz
  1389  0435  2C37               	goto	u451
  1390  0436  2C38               	goto	u450
  1391  0437                     u451:
  1392  0437  2C2A               	goto	l30000694
  1393  0438                     u450:
  1394                           	
  1395  0438                     l30000696:	
  1396                           	line	397
  1397                           ;UART T10.C: 397: a=key_code;
  1398  0438  084C               	movf	(_key_code+1),w
  1399  0439  01C4               	clrf	(_a+1)
  1400  043A  07C4               	addwf	(_a+1)
  1401  043B  084B               	movf	(_key_code),w
  1402  043C  01C3               	clrf	(_a)
  1403  043D  07C3               	addwf	(_a)
  1404                           
  1405                           	
  1406  043E                     l30000697:	
  1407                           	line	398
  1408                           ;UART T10.C: 398: key_code=ascii_tab[a];
  1409  043E  0843               	movf	(_a),w
  1410  043F  3E20               	addlw	(_ascii_tab)&0ffh
  1411  0440  0084               	movwf	fsr0
  1412  0441  1383               	bcf	status, 7	;select IRP bank0
  1413  0442  0800               	movf	indf,w
  1414  0443  00F3               	movwf	(??_get_key+0+0)
  1415  0444  01F4               	clrf	(??_get_key+0+0+1)
  1416  0445  0873               	movf	0+(??_get_key+0+0),w
  1417  0446  00CB               	movwf	(_key_code)
  1418  0447  0874               	movf	1+(??_get_key+0+0),w
  1419  0448  00CC               	movwf	(_key_code+1)
  1420                           	
  1421  0449                     l69:	
  1422  0449  0008               	return
  1423                           	opt stack 0
  1424                           GLOBAL	__end_of_get_key
  1425  044A                     	__end_of_get_key:
  1426                           ; =============== function _get_key ends ============
  1427                           
  1428                           psect	text147,local,class=CODE,delta=2
  1429                           global __ptext147
  1430  04FB                     __ptext147:
  1431                           	line	399
  1432                           	signat	_get_key,88
  1433                           	global	_init_uart
  1434                           
  1435                           ; *************** function _init_uart *****************
  1436                           ; Defined at:
  1437                           ;		line 451 in file "D:\ABHISHEK JOSHI\PIC\UART\UART T10\UART T10.C"
  1438                           ; Parameters:    Size  Location     Type
  1439                           ;		None
  1440                           ; Auto vars:     Size  Location     Type
  1441                           ;		None
  1442                           ; Return value:  Size  Location     Type
  1443                           ;		None               void
  1444                           ; Registers used:
  1445                           ;		wreg
  1446                           ; Tracked objects:
  1447                           ;		On entry : 0/0
  1448                           ;		On exit  : 0/0
  1449                           ;		Unchanged: 0/0
  1450                           ; Data sizes:     COMMON   BANK0   BANK1   BANK3   BANK2
  1451                           ;      Locals:         0       0       0       0       0
  1452                           ;      Temp:     0
  1453                           ;      Total:    0
  1454                           ; This function calls:
  1455                           ;		Nothing
  1456                           ; This function is called by:
  1457                           ;		_main
  1458                           ; This function uses a non-reentrant model
  1459                           ; 
  1460                           psect	text147
  1461                           	file	"D:\ABHISHEK JOSHI\PIC\UART\UART T10\UART T10.C"
  1462                           	line	451
  1463                           	global	__size_of_init_uart
  1464  000A                     	__size_of_init_uart	equ	__end_of_init_uart-_init_uart
  1465                           ;UART T10.C: 450: void init_uart()
  1466                           ;UART T10.C: 451: {
  1467                           	
  1468  04FB                     _init_uart:	
  1469                           	opt stack 4
  1470                           ; Regs used in _init_uart: [wreg]
  1471                           	line	452
  1472                           	
  1473  04FB                     l30000680:	
  1474                           ;UART T10.C: 452: TXSTA=0x24;
  1475  04FB  3024               	movlw	(024h)
  1476  04FC  1683               	bsf	status, 5	;RP0=1, select bank1
  1477  04FD  1303               	bcf	status, 6	;RP1=0, select bank1
  1478  04FE  0098               	movwf	(152)^080h	;volatile
  1479                           	line	453
  1480                           ;UART T10.C: 453: SPBRG=25;
  1481  04FF  3019               	movlw	(019h)
  1482  0500  0099               	movwf	(153)^080h	;volatile
  1483                           	
  1484  0501                     l30000681:	
  1485                           	line	454
  1486                           ;UART T10.C: 454: SPEN=1;
  1487  0501  1283               	bcf	status, 5	;RP0=0, select bank0
  1488  0502  1303               	bcf	status, 6	;RP1=0, select bank0
  1489  0503  1798               	bsf	(199/8),(199)&7
  1490                           	
  1491  0504                     l83:	
  1492  0504  0008               	return
  1493                           	opt stack 0
  1494                           GLOBAL	__end_of_init_uart
  1495  0505                     	__end_of_init_uart:
  1496                           ; =============== function _init_uart ends ============
  1497                           
  1498                           psect	text148,local,class=CODE,delta=2
  1499                           global __ptext148
  1500  04A4                     __ptext148:
  1501                           	line	455
  1502                           	signat	_init_uart,88
  1503                           	global	_init
  1504                           
  1505                           ; *************** function _init *****************
  1506                           ; Defined at:
  1507                           ;		line 94 in file "D:\ABHISHEK JOSHI\PIC\UART\UART T10\UART T10.C"
  1508                           ; Parameters:    Size  Location     Type
  1509                           ;		None
  1510                           ; Auto vars:     Size  Location     Type
  1511                           ;		None
  1512                           ; Return value:  Size  Location     Type
  1513                           ;		None               void
  1514                           ; Registers used:
  1515                           ;		wreg, status,2, status,0, pclath, cstack
  1516                           ; Tracked objects:
  1517                           ;		On entry : 0/0
  1518                           ;		On exit  : 0/0
  1519                           ;		Unchanged: 0/0
  1520                           ; Data sizes:     COMMON   BANK0   BANK1   BANK3   BANK2
  1521                           ;      Locals:         0       0       0       0       0
  1522                           ;      Temp:     0
  1523                           ;      Total:    0
  1524                           ; This function calls:
  1525                           ;		_init_keypad
  1526                           ;		_init_timer
  1527                           ;		_init_delay_1sec
  1528                           ; This function is called by:
  1529                           ;		_main
  1530                           ; This function uses a non-reentrant model
  1531                           ; 
  1532                           psect	text148
  1533                           	file	"D:\ABHISHEK JOSHI\PIC\UART\UART T10\UART T10.C"
  1534                           	line	94
  1535                           	global	__size_of_init
  1536  0010                     	__size_of_init	equ	__end_of_init-_init
  1537                           ;UART T10.C: 93: void init()
  1538                           ;UART T10.C: 94: {
  1539                           	
  1540  04A4                     _init:	
  1541                           	opt stack 4
  1542                           ; Regs used in _init: [wreg+status,2+status,0+pclath+cstack]
  1543                           	line	96
  1544                           	
  1545  04A4                     l30000636:	
  1546                           ;UART T10.C: 96: init_keypad();
  1547  04A4  120A  118A  23E3   	fcall	_init_keypad
              120A  118A         
  1548                           	line	97
  1549                           ;UART T10.C: 97: init_timer();
  1550  04A9  120A  118A  24B4   	fcall	_init_timer
              120A  118A         
  1551                           	line	98
  1552                           ;UART T10.C: 98: init_delay_1sec();
  1553  04AE  120A  118A  24E1   	fcall	_init_delay_1sec
              120A  118A         
  1554                           	
  1555  04B3                     l8:	
  1556  04B3  0008               	return
  1557                           	opt stack 0
  1558                           GLOBAL	__end_of_init
  1559  04B4                     	__end_of_init:
  1560                           ; =============== function _init ends ============
  1561                           
  1562                           psect	text149,local,class=CODE,delta=2
  1563                           global __ptext149
  1564  0514                     __ptext149:
  1565                           	line	99
  1566                           	signat	_init,88
  1567                           	global	_process_a
  1568                           
  1569                           ; *************** function _process_a *****************
  1570                           ; Defined at:
  1571                           ;		line 420 in file "D:\ABHISHEK JOSHI\PIC\UART\UART T10\UART T10.C"
  1572                           ; Parameters:    Size  Location     Type
  1573                           ;		None
  1574                           ; Auto vars:     Size  Location     Type
  1575                           ;		None
  1576                           ; Return value:  Size  Location     Type
  1577                           ;		None               void
  1578                           ; Registers used:
  1579                           ;		wreg
  1580                           ; Tracked objects:
  1581                           ;		On entry : 0/0
  1582                           ;		On exit  : 0/0
  1583                           ;		Unchanged: 0/0
  1584                           ; Data sizes:     COMMON   BANK0   BANK1   BANK3   BANK2
  1585                           ;      Locals:         0       0       0       0       0
  1586                           ;      Temp:     0
  1587                           ;      Total:    0
  1588                           ; This function calls:
  1589                           ;		Nothing
  1590                           ; This function is called by:
  1591                           ;		_keyprocess
  1592                           ; This function uses a non-reentrant model
  1593                           ; 
  1594                           psect	text149
  1595                           	file	"D:\ABHISHEK JOSHI\PIC\UART\UART T10\UART T10.C"
  1596                           	line	420
  1597                           	global	__size_of_process_a
  1598  0007                     	__size_of_process_a	equ	__end_of_process_a-_process_a
  1599                           ;UART T10.C: 419: void process_a()
  1600                           ;UART T10.C: 420: {
  1601                           	
  1602  0514                     _process_a:	
  1603                           	opt stack 3
  1604                           ; Regs used in _process_a: [wreg]
  1605                           	line	421
  1606                           	
  1607  0514                     l30000678:	
  1608                           ;UART T10.C: 421: start_sw=1;
  1609  0514  3001               	movlw	low(01h)
  1610  0515  1283               	bcf	status, 5	;RP0=0, select bank0
  1611  0516  1303               	bcf	status, 6	;RP1=0, select bank0
  1612  0517  00D5               	movwf	(_start_sw)
  1613  0518  3000               	movlw	high(01h)
  1614  0519  00D6               	movwf	((_start_sw))+1
  1615                           	
  1616  051A                     l79:	
  1617  051A  0008               	return
  1618                           	opt stack 0
  1619                           GLOBAL	__end_of_process_a
  1620  051B                     	__end_of_process_a:
  1621                           ; =============== function _process_a ends ============
  1622                           
  1623                           psect	text150,local,class=CODE,delta=2
  1624                           global __ptext150
  1625  0481                     __ptext150:
  1626                           	line	422
  1627                           	signat	_process_a,88
  1628                           	global	_key_release
  1629                           
  1630                           ; *************** function _key_release *****************
  1631                           ; Defined at:
  1632                           ;		line 381 in file "D:\ABHISHEK JOSHI\PIC\UART\UART T10\UART T10.C"
  1633                           ; Parameters:    Size  Location     Type
  1634                           ;		None
  1635                           ; Auto vars:     Size  Location     Type
  1636                           ;		None
  1637                           ; Return value:  Size  Location     Type
  1638                           ;		None               void
  1639                           ; Registers used:
  1640                           ;		wreg
  1641                           ; Tracked objects:
  1642                           ;		On entry : 0/0
  1643                           ;		On exit  : 0/0
  1644                           ;		Unchanged: 0/0
  1645                           ; Data sizes:     COMMON   BANK0   BANK1   BANK3   BANK2
  1646                           ;      Locals:         0       0       0       0       0
  1647                           ;      Temp:     0
  1648                           ;      Total:    0
  1649                           ; This function calls:
  1650                           ;		Nothing
  1651                           ; This function is called by:
  1652                           ;		_keyprocess
  1653                           ; This function uses a non-reentrant model
  1654                           ; 
  1655                           psect	text150
  1656                           	file	"D:\ABHISHEK JOSHI\PIC\UART\UART T10\UART T10.C"
  1657                           	line	381
  1658                           	global	__size_of_key_release
  1659  0012                     	__size_of_key_release	equ	__end_of_key_release-_key_release
  1660                           ;UART T10.C: 380: void key_release()
  1661                           ;UART T10.C: 381: {
  1662                           	
  1663  0481                     _key_release:	
  1664                           	opt stack 3
  1665                           ; Regs used in _key_release: [wreg]
  1666                           	
  1667  0481                     l30000675:	
  1668                           	
  1669  0481                     l30000676:	
  1670                           	line	382
  1671  0481  3001               	movlw	01h
  1672  0482  1283               	bcf	status, 5	;RP0=0, select bank0
  1673  0483  1303               	bcf	status, 6	;RP1=0, select bank0
  1674  0484  064F               	xorwf	(_nkp),w
  1675  0485  0450               	iorwf	(_nkp+1),w
  1676  0486  1D03               	skipz
  1677  0487  2C89               	goto	u421
  1678  0488  2C8A               	goto	u420
  1679  0489                     u421:
  1680  0489  2C81               	goto	l30000676
  1681  048A                     u420:
  1682                           	
  1683  048A                     l30000677:	
  1684                           	line	383
  1685                           ;UART T10.C: 383: key_ready=0;
  1686  048A  3000               	movlw	low(0)
  1687  048B  00CD               	movwf	(_key_ready)
  1688  048C  3000               	movlw	high(0)
  1689  048D  00CE               	movwf	((_key_ready))+1
  1690                           	line	384
  1691                           ;UART T10.C: 384: nkp=0;
  1692  048E  3000               	movlw	low(0)
  1693  048F  00CF               	movwf	(_nkp)
  1694  0490  3000               	movlw	high(0)
  1695  0491  00D0               	movwf	((_nkp))+1
  1696                           	
  1697  0492                     l63:	
  1698  0492  0008               	return
  1699                           	opt stack 0
  1700                           GLOBAL	__end_of_key_release
  1701  0493                     	__end_of_key_release:
  1702                           ; =============== function _key_release ends ============
  1703                           
  1704                           psect	text151,local,class=CODE,delta=2
  1705                           global __ptext151
  1706  04C3                     __ptext151:
  1707                           	line	385
  1708                           	signat	_key_release,88
  1709                           	global	_process_c
  1710                           
  1711                           ; *************** function _process_c *****************
  1712                           ; Defined at:
  1713                           ;		line 430 in file "D:\ABHISHEK JOSHI\PIC\UART\UART T10\UART T10.C"
  1714                           ; Parameters:    Size  Location     Type
  1715                           ;		None
  1716                           ; Auto vars:     Size  Location     Type
  1717                           ;		None
  1718                           ; Return value:  Size  Location     Type
  1719                           ;		None               void
  1720                           ; Registers used:
  1721                           ;		wreg
  1722                           ; Tracked objects:
  1723                           ;		On entry : 0/0
  1724                           ;		On exit  : 0/0
  1725                           ;		Unchanged: 0/0
  1726                           ; Data sizes:     COMMON   BANK0   BANK1   BANK3   BANK2
  1727                           ;      Locals:         0       0       0       0       0
  1728                           ;      Temp:     0
  1729                           ;      Total:    0
  1730                           ; This function calls:
  1731                           ;		Nothing
  1732                           ; This function is called by:
  1733                           ;		_keyprocess
  1734                           ; This function uses a non-reentrant model
  1735                           ; 
  1736                           psect	text151
  1737                           	file	"D:\ABHISHEK JOSHI\PIC\UART\UART T10\UART T10.C"
  1738                           	line	430
  1739                           	global	__size_of_process_c
  1740  000F                     	__size_of_process_c	equ	__end_of_process_c-_process_c
  1741                           ;UART T10.C: 429: void process_c()
  1742                           ;UART T10.C: 430: {
  1743                           	
  1744  04C3                     _process_c:	
  1745                           	opt stack 3
  1746                           ; Regs used in _process_c: [wreg]
  1747                           	line	431
  1748                           	
  1749  04C3                     l30000674:	
  1750                           ;UART T10.C: 431: start_sw=0;
  1751  04C3  3000               	movlw	low(0)
  1752  04C4  1283               	bcf	status, 5	;RP0=0, select bank0
  1753  04C5  1303               	bcf	status, 6	;RP1=0, select bank0
  1754  04C6  00D5               	movwf	(_start_sw)
  1755  04C7  3000               	movlw	high(0)
  1756  04C8  00D6               	movwf	((_start_sw))+1
  1757                           	line	432
  1758                           ;UART T10.C: 432: ds1='0';
  1759  04C9  3030               	movlw	(030h)
  1760  04CA  00F5               	movwf	(_ds1)
  1761                           	line	433
  1762                           ;UART T10.C: 433: ds2='0';
  1763  04CB  3030               	movlw	(030h)
  1764  04CC  00F6               	movwf	(_ds2)
  1765                           	line	434
  1766                           ;UART T10.C: 434: ds3='0';
  1767  04CD  3030               	movlw	(030h)
  1768  04CE  00F7               	movwf	(_ds3)
  1769                           	line	435
  1770                           ;UART T10.C: 435: ds4='0';
  1771  04CF  3030               	movlw	(030h)
  1772  04D0  00F8               	movwf	(_ds4)
  1773                           	
  1774  04D1                     l81:	
  1775  04D1  0008               	return
  1776                           	opt stack 0
  1777                           GLOBAL	__end_of_process_c
  1778  04D2                     	__end_of_process_c:
  1779                           ; =============== function _process_c ends ============
  1780                           
  1781                           psect	text152,local,class=CODE,delta=2
  1782                           global __ptext152
  1783  050D                     __ptext152:
  1784                           	line	436
  1785                           	signat	_process_c,88
  1786                           	global	_process_b
  1787                           
  1788                           ; *************** function _process_b *****************
  1789                           ; Defined at:
  1790                           ;		line 425 in file "D:\ABHISHEK JOSHI\PIC\UART\UART T10\UART T10.C"
  1791                           ; Parameters:    Size  Location     Type
  1792                           ;		None
  1793                           ; Auto vars:     Size  Location     Type
  1794                           ;		None
  1795                           ; Return value:  Size  Location     Type
  1796                           ;		None               void
  1797                           ; Registers used:
  1798                           ;		wreg
  1799                           ; Tracked objects:
  1800                           ;		On entry : 0/0
  1801                           ;		On exit  : 0/0
  1802                           ;		Unchanged: 0/0
  1803                           ; Data sizes:     COMMON   BANK0   BANK1   BANK3   BANK2
  1804                           ;      Locals:         0       0       0       0       0
  1805                           ;      Temp:     0
  1806                           ;      Total:    0
  1807                           ; This function calls:
  1808                           ;		Nothing
  1809                           ; This function is called by:
  1810                           ;		_keyprocess
  1811                           ; This function uses a non-reentrant model
  1812                           ; 
  1813                           psect	text152
  1814                           	file	"D:\ABHISHEK JOSHI\PIC\UART\UART T10\UART T10.C"
  1815                           	line	425
  1816                           	global	__size_of_process_b
  1817  0007                     	__size_of_process_b	equ	__end_of_process_b-_process_b
  1818                           ;UART T10.C: 424: void process_b()
  1819                           ;UART T10.C: 425: {
  1820                           	
  1821  050D                     _process_b:	
  1822                           	opt stack 3
  1823                           ; Regs used in _process_b: [wreg]
  1824                           	line	426
  1825                           	
  1826  050D                     l30000679:	
  1827                           ;UART T10.C: 426: start_sw=0;
  1828  050D  3000               	movlw	low(0)
  1829  050E  1283               	bcf	status, 5	;RP0=0, select bank0
  1830  050F  1303               	bcf	status, 6	;RP1=0, select bank0
  1831  0510  00D5               	movwf	(_start_sw)
  1832  0511  3000               	movlw	high(0)
  1833  0512  00D6               	movwf	((_start_sw))+1
  1834                           	
  1835  0513                     l80:	
  1836  0513  0008               	return
  1837                           	opt stack 0
  1838                           GLOBAL	__end_of_process_b
  1839  0514                     	__end_of_process_b:
  1840                           ; =============== function _process_b ends ============
  1841                           
  1842                           psect	text153,local,class=CODE,delta=2
  1843                           global __ptext153
  1844  04E1                     __ptext153:
  1845                           	line	427
  1846                           	signat	_process_b,88
  1847                           	global	_init_delay_1sec
  1848                           
  1849                           ; *************** function _init_delay_1sec *****************
  1850                           ; Defined at:
  1851                           ;		line 134 in file "D:\ABHISHEK JOSHI\PIC\UART\UART T10\UART T10.C"
  1852                           ; Parameters:    Size  Location     Type
  1853                           ;		None
  1854                           ; Auto vars:     Size  Location     Type
  1855                           ;		None
  1856                           ; Return value:  Size  Location     Type
  1857                           ;		None               void
  1858                           ; Registers used:
  1859                           ;		wreg
  1860                           ; Tracked objects:
  1861                           ;		On entry : 0/0
  1862                           ;		On exit  : 0/0
  1863                           ;		Unchanged: 0/0
  1864                           ; Data sizes:     COMMON   BANK0   BANK1   BANK3   BANK2
  1865                           ;      Locals:         0       0       0       0       0
  1866                           ;      Temp:     0
  1867                           ;      Total:    0
  1868                           ; This function calls:
  1869                           ;		Nothing
  1870                           ; This function is called by:
  1871                           ;		_init
  1872                           ; This function uses a non-reentrant model
  1873                           ; 
  1874                           psect	text153
  1875                           	file	"D:\ABHISHEK JOSHI\PIC\UART\UART T10\UART T10.C"
  1876                           	line	134
  1877                           	global	__size_of_init_delay_1sec
  1878  000F                     	__size_of_init_delay_1sec	equ	__end_of_init_delay_1sec-_init_delay_1sec
  1879                           ;UART T10.C: 133: void init_delay_1sec()
  1880                           ;UART T10.C: 134: {
  1881                           	
  1882  04E1                     _init_delay_1sec:	
  1883                           	opt stack 3
  1884                           ; Regs used in _init_delay_1sec: [wreg]
  1885                           	line	135
  1886                           	
  1887  04E1                     l30000682:	
  1888                           ;UART T10.C: 135: cnt_1sl=0x0e8;
  1889  04E1  30E8               	movlw	low(0E8h)
  1890  04E2  1283               	bcf	status, 5	;RP0=0, select bank0
  1891  04E3  1303               	bcf	status, 6	;RP1=0, select bank0
  1892  04E4  00DC               	movwf	(_cnt_1sl)
  1893  04E5  3000               	movlw	high(0E8h)
  1894  04E6  00DD               	movwf	((_cnt_1sl))+1
  1895                           	line	136
  1896                           ;UART T10.C: 136: cnt_1sh=0x04;
  1897  04E7  3004               	movlw	low(04h)
  1898  04E8  00DA               	movwf	(_cnt_1sh)
  1899  04E9  3000               	movlw	high(04h)
  1900  04EA  00DB               	movwf	((_cnt_1sh))+1
  1901                           	line	137
  1902                           ;UART T10.C: 137: s1_over=1;
  1903  04EB  3001               	movlw	low(01h)
  1904  04EC  00E2               	movwf	(_s1_over)
  1905  04ED  3000               	movlw	high(01h)
  1906  04EE  00E3               	movwf	((_s1_over))+1
  1907                           	
  1908  04EF                     l12:	
  1909  04EF  0008               	return
  1910                           	opt stack 0
  1911                           GLOBAL	__end_of_init_delay_1sec
  1912  04F0                     	__end_of_init_delay_1sec:
  1913                           ; =============== function _init_delay_1sec ends ============
  1914                           
  1915                           psect	text154,local,class=CODE,delta=2
  1916                           global __ptext154
  1917  04B4                     __ptext154:
  1918                           	line	138
  1919                           	signat	_init_delay_1sec,88
  1920                           	global	_init_timer
  1921                           
  1922                           ; *************** function _init_timer *****************
  1923                           ; Defined at:
  1924                           ;		line 102 in file "D:\ABHISHEK JOSHI\PIC\UART\UART T10\UART T10.C"
  1925                           ; Parameters:    Size  Location     Type
  1926                           ;		None
  1927                           ; Auto vars:     Size  Location     Type
  1928                           ;		None
  1929                           ; Return value:  Size  Location     Type
  1930                           ;		None               void
  1931                           ; Registers used:
  1932                           ;		wreg
  1933                           ; Tracked objects:
  1934                           ;		On entry : 0/0
  1935                           ;		On exit  : 0/0
  1936                           ;		Unchanged: 0/0
  1937                           ; Data sizes:     COMMON   BANK0   BANK1   BANK3   BANK2
  1938                           ;      Locals:         0       0       0       0       0
  1939                           ;      Temp:     0
  1940                           ;      Total:    0
  1941                           ; This function calls:
  1942                           ;		Nothing
  1943                           ; This function is called by:
  1944                           ;		_init
  1945                           ; This function uses a non-reentrant model
  1946                           ; 
  1947                           psect	text154
  1948                           	file	"D:\ABHISHEK JOSHI\PIC\UART\UART T10\UART T10.C"
  1949                           	line	102
  1950                           	global	__size_of_init_timer
  1951  000F                     	__size_of_init_timer	equ	__end_of_init_timer-_init_timer
  1952                           ;UART T10.C: 101: void init_timer()
  1953                           ;UART T10.C: 102: {
  1954                           	
  1955  04B4                     _init_timer:	
  1956                           	opt stack 3
  1957                           ; Regs used in _init_timer: [wreg]
  1958                           	line	103
  1959                           	
  1960  04B4                     l30000683:	
  1961                           ;UART T10.C: 103: TMR1H=0xFC;
  1962  04B4  30FC               	movlw	(0FCh)
  1963  04B5  1283               	bcf	status, 5	;RP0=0, select bank0
  1964  04B6  1303               	bcf	status, 6	;RP1=0, select bank0
  1965  04B7  008F               	movwf	(15)	;volatile
  1966                           	line	104
  1967                           ;UART T10.C: 104: TMR1L=0x18;
  1968  04B8  3018               	movlw	(018h)
  1969  04B9  008E               	movwf	(14)	;volatile
  1970                           	line	105
  1971                           ;UART T10.C: 105: T1CON=0x01;
  1972  04BA  3001               	movlw	(01h)
  1973  04BB  0090               	movwf	(16)	;volatile
  1974                           	
  1975  04BC                     l30000684:	
  1976                           	line	106
  1977                           ;UART T10.C: 106: TMR1IE=1;
  1978  04BC  1683               	bsf	status, 5	;RP0=1, select bank1
  1979  04BD  1303               	bcf	status, 6	;RP1=0, select bank1
  1980  04BE  140C               	bsf	(1120/8)^080h,(1120)&7
  1981                           	
  1982  04BF                     l30000685:	
  1983                           	line	107
  1984                           ;UART T10.C: 107: TMR1IF=0;
  1985  04BF  1283               	bcf	status, 5	;RP0=0, select bank0
  1986  04C0  1303               	bcf	status, 6	;RP1=0, select bank0
  1987  04C1  100C               	bcf	(96/8),(96)&7
  1988                           	
  1989  04C2                     l9:	
  1990  04C2  0008               	return
  1991                           	opt stack 0
  1992                           GLOBAL	__end_of_init_timer
  1993  04C3                     	__end_of_init_timer:
  1994                           ; =============== function _init_timer ends ============
  1995                           
  1996                           psect	text155,local,class=CODE,delta=2
  1997                           global __ptext155
  1998  03E3                     __ptext155:
  1999                           	line	108
  2000                           	signat	_init_timer,88
  2001                           	global	_init_keypad
  2002                           
  2003                           ; *************** function _init_keypad *****************
  2004                           ; Defined at:
  2005                           ;		line 119 in file "D:\ABHISHEK JOSHI\PIC\UART\UART T10\UART T10.C"
  2006                           ; Parameters:    Size  Location     Type
  2007                           ;		None
  2008                           ; Auto vars:     Size  Location     Type
  2009                           ;		None
  2010                           ; Return value:  Size  Location     Type
  2011                           ;		None               void
  2012                           ; Registers used:
  2013                           ;		wreg
  2014                           ; Tracked objects:
  2015                           ;		On entry : 0/0
  2016                           ;		On exit  : 0/0
  2017                           ;		Unchanged: 0/0
  2018                           ; Data sizes:     COMMON   BANK0   BANK1   BANK3   BANK2
  2019                           ;      Locals:         0       0       0       0       0
  2020                           ;      Temp:     0
  2021                           ;      Total:    0
  2022                           ; This function calls:
  2023                           ;		Nothing
  2024                           ; This function is called by:
  2025                           ;		_init
  2026                           ; This function uses a non-reentrant model
  2027                           ; 
  2028                           psect	text155
  2029                           	file	"D:\ABHISHEK JOSHI\PIC\UART\UART T10\UART T10.C"
  2030                           	line	119
  2031                           	global	__size_of_init_keypad
  2032  0023                     	__size_of_init_keypad	equ	__end_of_init_keypad-_init_keypad
  2033                           ;UART T10.C: 118: void init_keypad()
  2034                           ;UART T10.C: 119: {
  2035                           	
  2036  03E3                     _init_keypad:	
  2037                           	opt stack 3
  2038                           ; Regs used in _init_keypad: [wreg]
  2039                           	line	120
  2040                           	
  2041  03E3                     l30000634:	
  2042                           ;UART T10.C: 120: RA2=1;
  2043  03E3  1283               	bcf	status, 5	;RP0=0, select bank0
  2044  03E4  1303               	bcf	status, 6	;RP1=0, select bank0
  2045  03E5  1505               	bsf	(42/8),(42)&7
  2046                           	line	121
  2047                           ;UART T10.C: 121: RA3=1;
  2048  03E6  1585               	bsf	(43/8),(43)&7
  2049                           	line	122
  2050                           ;UART T10.C: 122: RA4=1;
  2051  03E7  1605               	bsf	(44/8),(44)&7
  2052                           	line	123
  2053                           ;UART T10.C: 123: RA5=1;
  2054  03E8  1685               	bsf	(45/8),(45)&7
  2055                           	
  2056  03E9                     l30000635:	
  2057                           	line	124
  2058                           ;UART T10.C: 124: start_sw=0;
  2059  03E9  3000               	movlw	low(0)
  2060  03EA  00D5               	movwf	(_start_sw)
  2061  03EB  3000               	movlw	high(0)
  2062  03EC  00D6               	movwf	((_start_sw))+1
  2063                           	line	125
  2064                           ;UART T10.C: 125: scan_no=0;
  2065  03ED  3000               	movlw	low(0)
  2066  03EE  00D1               	movwf	(_scan_no)
  2067  03EF  3000               	movlw	high(0)
  2068  03F0  00D2               	movwf	((_scan_no))+1
  2069                           	line	126
  2070                           ;UART T10.C: 126: dcount=33;
  2071  03F1  3021               	movlw	low(021h)
  2072  03F2  00DE               	movwf	(_dcount)
  2073  03F3  3000               	movlw	high(021h)
  2074  03F4  00DF               	movwf	((_dcount))+1
  2075                           	line	127
  2076                           ;UART T10.C: 127: krcount=32;
  2077  03F5  3020               	movlw	low(020h)
  2078  03F6  00E0               	movwf	(_krcount)
  2079  03F7  3000               	movlw	high(020h)
  2080  03F8  00E1               	movwf	((_krcount))+1
  2081                           	line	128
  2082                           ;UART T10.C: 128: key_ready=0;
  2083  03F9  3000               	movlw	low(0)
  2084  03FA  00CD               	movwf	(_key_ready)
  2085  03FB  3000               	movlw	high(0)
  2086  03FC  00CE               	movwf	((_key_ready))+1
  2087                           	line	129
  2088                           ;UART T10.C: 129: nkp=0;
  2089  03FD  3000               	movlw	low(0)
  2090  03FE  00CF               	movwf	(_nkp)
  2091  03FF  3000               	movlw	high(0)
  2092  0400  00D0               	movwf	((_nkp))+1
  2093                           	line	130
  2094                           ;UART T10.C: 130: start_buzzer=0;
  2095  0401  3000               	movlw	low(0)
  2096  0402  00D3               	movwf	(_start_buzzer)
  2097  0403  3000               	movlw	high(0)
  2098  0404  00D4               	movwf	((_start_buzzer))+1
  2099                           	
  2100  0405                     l11:	
  2101  0405  0008               	return
  2102                           	opt stack 0
  2103                           GLOBAL	__end_of_init_keypad
  2104  0406                     	__end_of_init_keypad:
  2105                           ; =============== function _init_keypad ends ============
  2106                           
  2107                           psect	text156,local,class=CODE,delta=2
  2108                           global __ptext156
  2109  044A                     __ptext156:
  2110                           	line	131
  2111                           	signat	_init_keypad,88
  2112                           	global	_uart_disp
  2113                           
  2114                           ; *************** function _uart_disp *****************
  2115                           ; Defined at:
  2116                           ;		line 440 in file "D:\ABHISHEK JOSHI\PIC\UART\UART T10\UART T10.C"
  2117                           ; Parameters:    Size  Location     Type
  2118                           ;		None
  2119                           ; Auto vars:     Size  Location     Type
  2120                           ;		None
  2121                           ; Return value:  Size  Location     Type
  2122                           ;		None               void
  2123                           ; Registers used:
  2124                           ;		wreg, status,2, status,0, pclath, cstack
  2125                           ; Tracked objects:
  2126                           ;		On entry : 0/0
  2127                           ;		On exit  : 0/0
  2128                           ;		Unchanged: 0/0
  2129                           ; Data sizes:     COMMON   BANK0   BANK1   BANK3   BANK2
  2130                           ;      Locals:         0       0       0       0       0
  2131                           ;      Temp:     0
  2132                           ;      Total:    0
  2133                           ; This function calls:
  2134                           ;		_home_screen
  2135                           ;		_tx
  2136                           ; This function is called by:
  2137                           ;		_get_key
  2138                           ; This function uses a non-reentrant model
  2139                           ; 
  2140                           psect	text156
  2141                           	file	"D:\ABHISHEK JOSHI\PIC\UART\UART T10\UART T10.C"
  2142                           	line	440
  2143                           	global	__size_of_uart_disp
  2144  001E                     	__size_of_uart_disp	equ	__end_of_uart_disp-_uart_disp
  2145                           ;UART T10.C: 439: void uart_disp()
  2146                           ;UART T10.C: 440: {
  2147                           	
  2148  044A                     _uart_disp:	
  2149                           	opt stack 3
  2150                           ; Regs used in _uart_disp: [wreg+status,2+status,0+pclath+cstack]
  2151                           	line	442
  2152                           	
  2153  044A                     l30000692:	
  2154                           ;UART T10.C: 442: home_screen();
  2155  044A  120A  118A  2389   	fcall	_home_screen
              120A  118A         
  2156                           	line	443
  2157                           ;UART T10.C: 443: tx(ds4);
  2158  044F  0878               	movf	(_ds4),w
  2159  0450  120A  118A  24F0   	fcall	_tx
              120A  118A         
  2160                           	line	444
  2161                           ;UART T10.C: 444: tx(ds3);
  2162  0455  0877               	movf	(_ds3),w
  2163  0456  120A  118A  24F0   	fcall	_tx
              120A  118A         
  2164                           	line	445
  2165                           ;UART T10.C: 445: tx(ds2);
  2166  045B  0876               	movf	(_ds2),w
  2167  045C  120A  118A  24F0   	fcall	_tx
              120A  118A         
  2168                           	line	446
  2169                           ;UART T10.C: 446: tx(ds1);
  2170  0461  0875               	movf	(_ds1),w
  2171  0462  120A  118A  24F0   	fcall	_tx
              120A  118A         
  2172                           	
  2173  0467                     l82:	
  2174  0467  0008               	return
  2175                           	opt stack 0
  2176                           GLOBAL	__end_of_uart_disp
  2177  0468                     	__end_of_uart_disp:
  2178                           ; =============== function _uart_disp ends ============
  2179                           
  2180                           psect	text157,local,class=CODE,delta=2
  2181                           global __ptext157
  2182  0389                     __ptext157:
  2183                           	line	448
  2184                           	signat	_uart_disp,88
  2185                           	global	_home_screen
  2186                           
  2187                           ; *************** function _home_screen *****************
  2188                           ; Defined at:
  2189                           ;		line 470 in file "D:\ABHISHEK JOSHI\PIC\UART\UART T10\UART T10.C"
  2190                           ; Parameters:    Size  Location     Type
  2191                           ;		None
  2192                           ; Auto vars:     Size  Location     Type
  2193                           ;		None
  2194                           ; Return value:  Size  Location     Type
  2195                           ;		None               void
  2196                           ; Registers used:
  2197                           ;		wreg, status,2, status,0, pclath, cstack
  2198                           ; Tracked objects:
  2199                           ;		On entry : 0/0
  2200                           ;		On exit  : 0/0
  2201                           ;		Unchanged: 0/0
  2202                           ; Data sizes:     COMMON   BANK0   BANK1   BANK3   BANK2
  2203                           ;      Locals:         0       0       0       0       0
  2204                           ;      Temp:     0
  2205                           ;      Total:    0
  2206                           ; This function calls:
  2207                           ;		_tx
  2208                           ;		_uart_delay
  2209                           ; This function is called by:
  2210                           ;		_uart_disp
  2211                           ; This function uses a non-reentrant model
  2212                           ; 
  2213                           psect	text157
  2214                           	file	"D:\ABHISHEK JOSHI\PIC\UART\UART T10\UART T10.C"
  2215                           	line	470
  2216                           	global	__size_of_home_screen
  2217  002E                     	__size_of_home_screen	equ	__end_of_home_screen-_home_screen
  2218                           ;UART T10.C: 469: void home_screen()
  2219                           ;UART T10.C: 470: {
  2220                           	
  2221  0389                     _home_screen:	
  2222                           	opt stack 2
  2223                           ; Regs used in _home_screen: [wreg+status,2+status,0+pclath+cstack]
  2224                           	line	471
  2225                           	
  2226  0389                     l30000691:	
  2227                           ;UART T10.C: 471: tx(0x1b);
  2228  0389  301B               	movlw	(01Bh)
  2229  038A  120A  118A  24F0   	fcall	_tx
              120A  118A         
  2230                           	line	472
  2231                           ;UART T10.C: 472: uart_delay(1);
  2232  038F  3001               	movlw	low(01h)
  2233  0390  00F1               	movwf	(?_uart_delay)
  2234  0391  3000               	movlw	high(01h)
  2235  0392  00F2               	movwf	((?_uart_delay))+1
  2236  0393  120A  118A  22F7   	fcall	_uart_delay
              120A  118A         
  2237                           	line	473
  2238                           ;UART T10.C: 473: tx('[');
  2239  0398  305B               	movlw	(05Bh)
  2240  0399  120A  118A  24F0   	fcall	_tx
              120A  118A         
  2241                           	line	474
  2242                           ;UART T10.C: 474: uart_delay(1);
  2243  039E  3001               	movlw	low(01h)
  2244  039F  00F1               	movwf	(?_uart_delay)
  2245  03A0  3000               	movlw	high(01h)
  2246  03A1  00F2               	movwf	((?_uart_delay))+1
  2247  03A2  120A  118A  22F7   	fcall	_uart_delay
              120A  118A         
  2248                           	line	475
  2249                           ;UART T10.C: 475: tx('H');
  2250  03A7  3048               	movlw	(048h)
  2251  03A8  120A  118A  24F0   	fcall	_tx
              120A  118A         
  2252                           	line	476
  2253                           ;UART T10.C: 476: uart_delay(1);
  2254  03AD  3001               	movlw	low(01h)
  2255  03AE  00F1               	movwf	(?_uart_delay)
  2256  03AF  3000               	movlw	high(01h)
  2257  03B0  00F2               	movwf	((?_uart_delay))+1
  2258  03B1  120A  118A  22F7   	fcall	_uart_delay
              120A  118A         
  2259                           	
  2260  03B6                     l85:	
  2261  03B6  0008               	return
  2262                           	opt stack 0
  2263                           GLOBAL	__end_of_home_screen
  2264  03B7                     	__end_of_home_screen:
  2265                           ; =============== function _home_screen ends ============
  2266                           
  2267                           psect	text158,local,class=CODE,delta=2
  2268                           global __ptext158
  2269  04F0                     __ptext158:
  2270                           	line	477
  2271                           	signat	_home_screen,88
  2272                           	global	_tx
  2273                           
  2274                           ; *************** function _tx *****************
  2275                           ; Defined at:
  2276                           ;		line 480 in file "D:\ABHISHEK JOSHI\PIC\UART\UART T10\UART T10.C"
  2277                           ; Parameters:    Size  Location     Type
  2278                           ;  tx_data         1    wreg     unsigned char 
  2279                           ; Auto vars:     Size  Location     Type
  2280                           ;  tx_data         1    0[COMMON] unsigned char 
  2281                           ; Return value:  Size  Location     Type
  2282                           ;		None               void
  2283                           ; Registers used:
  2284                           ;		wreg
  2285                           ; Tracked objects:
  2286                           ;		On entry : 0/0
  2287                           ;		On exit  : 0/0
  2288                           ;		Unchanged: 0/0
  2289                           ; Data sizes:     COMMON   BANK0   BANK1   BANK3   BANK2
  2290                           ;      Locals:         1       0       0       0       0
  2291                           ;      Temp:     0
  2292                           ;      Total:    1
  2293                           ; This function calls:
  2294                           ;		Nothing
  2295                           ; This function is called by:
  2296                           ;		_uart_disp
  2297                           ;		_home_screen
  2298                           ; This function uses a non-reentrant model
  2299                           ; 
  2300                           psect	text158
  2301                           	file	"D:\ABHISHEK JOSHI\PIC\UART\UART T10\UART T10.C"
  2302                           	line	480
  2303                           	global	__size_of_tx
  2304  000B                     	__size_of_tx	equ	__end_of_tx-_tx
  2305                           ;UART T10.C: 479: void tx(unsigned char tx_data)
  2306                           ;UART T10.C: 480: {
  2307                           	
  2308  04F0                     _tx:	
  2309                           	opt stack 1
  2310                           ; Regs used in _tx: [wreg]
  2311                           ;tx@tx_data stored from wreg
  2312  04F0  00F0               	movwf	(tx@tx_data)
  2313                           	
  2314  04F1                     l30000664:	
  2315                           	
  2316  04F1                     l87:	
  2317                           	line	481
  2318  04F1  1283               	bcf	status, 5	;RP0=0, select bank0
  2319  04F2  1303               	bcf	status, 6	;RP1=0, select bank0
  2320  04F3  1E0C               	btfss	(100/8),(100)&7
  2321  04F4  2CF6               	goto	u411
  2322  04F5  2CF7               	goto	u410
  2323  04F6                     u411:
  2324  04F6  2CF1               	goto	l87
  2325  04F7                     u410:
  2326                           	
  2327  04F7                     l30000665:	
  2328                           	line	482
  2329                           ;UART T10.C: 482: TXREG=tx_data;
  2330  04F7  0870               	movf	(tx@tx_data),w
  2331  04F8  0099               	movwf	(25)	;volatile
  2332                           	
  2333  04F9                     l30000666:	
  2334                           	line	483
  2335                           ;UART T10.C: 483: TXIF=0;
  2336  04F9  120C               	bcf	(100/8),(100)&7
  2337                           	
  2338  04FA                     l86:	
  2339  04FA  0008               	return
  2340                           	opt stack 0
  2341                           GLOBAL	__end_of_tx
  2342  04FB                     	__end_of_tx:
  2343                           ; =============== function _tx ends ============
  2344                           
  2345                           psect	text159,local,class=CODE,delta=2
  2346                           global __ptext159
  2347  02F7                     __ptext159:
  2348                           	line	484
  2349                           	signat	_tx,4216
  2350                           	global	_uart_delay
  2351                           
  2352                           ; *************** function _uart_delay *****************
  2353                           ; Defined at:
  2354                           ;		line 487 in file "D:\ABHISHEK JOSHI\PIC\UART\UART T10\UART T10.C"
  2355                           ; Parameters:    Size  Location     Type
  2356                           ;  del             2    1[COMMON] unsigned int 
  2357                           ; Auto vars:     Size  Location     Type
  2358                           ;  j               2    2[BANK0 ] int 
  2359                           ;  i               2    0[BANK0 ] int 
  2360                           ; Return value:  Size  Location     Type
  2361                           ;		None               void
  2362                           ; Registers used:
  2363                           ;		wreg
  2364                           ; Tracked objects:
  2365                           ;		On entry : 0/0
  2366                           ;		On exit  : 0/0
  2367                           ;		Unchanged: 0/0
  2368                           ; Data sizes:     COMMON   BANK0   BANK1   BANK3   BANK2
  2369                           ;      Locals:         3       4       0       0       0
  2370                           ;      Temp:     1
  2371                           ;      Total:    7
  2372                           ; This function calls:
  2373                           ;		Nothing
  2374                           ; This function is called by:
  2375                           ;		_home_screen
  2376                           ; This function uses a non-reentrant model
  2377                           ; 
  2378                           psect	text159
  2379                           	file	"D:\ABHISHEK JOSHI\PIC\UART\UART T10\UART T10.C"
  2380                           	line	487
  2381                           	global	__size_of_uart_delay
  2382  0033                     	__size_of_uart_delay	equ	__end_of_uart_delay-_uart_delay
  2383                           ;UART T10.C: 486: void uart_delay(unsigned int del)
  2384                           ;UART T10.C: 487: {
  2385                           	
  2386  02F7                     _uart_delay:	
  2387                           	opt stack 1
  2388                           ; Regs used in _uart_delay: [wreg]
  2389                           	line	489
  2390                           	
  2391  02F7                     l30000686:	
  2392                           ;UART T10.C: 488: int j,i;
  2393                           ;UART T10.C: 489: for(i=0;i<=del;i++)
  2394  02F7  3000               	movlw	low(0)
  2395  02F8  1283               	bcf	status, 5	;RP0=0, select bank0
  2396  02F9  1303               	bcf	status, 6	;RP1=0, select bank0
  2397  02FA  00E4               	movwf	(uart_delay@i)
  2398  02FB  3000               	movlw	high(0)
  2399  02FC  00E5               	movwf	((uart_delay@i))+1
  2400  02FD  2B1F               	goto	l94
  2401                           	
  2402  02FE                     l30000687:	
  2403                           	line	490
  2404                           ;UART T10.C: 490: for(j=0;j<=120;j++);
  2405  02FE  3000               	movlw	low(0)
  2406  02FF  00E6               	movwf	(uart_delay@j)
  2407  0300  3000               	movlw	high(0)
  2408  0301  00E7               	movwf	((uart_delay@j))+1
  2409                           	
  2410  0302                     l30000689:	
  2411  0302  3001               	movlw	low(01h)
  2412  0303  1283               	bcf	status, 5	;RP0=0, select bank0
  2413  0304  1303               	bcf	status, 6	;RP1=0, select bank0
  2414  0305  07E6               	addwf	(uart_delay@j),f
  2415  0306  1803               	skipnc
  2416  0307  0AE7               	incf	(uart_delay@j+1),f
  2417  0308  3000               	movlw	high(01h)
  2418  0309  07E7               	addwf	(uart_delay@j+1),f
  2419  030A  0867               	movf	(uart_delay@j+1),w
  2420  030B  3A80               	xorlw	80h
  2421  030C  00F0               	movwf	(??_uart_delay+0+0)
  2422  030D  3080               	movlw	(high(079h))^80h
  2423  030E  0270               	subwf	(??_uart_delay+0+0),w
  2424  030F  1D03               	skipz
  2425  0310  2B13               	goto	u435
  2426  0311  3079               	movlw	low(079h)
  2427  0312  0266               	subwf	(uart_delay@j),w
  2428  0313                     u435:
  2429                           
  2430  0313  1C03               	skipc
  2431  0314  2B16               	goto	u431
  2432  0315  2B17               	goto	u430
  2433  0316                     u431:
  2434  0316  2B02               	goto	l30000689
  2435  0317                     u430:
  2436                           	
  2437  0317                     l30000690:	
  2438                           	line	489
  2439  0317  3001               	movlw	low(01h)
  2440  0318  1283               	bcf	status, 5	;RP0=0, select bank0
  2441  0319  1303               	bcf	status, 6	;RP1=0, select bank0
  2442  031A  07E4               	addwf	(uart_delay@i),f
  2443  031B  1803               	skipnc
  2444  031C  0AE5               	incf	(uart_delay@i+1),f
  2445  031D  3000               	movlw	high(01h)
  2446  031E  07E5               	addwf	(uart_delay@i+1),f
  2447                           	
  2448  031F                     l94:	
  2449  031F  0865               	movf	(uart_delay@i+1),w
  2450  0320  0272               	subwf	(uart_delay@del+1),w
  2451  0321  1D03               	skipz
  2452  0322  2B25               	goto	u445
  2453  0323  0864               	movf	(uart_delay@i),w
  2454  0324  0271               	subwf	(uart_delay@del),w
  2455  0325                     u445:
  2456  0325  1803               	skipnc
  2457  0326  2B28               	goto	u441
  2458  0327  2B29               	goto	u440
  2459  0328                     u441:
  2460  0328  2AFE               	goto	l30000687
  2461  0329                     u440:
  2462                           	
  2463  0329                     l90:	
  2464  0329  0008               	return
  2465                           	opt stack 0
  2466                           GLOBAL	__end_of_uart_delay
  2467  032A                     	__end_of_uart_delay:
  2468                           ; =============== function _uart_delay ends ============
  2469                           
  2470                           psect	text160,local,class=CODE,delta=2
  2471                           global __ptext160
  2472  032A                     __ptext160:
  2473                           	line	492
  2474                           	signat	_uart_delay,4216
  2475                           	global	_isr_t0
  2476                           
  2477                           ; *************** function _isr_t0 *****************
  2478                           ; Defined at:
  2479                           ;		line 55 in file "D:\ABHISHEK JOSHI\PIC\UART\UART T10\UART T10.C"
  2480                           ; Parameters:    Size  Location     Type
  2481                           ;		None
  2482                           ; Auto vars:     Size  Location     Type
  2483                           ;		None
  2484                           ; Return value:  Size  Location     Type
  2485                           ;		None               void
  2486                           ; Registers used:
  2487                           ;		wreg, fsr0l, fsr0h, status,2, status,0, pclath, cstack
  2488                           ; Tracked objects:
  2489                           ;		On entry : 0/0
  2490                           ;		On exit  : 0/0
  2491                           ;		Unchanged: 0/0
  2492                           ; Data sizes:     COMMON   BANK0   BANK1   BANK3   BANK2
  2493                           ;      Locals:         0       0       4       0       0
  2494                           ;      Temp:     4
  2495                           ;      Total:    4
  2496                           ; This function calls:
  2497                           ;		i1_init_timer
  2498                           ;		_delay_1sec
  2499                           ;		_scanner
  2500                           ;		_incrementd
  2501                           ; This function is called by:
  2502                           ;		Interrupt level 1
  2503                           ; This function uses a non-reentrant model
  2504                           ; 
  2505                           psect	text160
  2506                           	file	"D:\ABHISHEK JOSHI\PIC\UART\UART T10\UART T10.C"
  2507                           	line	55
  2508                           	global	__size_of_isr_t0
  2509  0030                     	__size_of_isr_t0	equ	__end_of_isr_t0-_isr_t0
  2510                           ;pic168xa.h: 19: volatile unsigned char INDF @ 0x00;
  2511                           ;pic168xa.h: 20: volatile unsigned char TMR0 @ 0x01;
  2512                           ;pic168xa.h: 21: volatile unsigned char PCL @ 0x02;
  2513                           ;pic168xa.h: 22: volatile unsigned char STATUS @ 0x03;
  2514                           ;pic168xa.h: 23: unsigned char FSR @ 0x04;
  2515                           ;pic168xa.h: 24: volatile unsigned char PORTA @ 0x05;
  2516                           ;pic168xa.h: 25: volatile unsigned char PORTB @ 0x06;
  2517                           ;pic168xa.h: 26: volatile unsigned char PORTC @ 0x07;
  2518                           ;pic168xa.h: 31: unsigned char PCLATH @ 0x0A;
  2519                           ;pic168xa.h: 32: volatile unsigned char INTCON @ 0x0B;
  2520                           	
  2521  032A                     _isr_t0:	
  2522                           	opt stack 4
  2523                           ; Regs used in _isr_t0: [wreg-fsr0h+status,2+status,0+pclath+cstack]
  2524                           psect	intentry,class=CODE,delta=2
  2525                           global __pintentry
  2526  0004                     __pintentry:
  2527                           global interrupt_function
  2528  0004                     interrupt_function:
  2529                           	global saved_w
  2530  007F                     	saved_w	set	btemp+1
  2531  0004  00FF               	movwf	saved_w
  2532  0005  0803               	movf	status,w
  2533  0006  1683               	bsf	status, 5	;RP0=1, select bank1
  2534  0007  1303               	bcf	status, 6	;RP1=0, select bank1
  2535  0008  00B9               	movwf	(??_isr_t0+0)^080h
  2536  0009  0804               	movf	fsr0,w
  2537  000A  00BA               	movwf	(??_isr_t0+1)^080h
  2538  000B  080A               	movf	pclath,w
  2539  000C  00BB               	movwf	(??_isr_t0+2)^080h
  2540  000D  087E               	movf	btemp+0,w
  2541  000E  00BC               	movwf	(??_isr_t0+3)^080h
  2542  000F  120A  118A  2B2A   	ljmp	_isr_t0
  2543                           psect	text160
  2544                           	line	56
  2545                           	
  2546  032A                     i1l30000709:	
  2547                           ;UART T10.C: 56: init_timer();
  2548  032A  120A  118A  24D2   	fcall	i1_init_timer
              120A  118A         
  2549                           	line	57
  2550                           ;UART T10.C: 57: delay_1sec();
  2551  032F  120A  118A  22C4   	fcall	_delay_1sec
              120A  118A         
  2552                           	
  2553  0334                     i1l30000710:	
  2554                           	line	59
  2555                           ;UART T10.C: 59: scanner();
  2556  0334  120A  118A  2015   	fcall	_scanner
              120A  118A         
  2557                           	
  2558  0339                     i1l30000711:	
  2559                           	line	61
  2560                           ;UART T10.C: 61: if(s1_over==1)
  2561  0339  3001               	movlw	01h
  2562  033A  1283               	bcf	status, 5	;RP0=0, select bank0
  2563  033B  1303               	bcf	status, 6	;RP1=0, select bank0
  2564  033C  0662               	xorwf	(_s1_over),w
  2565  033D  0463               	iorwf	(_s1_over+1),w
  2566  033E  1D03               	skipz
  2567  033F  2B41               	goto	u46_21
  2568  0340  2B42               	goto	u46_20
  2569  0341                     u46_21:
  2570  0341  2B4D               	goto	i1l2
  2571  0342                     u46_20:
  2572                           	
  2573  0342                     i1l30000712:	
  2574                           	line	63
  2575                           ;UART T10.C: 62: {
  2576                           ;UART T10.C: 63: incrementd();
  2577  0342  120A  118A  2252   	fcall	_incrementd
              120A  118A         
  2578                           	
  2579  0347                     i1l30000713:	
  2580                           	line	64
  2581                           ;UART T10.C: 64: s1_over=0;
  2582  0347  3000               	movlw	low(0)
  2583  0348  1283               	bcf	status, 5	;RP0=0, select bank0
  2584  0349  1303               	bcf	status, 6	;RP1=0, select bank0
  2585  034A  00E2               	movwf	(_s1_over)
  2586  034B  3000               	movlw	high(0)
  2587  034C  00E3               	movwf	((_s1_over))+1
  2588                           	
  2589  034D                     i1l2:	
  2590  034D  1683               	bsf	status, 5	;RP0=1, select bank1
  2591  034E  1303               	bcf	status, 6	;RP1=0, select bank1
  2592  034F  083C               	movf	(??_isr_t0+3)^080h,w
  2593  0350  00FE               	movwf	btemp+0
  2594  0351  083B               	movf	(??_isr_t0+2)^080h,w
  2595  0352  008A               	movwf	pclath
  2596  0353  083A               	movf	(??_isr_t0+1)^080h,w
  2597  0354  0084               	movwf	fsr0
  2598  0355  0839               	movf	(??_isr_t0+0)^080h,w
  2599  0356  0083               	movwf	status
  2600  0357  0EFF               	swapf	saved_w,f
  2601  0358  0E7F               	swapf	saved_w,w
  2602  0359  0009               	retfie
  2603                           	opt stack 0
  2604                           GLOBAL	__end_of_isr_t0
  2605  035A                     	__end_of_isr_t0:
  2606                           ; =============== function _isr_t0 ends ============
  2607                           
  2608                           psect	text161,local,class=CODE,delta=2
  2609                           global __ptext161
  2610  0015                     __ptext161:
  2611                           	line	66
  2612                           	signat	_isr_t0,88
  2613                           	global	_scanner
  2614                           
  2615                           ; *************** function _scanner *****************
  2616                           ; Defined at:
  2617                           ;		line 162 in file "D:\ABHISHEK JOSHI\PIC\UART\UART T10\UART T10.C"
  2618                           ; Parameters:    Size  Location     Type
  2619                           ;		None
  2620                           ; Auto vars:     Size  Location     Type
  2621                           ;		None
  2622                           ; Return value:  Size  Location     Type
  2623                           ;		None               void
  2624                           ; Registers used:
  2625                           ;		wreg, fsr0l, fsr0h, status,2, status,0, pclath, cstack
  2626                           ; Tracked objects:
  2627                           ;		On entry : 0/0
  2628                           ;		On exit  : 0/0
  2629                           ;		Unchanged: 0/0
  2630                           ; Data sizes:     COMMON   BANK0   BANK1   BANK3   BANK2
  2631                           ;      Locals:         0       2       0       0       0
  2632                           ;      Temp:     2
  2633                           ;      Total:    2
  2634                           ; This function calls:
  2635                           ;		_k1
  2636                           ; This function is called by:
  2637                           ;		_isr_t0
  2638                           ; This function uses a non-reentrant model
  2639                           ; 
  2640                           psect	text161
  2641                           	file	"D:\ABHISHEK JOSHI\PIC\UART\UART T10\UART T10.C"
  2642                           	line	162
  2643                           	global	__size_of_scanner
  2644  01CC                     	__size_of_scanner	equ	__end_of_scanner-_scanner
  2645                           ;UART T10.C: 161: void scanner()
  2646                           ;UART T10.C: 162: {
  2647                           	
  2648  0015                     _scanner:	
  2649                           	opt stack 3
  2650                           ; Regs used in _scanner: [wreg-fsr0h+status,2+status,0+pclath+cstack]
  2651                           	
  2652  0015                     i1l30000556:	
  2653  0015  29A6               	goto	i1l30000606
  2654                           	
  2655  0016                     i1l21:	
  2656                           	line	166
  2657                           ;UART T10.C: 166: RA1=0;
  2658  0016  1085               	bcf	(41/8),(41)&7
  2659                           	line	167
  2660                           ;UART T10.C: 167: RC0=1;
  2661  0017  1407               	bsf	(56/8),(56)&7
  2662                           	line	168
  2663                           ;UART T10.C: 168: RC1=1;
  2664  0018  1487               	bsf	(57/8),(57)&7
  2665                           	line	169
  2666                           ;UART T10.C: 169: RC2=1;
  2667  0019  1507               	bsf	(58/8),(58)&7
  2668                           	
  2669  001A                     i1l30000557:	
  2670                           	line	171
  2671                           ;UART T10.C: 171: c=RA2;
  2672  001A  1003               	clrc
  2673  001B  1905               	btfsc	(42/8),(42)&7
  2674  001C  1403               	setc
  2675  001D  3000               	movlw	0
  2676  001E  1803               	skipnc
  2677  001F  3001               	movlw	1
  2678                           
  2679  0020  00E8               	movwf	(??_scanner+0+0)
  2680  0021  01E9               	clrf	(??_scanner+0+0+1)
  2681  0022  0868               	movf	0+(??_scanner+0+0),w
  2682  0023  00C5               	movwf	(_c)
  2683  0024  0869               	movf	1+(??_scanner+0+0),w
  2684  0025  00C6               	movwf	(_c+1)
  2685                           	
  2686  0026                     i1l30000558:	
  2687                           	line	172
  2688                           ;UART T10.C: 172: k1();
  2689  0026  120A  118A  21E1   	fcall	_k1
              120A  118A         
  2690                           	
  2691  002B                     i1l30000559:	
  2692                           	line	173
  2693                           ;UART T10.C: 173: scan_no=1;
  2694  002B  3001               	movlw	low(01h)
  2695  002C  1283               	bcf	status, 5	;RP0=0, select bank0
  2696  002D  1303               	bcf	status, 6	;RP1=0, select bank0
  2697  002E  00D1               	movwf	(_scan_no)
  2698  002F  3000               	movlw	high(01h)
  2699  0030  00D2               	movwf	((_scan_no))+1
  2700  0031  29E0               	goto	i1l18
  2701                           	
  2702  0032                     i1l30000560:	
  2703                           	line	177
  2704                           ;UART T10.C: 177: c=RA3;
  2705  0032  1003               	clrc
  2706  0033  1985               	btfsc	(43/8),(43)&7
  2707  0034  1403               	setc
  2708  0035  3000               	movlw	0
  2709  0036  1803               	skipnc
  2710  0037  3001               	movlw	1
  2711                           
  2712  0038  00E8               	movwf	(??_scanner+0+0)
  2713  0039  01E9               	clrf	(??_scanner+0+0+1)
  2714  003A  0868               	movf	0+(??_scanner+0+0),w
  2715  003B  00C5               	movwf	(_c)
  2716  003C  0869               	movf	1+(??_scanner+0+0),w
  2717  003D  00C6               	movwf	(_c+1)
  2718                           	
  2719  003E                     i1l30000561:	
  2720                           	line	178
  2721                           ;UART T10.C: 178: k1();
  2722  003E  120A  118A  21E1   	fcall	_k1
              120A  118A         
  2723                           	
  2724  0043                     i1l30000562:	
  2725                           	line	179
  2726                           ;UART T10.C: 179: scan_no=2;
  2727  0043  3002               	movlw	low(02h)
  2728  0044  1283               	bcf	status, 5	;RP0=0, select bank0
  2729  0045  1303               	bcf	status, 6	;RP1=0, select bank0
  2730  0046  00D1               	movwf	(_scan_no)
  2731  0047  3000               	movlw	high(02h)
  2732  0048  00D2               	movwf	((_scan_no))+1
  2733  0049  29E0               	goto	i1l18
  2734                           	
  2735  004A                     i1l30000563:	
  2736                           	line	183
  2737                           ;UART T10.C: 183: c=RA4;
  2738  004A  1003               	clrc
  2739  004B  1A05               	btfsc	(44/8),(44)&7
  2740  004C  1403               	setc
  2741  004D  3000               	movlw	0
  2742  004E  1803               	skipnc
  2743  004F  3001               	movlw	1
  2744                           
  2745  0050  00E8               	movwf	(??_scanner+0+0)
  2746  0051  01E9               	clrf	(??_scanner+0+0+1)
  2747  0052  0868               	movf	0+(??_scanner+0+0),w
  2748  0053  00C5               	movwf	(_c)
  2749  0054  0869               	movf	1+(??_scanner+0+0),w
  2750  0055  00C6               	movwf	(_c+1)
  2751                           	
  2752  0056                     i1l30000564:	
  2753                           	line	184
  2754                           ;UART T10.C: 184: k1();
  2755  0056  120A  118A  21E1   	fcall	_k1
              120A  118A         
  2756                           	
  2757  005B                     i1l30000565:	
  2758                           	line	185
  2759                           ;UART T10.C: 185: scan_no=3;
  2760  005B  3003               	movlw	low(03h)
  2761  005C  1283               	bcf	status, 5	;RP0=0, select bank0
  2762  005D  1303               	bcf	status, 6	;RP1=0, select bank0
  2763  005E  00D1               	movwf	(_scan_no)
  2764  005F  3000               	movlw	high(03h)
  2765  0060  00D2               	movwf	((_scan_no))+1
  2766  0061  29E0               	goto	i1l18
  2767                           	
  2768  0062                     i1l30000566:	
  2769                           	line	190
  2770                           ;UART T10.C: 190: c=RA5;
  2771  0062  1003               	clrc
  2772  0063  1A85               	btfsc	(45/8),(45)&7
  2773  0064  1403               	setc
  2774  0065  3000               	movlw	0
  2775  0066  1803               	skipnc
  2776  0067  3001               	movlw	1
  2777                           
  2778  0068  00E8               	movwf	(??_scanner+0+0)
  2779  0069  01E9               	clrf	(??_scanner+0+0+1)
  2780  006A  0868               	movf	0+(??_scanner+0+0),w
  2781  006B  00C5               	movwf	(_c)
  2782  006C  0869               	movf	1+(??_scanner+0+0),w
  2783  006D  00C6               	movwf	(_c+1)
  2784                           	
  2785  006E                     i1l30000567:	
  2786                           	line	191
  2787                           ;UART T10.C: 191: k1();
  2788  006E  120A  118A  21E1   	fcall	_k1
              120A  118A         
  2789                           	
  2790  0073                     i1l30000568:	
  2791                           	line	192
  2792                           ;UART T10.C: 192: scan_no=4;
  2793  0073  3004               	movlw	low(04h)
  2794  0074  1283               	bcf	status, 5	;RP0=0, select bank0
  2795  0075  1303               	bcf	status, 6	;RP1=0, select bank0
  2796  0076  00D1               	movwf	(_scan_no)
  2797  0077  3000               	movlw	high(04h)
  2798  0078  00D2               	movwf	((_scan_no))+1
  2799  0079  29E0               	goto	i1l18
  2800                           	
  2801  007A                     i1l25:	
  2802                           	line	196
  2803                           ;UART T10.C: 196: RA1=1;
  2804  007A  1485               	bsf	(41/8),(41)&7
  2805                           	line	197
  2806                           ;UART T10.C: 197: RC0=0;
  2807  007B  1007               	bcf	(56/8),(56)&7
  2808                           	line	198
  2809                           ;UART T10.C: 198: RC1=1;
  2810  007C  1487               	bsf	(57/8),(57)&7
  2811                           	line	199
  2812                           ;UART T10.C: 199: RC2=1;
  2813  007D  1507               	bsf	(58/8),(58)&7
  2814                           	
  2815  007E                     i1l30000569:	
  2816                           	line	201
  2817                           ;UART T10.C: 201: c=RA2;
  2818  007E  1003               	clrc
  2819  007F  1905               	btfsc	(42/8),(42)&7
  2820  0080  1403               	setc
  2821  0081  3000               	movlw	0
  2822  0082  1803               	skipnc
  2823  0083  3001               	movlw	1
  2824                           
  2825  0084  00E8               	movwf	(??_scanner+0+0)
  2826  0085  01E9               	clrf	(??_scanner+0+0+1)
  2827  0086  0868               	movf	0+(??_scanner+0+0),w
  2828  0087  00C5               	movwf	(_c)
  2829  0088  0869               	movf	1+(??_scanner+0+0),w
  2830  0089  00C6               	movwf	(_c+1)
  2831                           	
  2832  008A                     i1l30000570:	
  2833                           	line	202
  2834                           ;UART T10.C: 202: k1();
  2835  008A  120A  118A  21E1   	fcall	_k1
              120A  118A         
  2836                           	
  2837  008F                     i1l30000571:	
  2838                           	line	203
  2839                           ;UART T10.C: 203: scan_no=5;
  2840  008F  3005               	movlw	low(05h)
  2841  0090  1283               	bcf	status, 5	;RP0=0, select bank0
  2842  0091  1303               	bcf	status, 6	;RP1=0, select bank0
  2843  0092  00D1               	movwf	(_scan_no)
  2844  0093  3000               	movlw	high(05h)
  2845  0094  00D2               	movwf	((_scan_no))+1
  2846  0095  29E0               	goto	i1l18
  2847                           	
  2848  0096                     i1l30000572:	
  2849                           	line	207
  2850                           ;UART T10.C: 207: c=RA3;
  2851  0096  1003               	clrc
  2852  0097  1985               	btfsc	(43/8),(43)&7
  2853  0098  1403               	setc
  2854  0099  3000               	movlw	0
  2855  009A  1803               	skipnc
  2856  009B  3001               	movlw	1
  2857                           
  2858  009C  00E8               	movwf	(??_scanner+0+0)
  2859  009D  01E9               	clrf	(??_scanner+0+0+1)
  2860  009E  0868               	movf	0+(??_scanner+0+0),w
  2861  009F  00C5               	movwf	(_c)
  2862  00A0  0869               	movf	1+(??_scanner+0+0),w
  2863  00A1  00C6               	movwf	(_c+1)
  2864                           	
  2865  00A2                     i1l30000573:	
  2866                           	line	208
  2867                           ;UART T10.C: 208: k1();
  2868  00A2  120A  118A  21E1   	fcall	_k1
              120A  118A         
  2869                           	
  2870  00A7                     i1l30000574:	
  2871                           	line	209
  2872                           ;UART T10.C: 209: scan_no=6;
  2873  00A7  3006               	movlw	low(06h)
  2874  00A8  1283               	bcf	status, 5	;RP0=0, select bank0
  2875  00A9  1303               	bcf	status, 6	;RP1=0, select bank0
  2876  00AA  00D1               	movwf	(_scan_no)
  2877  00AB  3000               	movlw	high(06h)
  2878  00AC  00D2               	movwf	((_scan_no))+1
  2879  00AD  29E0               	goto	i1l18
  2880                           	
  2881  00AE                     i1l30000575:	
  2882                           	line	213
  2883                           ;UART T10.C: 213: c=RA4;
  2884  00AE  1003               	clrc
  2885  00AF  1A05               	btfsc	(44/8),(44)&7
  2886  00B0  1403               	setc
  2887  00B1  3000               	movlw	0
  2888  00B2  1803               	skipnc
  2889  00B3  3001               	movlw	1
  2890                           
  2891  00B4  00E8               	movwf	(??_scanner+0+0)
  2892  00B5  01E9               	clrf	(??_scanner+0+0+1)
  2893  00B6  0868               	movf	0+(??_scanner+0+0),w
  2894  00B7  00C5               	movwf	(_c)
  2895  00B8  0869               	movf	1+(??_scanner+0+0),w
  2896  00B9  00C6               	movwf	(_c+1)
  2897                           	
  2898  00BA                     i1l30000576:	
  2899                           	line	214
  2900                           ;UART T10.C: 214: k1();
  2901  00BA  120A  118A  21E1   	fcall	_k1
              120A  118A         
  2902                           	
  2903  00BF                     i1l30000577:	
  2904                           	line	215
  2905                           ;UART T10.C: 215: scan_no=7;
  2906  00BF  3007               	movlw	low(07h)
  2907  00C0  1283               	bcf	status, 5	;RP0=0, select bank0
  2908  00C1  1303               	bcf	status, 6	;RP1=0, select bank0
  2909  00C2  00D1               	movwf	(_scan_no)
  2910  00C3  3000               	movlw	high(07h)
  2911  00C4  00D2               	movwf	((_scan_no))+1
  2912  00C5  29E0               	goto	i1l18
  2913                           	
  2914  00C6                     i1l30000578:	
  2915                           	line	220
  2916                           ;UART T10.C: 220: c=RA5;
  2917  00C6  1003               	clrc
  2918  00C7  1A85               	btfsc	(45/8),(45)&7
  2919  00C8  1403               	setc
  2920  00C9  3000               	movlw	0
  2921  00CA  1803               	skipnc
  2922  00CB  3001               	movlw	1
  2923                           
  2924  00CC  00E8               	movwf	(??_scanner+0+0)
  2925  00CD  01E9               	clrf	(??_scanner+0+0+1)
  2926  00CE  0868               	movf	0+(??_scanner+0+0),w
  2927  00CF  00C5               	movwf	(_c)
  2928  00D0  0869               	movf	1+(??_scanner+0+0),w
  2929  00D1  00C6               	movwf	(_c+1)
  2930                           	
  2931  00D2                     i1l30000579:	
  2932                           	line	221
  2933                           ;UART T10.C: 221: k1();
  2934  00D2  120A  118A  21E1   	fcall	_k1
              120A  118A         
  2935                           	
  2936  00D7                     i1l30000580:	
  2937                           	line	222
  2938                           ;UART T10.C: 222: scan_no=8;
  2939  00D7  3008               	movlw	low(08h)
  2940  00D8  1283               	bcf	status, 5	;RP0=0, select bank0
  2941  00D9  1303               	bcf	status, 6	;RP1=0, select bank0
  2942  00DA  00D1               	movwf	(_scan_no)
  2943  00DB  3000               	movlw	high(08h)
  2944  00DC  00D2               	movwf	((_scan_no))+1
  2945  00DD  29E0               	goto	i1l18
  2946                           	
  2947  00DE                     i1l29:	
  2948                           	line	226
  2949                           ;UART T10.C: 226: RA1=1;
  2950  00DE  1485               	bsf	(41/8),(41)&7
  2951                           	line	227
  2952                           ;UART T10.C: 227: RC0=1;
  2953  00DF  1407               	bsf	(56/8),(56)&7
  2954                           	line	228
  2955                           ;UART T10.C: 228: RC1=0;
  2956  00E0  1087               	bcf	(57/8),(57)&7
  2957                           	line	229
  2958                           ;UART T10.C: 229: RC2=1;
  2959  00E1  1507               	bsf	(58/8),(58)&7
  2960                           	
  2961  00E2                     i1l30000581:	
  2962                           	line	231
  2963                           ;UART T10.C: 231: c=RA2;
  2964  00E2  1003               	clrc
  2965  00E3  1905               	btfsc	(42/8),(42)&7
  2966  00E4  1403               	setc
  2967  00E5  3000               	movlw	0
  2968  00E6  1803               	skipnc
  2969  00E7  3001               	movlw	1
  2970                           
  2971  00E8  00E8               	movwf	(??_scanner+0+0)
  2972  00E9  01E9               	clrf	(??_scanner+0+0+1)
  2973  00EA  0868               	movf	0+(??_scanner+0+0),w
  2974  00EB  00C5               	movwf	(_c)
  2975  00EC  0869               	movf	1+(??_scanner+0+0),w
  2976  00ED  00C6               	movwf	(_c+1)
  2977                           	
  2978  00EE                     i1l30000582:	
  2979                           	line	232
  2980                           ;UART T10.C: 232: k1();
  2981  00EE  120A  118A  21E1   	fcall	_k1
              120A  118A         
  2982                           	
  2983  00F3                     i1l30000583:	
  2984                           	line	233
  2985                           ;UART T10.C: 233: scan_no=9;
  2986  00F3  3009               	movlw	low(09h)
  2987  00F4  1283               	bcf	status, 5	;RP0=0, select bank0
  2988  00F5  1303               	bcf	status, 6	;RP1=0, select bank0
  2989  00F6  00D1               	movwf	(_scan_no)
  2990  00F7  3000               	movlw	high(09h)
  2991  00F8  00D2               	movwf	((_scan_no))+1
  2992  00F9  29E0               	goto	i1l18
  2993                           	
  2994  00FA                     i1l30000584:	
  2995                           	line	237
  2996                           ;UART T10.C: 237: c=RA3;
  2997  00FA  1003               	clrc
  2998  00FB  1985               	btfsc	(43/8),(43)&7
  2999  00FC  1403               	setc
  3000  00FD  3000               	movlw	0
  3001  00FE  1803               	skipnc
  3002  00FF  3001               	movlw	1
  3003                           
  3004  0100  00E8               	movwf	(??_scanner+0+0)
  3005  0101  01E9               	clrf	(??_scanner+0+0+1)
  3006  0102  0868               	movf	0+(??_scanner+0+0),w
  3007  0103  00C5               	movwf	(_c)
  3008  0104  0869               	movf	1+(??_scanner+0+0),w
  3009  0105  00C6               	movwf	(_c+1)
  3010                           	
  3011  0106                     i1l30000585:	
  3012                           	line	238
  3013                           ;UART T10.C: 238: k1();
  3014  0106  120A  118A  21E1   	fcall	_k1
              120A  118A         
  3015                           	
  3016  010B                     i1l30000586:	
  3017                           	line	239
  3018                           ;UART T10.C: 239: scan_no=10;
  3019  010B  300A               	movlw	low(0Ah)
  3020  010C  1283               	bcf	status, 5	;RP0=0, select bank0
  3021  010D  1303               	bcf	status, 6	;RP1=0, select bank0
  3022  010E  00D1               	movwf	(_scan_no)
  3023  010F  3000               	movlw	high(0Ah)
  3024  0110  00D2               	movwf	((_scan_no))+1
  3025  0111  29E0               	goto	i1l18
  3026                           	
  3027  0112                     i1l30000587:	
  3028                           	line	243
  3029                           ;UART T10.C: 243: c=RA4;
  3030  0112  1003               	clrc
  3031  0113  1A05               	btfsc	(44/8),(44)&7
  3032  0114  1403               	setc
  3033  0115  3000               	movlw	0
  3034  0116  1803               	skipnc
  3035  0117  3001               	movlw	1
  3036                           
  3037  0118  00E8               	movwf	(??_scanner+0+0)
  3038  0119  01E9               	clrf	(??_scanner+0+0+1)
  3039  011A  0868               	movf	0+(??_scanner+0+0),w
  3040  011B  00C5               	movwf	(_c)
  3041  011C  0869               	movf	1+(??_scanner+0+0),w
  3042  011D  00C6               	movwf	(_c+1)
  3043                           	
  3044  011E                     i1l30000588:	
  3045                           	line	244
  3046                           ;UART T10.C: 244: k1();
  3047  011E  120A  118A  21E1   	fcall	_k1
              120A  118A         
  3048                           	
  3049  0123                     i1l30000589:	
  3050                           	line	245
  3051                           ;UART T10.C: 245: scan_no=11;
  3052  0123  300B               	movlw	low(0Bh)
  3053  0124  1283               	bcf	status, 5	;RP0=0, select bank0
  3054  0125  1303               	bcf	status, 6	;RP1=0, select bank0
  3055  0126  00D1               	movwf	(_scan_no)
  3056  0127  3000               	movlw	high(0Bh)
  3057  0128  00D2               	movwf	((_scan_no))+1
  3058  0129  29E0               	goto	i1l18
  3059                           	
  3060  012A                     i1l30000590:	
  3061                           	line	250
  3062                           ;UART T10.C: 250: c=RA5;
  3063  012A  1003               	clrc
  3064  012B  1A85               	btfsc	(45/8),(45)&7
  3065  012C  1403               	setc
  3066  012D  3000               	movlw	0
  3067  012E  1803               	skipnc
  3068  012F  3001               	movlw	1
  3069                           
  3070  0130  00E8               	movwf	(??_scanner+0+0)
  3071  0131  01E9               	clrf	(??_scanner+0+0+1)
  3072  0132  0868               	movf	0+(??_scanner+0+0),w
  3073  0133  00C5               	movwf	(_c)
  3074  0134  0869               	movf	1+(??_scanner+0+0),w
  3075  0135  00C6               	movwf	(_c+1)
  3076                           	
  3077  0136                     i1l30000591:	
  3078                           	line	251
  3079                           ;UART T10.C: 251: k1();
  3080  0136  120A  118A  21E1   	fcall	_k1
              120A  118A         
  3081                           	
  3082  013B                     i1l30000592:	
  3083                           	line	252
  3084                           ;UART T10.C: 252: scan_no=12;
  3085  013B  300C               	movlw	low(0Ch)
  3086  013C  1283               	bcf	status, 5	;RP0=0, select bank0
  3087  013D  1303               	bcf	status, 6	;RP1=0, select bank0
  3088  013E  00D1               	movwf	(_scan_no)
  3089  013F  3000               	movlw	high(0Ch)
  3090  0140  00D2               	movwf	((_scan_no))+1
  3091  0141  29E0               	goto	i1l18
  3092                           	
  3093  0142                     i1l33:	
  3094                           	line	256
  3095                           ;UART T10.C: 256: RA1=1;
  3096  0142  1485               	bsf	(41/8),(41)&7
  3097                           	line	257
  3098                           ;UART T10.C: 257: RC0=1;
  3099  0143  1407               	bsf	(56/8),(56)&7
  3100                           	line	258
  3101                           ;UART T10.C: 258: RC1=1;
  3102  0144  1487               	bsf	(57/8),(57)&7
  3103                           	line	259
  3104                           ;UART T10.C: 259: RC2=0;
  3105  0145  1107               	bcf	(58/8),(58)&7
  3106                           	
  3107  0146                     i1l30000593:	
  3108                           	line	261
  3109                           ;UART T10.C: 261: c=RA2;
  3110  0146  1003               	clrc
  3111  0147  1905               	btfsc	(42/8),(42)&7
  3112  0148  1403               	setc
  3113  0149  3000               	movlw	0
  3114  014A  1803               	skipnc
  3115  014B  3001               	movlw	1
  3116                           
  3117  014C  00E8               	movwf	(??_scanner+0+0)
  3118  014D  01E9               	clrf	(??_scanner+0+0+1)
  3119  014E  0868               	movf	0+(??_scanner+0+0),w
  3120  014F  00C5               	movwf	(_c)
  3121  0150  0869               	movf	1+(??_scanner+0+0),w
  3122  0151  00C6               	movwf	(_c+1)
  3123                           	
  3124  0152                     i1l30000594:	
  3125                           	line	262
  3126                           ;UART T10.C: 262: k1();
  3127  0152  120A  118A  21E1   	fcall	_k1
              120A  118A         
  3128                           	
  3129  0157                     i1l30000595:	
  3130                           	line	263
  3131                           ;UART T10.C: 263: scan_no=13;
  3132  0157  300D               	movlw	low(0Dh)
  3133  0158  1283               	bcf	status, 5	;RP0=0, select bank0
  3134  0159  1303               	bcf	status, 6	;RP1=0, select bank0
  3135  015A  00D1               	movwf	(_scan_no)
  3136  015B  3000               	movlw	high(0Dh)
  3137  015C  00D2               	movwf	((_scan_no))+1
  3138  015D  29E0               	goto	i1l18
  3139                           	
  3140  015E                     i1l30000596:	
  3141                           	line	267
  3142                           ;UART T10.C: 267: c=RA3;
  3143  015E  1003               	clrc
  3144  015F  1985               	btfsc	(43/8),(43)&7
  3145  0160  1403               	setc
  3146  0161  3000               	movlw	0
  3147  0162  1803               	skipnc
  3148  0163  3001               	movlw	1
  3149                           
  3150  0164  00E8               	movwf	(??_scanner+0+0)
  3151  0165  01E9               	clrf	(??_scanner+0+0+1)
  3152  0166  0868               	movf	0+(??_scanner+0+0),w
  3153  0167  00C5               	movwf	(_c)
  3154  0168  0869               	movf	1+(??_scanner+0+0),w
  3155  0169  00C6               	movwf	(_c+1)
  3156                           	
  3157  016A                     i1l30000597:	
  3158                           	line	268
  3159                           ;UART T10.C: 268: k1();
  3160  016A  120A  118A  21E1   	fcall	_k1
              120A  118A         
  3161                           	
  3162  016F                     i1l30000598:	
  3163                           	line	269
  3164                           ;UART T10.C: 269: scan_no=14;
  3165  016F  300E               	movlw	low(0Eh)
  3166  0170  1283               	bcf	status, 5	;RP0=0, select bank0
  3167  0171  1303               	bcf	status, 6	;RP1=0, select bank0
  3168  0172  00D1               	movwf	(_scan_no)
  3169  0173  3000               	movlw	high(0Eh)
  3170  0174  00D2               	movwf	((_scan_no))+1
  3171  0175  29E0               	goto	i1l18
  3172                           	
  3173  0176                     i1l30000599:	
  3174                           	line	273
  3175                           ;UART T10.C: 273: c=RA4;
  3176  0176  1003               	clrc
  3177  0177  1A05               	btfsc	(44/8),(44)&7
  3178  0178  1403               	setc
  3179  0179  3000               	movlw	0
  3180  017A  1803               	skipnc
  3181  017B  3001               	movlw	1
  3182                           
  3183  017C  00E8               	movwf	(??_scanner+0+0)
  3184  017D  01E9               	clrf	(??_scanner+0+0+1)
  3185  017E  0868               	movf	0+(??_scanner+0+0),w
  3186  017F  00C5               	movwf	(_c)
  3187  0180  0869               	movf	1+(??_scanner+0+0),w
  3188  0181  00C6               	movwf	(_c+1)
  3189                           	
  3190  0182                     i1l30000600:	
  3191                           	line	274
  3192                           ;UART T10.C: 274: k1();
  3193  0182  120A  118A  21E1   	fcall	_k1
              120A  118A         
  3194                           	
  3195  0187                     i1l30000601:	
  3196                           	line	275
  3197                           ;UART T10.C: 275: scan_no=15;
  3198  0187  300F               	movlw	low(0Fh)
  3199  0188  1283               	bcf	status, 5	;RP0=0, select bank0
  3200  0189  1303               	bcf	status, 6	;RP1=0, select bank0
  3201  018A  00D1               	movwf	(_scan_no)
  3202  018B  3000               	movlw	high(0Fh)
  3203  018C  00D2               	movwf	((_scan_no))+1
  3204  018D  29E0               	goto	i1l18
  3205                           	
  3206  018E                     i1l30000602:	
  3207                           	line	279
  3208                           ;UART T10.C: 279: c=RA5;
  3209  018E  1003               	clrc
  3210  018F  1A85               	btfsc	(45/8),(45)&7
  3211  0190  1403               	setc
  3212  0191  3000               	movlw	0
  3213  0192  1803               	skipnc
  3214  0193  3001               	movlw	1
  3215                           
  3216  0194  00E8               	movwf	(??_scanner+0+0)
  3217  0195  01E9               	clrf	(??_scanner+0+0+1)
  3218  0196  0868               	movf	0+(??_scanner+0+0),w
  3219  0197  00C5               	movwf	(_c)
  3220  0198  0869               	movf	1+(??_scanner+0+0),w
  3221  0199  00C6               	movwf	(_c+1)
  3222                           	
  3223  019A                     i1l30000603:	
  3224                           	line	280
  3225                           ;UART T10.C: 280: k1();
  3226  019A  120A  118A  21E1   	fcall	_k1
              120A  118A         
  3227                           	
  3228  019F                     i1l30000604:	
  3229                           	line	282
  3230                           ;UART T10.C: 282: scan_no=0;
  3231  019F  3000               	movlw	low(0)
  3232  01A0  1283               	bcf	status, 5	;RP0=0, select bank0
  3233  01A1  1303               	bcf	status, 6	;RP1=0, select bank0
  3234  01A2  00D1               	movwf	(_scan_no)
  3235  01A3  3000               	movlw	high(0)
  3236  01A4  00D2               	movwf	((_scan_no))+1
  3237  01A5  29E0               	goto	i1l18
  3238                           	
  3239  01A6                     i1l30000606:	
  3240                           	line	163
  3241  01A6  29DB               		goto	i1l30025
  3242  01A7                     i1l30026:
  3243  01A7  1283               	bcf	status, 5	;RP0=0, select bank0
  3244  01A8  1303               	bcf	status, 6	;RP1=0, select bank0
  3245  01A9  0851               	movf (_scan_no),w
  3246  01AA  3A00               	xorlw	0^0
  3247  01AB  1903               	skipnz
  3248  01AC  2816               	goto	i1l21
  3249  01AD  3A01               	xorlw	1^0
  3250  01AE  1903               	skipnz
  3251  01AF  2832               	goto	i1l30000560
  3252  01B0  3A03               	xorlw	2^1
  3253  01B1  1903               	skipnz
  3254  01B2  284A               	goto	i1l30000563
  3255  01B3  3A01               	xorlw	3^2
  3256  01B4  1903               	skipnz
  3257  01B5  2862               	goto	i1l30000566
  3258  01B6  3A07               	xorlw	4^3
  3259  01B7  1903               	skipnz
  3260  01B8  287A               	goto	i1l25
  3261  01B9  3A01               	xorlw	5^4
  3262  01BA  1903               	skipnz
  3263  01BB  2896               	goto	i1l30000572
  3264  01BC  3A03               	xorlw	6^5
  3265  01BD  1903               	skipnz
  3266  01BE  28AE               	goto	i1l30000575
  3267  01BF  3A01               	xorlw	7^6
  3268  01C0  1903               	skipnz
  3269  01C1  28C6               	goto	i1l30000578
  3270  01C2  3A0F               	xorlw	8^7
  3271  01C3  1903               	skipnz
  3272  01C4  28DE               	goto	i1l29
  3273  01C5  3A01               	xorlw	9^8
  3274  01C6  1903               	skipnz
  3275  01C7  28FA               	goto	i1l30000584
  3276  01C8  3A03               	xorlw	10^9
  3277  01C9  1903               	skipnz
  3278  01CA  2912               	goto	i1l30000587
  3279  01CB  3A01               	xorlw	11^10
  3280  01CC  1903               	skipnz
  3281  01CD  292A               	goto	i1l30000590
  3282  01CE  3A07               	xorlw	12^11
  3283  01CF  1903               	skipnz
  3284  01D0  2942               	goto	i1l33
  3285  01D1  3A01               	xorlw	13^12
  3286  01D2  1903               	skipnz
  3287  01D3  295E               	goto	i1l30000596
  3288  01D4  3A03               	xorlw	14^13
  3289  01D5  1903               	skipnz
  3290  01D6  2976               	goto	i1l30000599
  3291  01D7  3A01               	xorlw	15^14
  3292  01D8  1903               	skipnz
  3293  01D9  298E               	goto	i1l30000602
  3294  01DA  29E0               	goto	i1l18
  3295                           
  3296  01DB                     i1l30025:
  3297  01DB  0852               	movf (_scan_no+1),w
  3298  01DC  3A00               	xorlw	0^0
  3299  01DD  1903               	skipnz
  3300  01DE  29A7               	goto	i1l30026
  3301  01DF  29E0               	goto	i1l18
  3302                           
  3303                           	
  3304  01E0                     i1l18:	
  3305  01E0  0008               	return
  3306                           	opt stack 0
  3307                           GLOBAL	__end_of_scanner
  3308  01E1                     	__end_of_scanner:
  3309                           ; =============== function _scanner ends ============
  3310                           
  3311                           psect	text162,local,class=CODE,delta=2
  3312                           global __ptext162
  3313  0252                     __ptext162:
  3314                           	line	285
  3315                           	signat	_scanner,88
  3316                           	global	_incrementd
  3317                           
  3318                           ; *************** function _incrementd *****************
  3319                           ; Defined at:
  3320                           ;		line 345 in file "D:\ABHISHEK JOSHI\PIC\UART\UART T10\UART T10.C"
  3321                           ; Parameters:    Size  Location     Type
  3322                           ;		None
  3323                           ; Auto vars:     Size  Location     Type
  3324                           ;		None
  3325                           ; Return value:  Size  Location     Type
  3326                           ;		None               void
  3327                           ; Registers used:
  3328                           ;		wreg, status,2, status,0
  3329                           ; Tracked objects:
  3330                           ;		On entry : 0/0
  3331                           ;		On exit  : 0/0
  3332                           ;		Unchanged: 0/0
  3333                           ; Data sizes:     COMMON   BANK0   BANK1   BANK3   BANK2
  3334                           ;      Locals:         0       0       0       0       0
  3335                           ;      Temp:     0
  3336                           ;      Total:    0
  3337                           ; This function calls:
  3338                           ;		Nothing
  3339                           ; This function is called by:
  3340                           ;		_isr_t0
  3341                           ; This function uses a non-reentrant model
  3342                           ; 
  3343                           psect	text162
  3344                           	file	"D:\ABHISHEK JOSHI\PIC\UART\UART T10\UART T10.C"
  3345                           	line	345
  3346                           	global	__size_of_incrementd
  3347  003D                     	__size_of_incrementd	equ	__end_of_incrementd-_incrementd
  3348                           ;UART T10.C: 344: void incrementd()
  3349                           ;UART T10.C: 345: {
  3350                           	
  3351  0252                     _incrementd:	
  3352                           	opt stack 3
  3353                           ; Regs used in _incrementd: [wreg+status,2+status,0]
  3354                           	line	346
  3355                           	
  3356  0252                     i1l30000612:	
  3357                           ;UART T10.C: 346: if(start_sw==1)
  3358  0252  3001               	movlw	01h
  3359  0253  1283               	bcf	status, 5	;RP0=0, select bank0
  3360  0254  1303               	bcf	status, 6	;RP1=0, select bank0
  3361  0255  0655               	xorwf	(_start_sw),w
  3362  0256  0456               	iorwf	(_start_sw+1),w
  3363  0257  1D03               	skipz
  3364  0258  2A5A               	goto	u30_21
  3365  0259  2A5B               	goto	u30_20
  3366  025A                     u30_21:
  3367  025A  2A8E               	goto	i1l57
  3368  025B                     u30_20:
  3369                           	
  3370  025B                     i1l30000613:	
  3371                           	line	348
  3372                           ;UART T10.C: 347: {
  3373                           ;UART T10.C: 348: ds1=ds1+1;
  3374  025B  0875               	movf	(_ds1),w
  3375  025C  3E01               	addlw	01h
  3376  025D  00F5               	movwf	(_ds1)
  3377                           	
  3378  025E                     i1l30000614:	
  3379                           	line	349
  3380                           ;UART T10.C: 349: if (ds1>'9')
  3381  025E  303A               	movlw	(03Ah)
  3382  025F  0275               	subwf	(_ds1),w
  3383  0260  1C03               	skipc
  3384  0261  2A63               	goto	u31_21
  3385  0262  2A64               	goto	u31_20
  3386  0263                     u31_21:
  3387  0263  2A8E               	goto	i1l57
  3388  0264                     u31_20:
  3389                           	
  3390  0264                     i1l30000615:	
  3391                           	line	351
  3392                           ;UART T10.C: 350: {
  3393                           ;UART T10.C: 351: ds1='0';
  3394  0264  3030               	movlw	(030h)
  3395  0265  00F5               	movwf	(_ds1)
  3396                           	
  3397  0266                     i1l30000616:	
  3398                           	line	352
  3399                           ;UART T10.C: 352: ds2=ds2+1;
  3400  0266  0876               	movf	(_ds2),w
  3401  0267  3E01               	addlw	01h
  3402  0268  00F6               	movwf	(_ds2)
  3403                           	
  3404  0269                     i1l30000617:	
  3405                           	line	354
  3406                           ;UART T10.C: 354: if (ds2>'9')
  3407  0269  303A               	movlw	(03Ah)
  3408  026A  0276               	subwf	(_ds2),w
  3409  026B  1C03               	skipc
  3410  026C  2A6E               	goto	u32_21
  3411  026D  2A6F               	goto	u32_20
  3412  026E                     u32_21:
  3413  026E  2A8E               	goto	i1l57
  3414  026F                     u32_20:
  3415                           	
  3416  026F                     i1l30000618:	
  3417                           	line	356
  3418                           ;UART T10.C: 355: {
  3419                           ;UART T10.C: 356: ds2='0';
  3420  026F  3030               	movlw	(030h)
  3421  0270  00F6               	movwf	(_ds2)
  3422                           	
  3423  0271                     i1l30000619:	
  3424                           	line	357
  3425                           ;UART T10.C: 357: ds3=ds3+1;
  3426  0271  0877               	movf	(_ds3),w
  3427  0272  3E01               	addlw	01h
  3428  0273  00F7               	movwf	(_ds3)
  3429                           	
  3430  0274                     i1l30000620:	
  3431                           	line	359
  3432                           ;UART T10.C: 359: if (ds3>'9')
  3433  0274  303A               	movlw	(03Ah)
  3434  0275  0277               	subwf	(_ds3),w
  3435  0276  1C03               	skipc
  3436  0277  2A79               	goto	u33_21
  3437  0278  2A7A               	goto	u33_20
  3438  0279                     u33_21:
  3439  0279  2A8E               	goto	i1l57
  3440  027A                     u33_20:
  3441                           	
  3442  027A                     i1l30000621:	
  3443                           	line	361
  3444                           ;UART T10.C: 360: {
  3445                           ;UART T10.C: 361: ds3='0';
  3446  027A  3030               	movlw	(030h)
  3447  027B  00F7               	movwf	(_ds3)
  3448                           	
  3449  027C                     i1l30000622:	
  3450                           	line	362
  3451                           ;UART T10.C: 362: ds4=ds4+1;
  3452  027C  0878               	movf	(_ds4),w
  3453  027D  3E01               	addlw	01h
  3454  027E  00F8               	movwf	(_ds4)
  3455                           	
  3456  027F                     i1l30000623:	
  3457                           	line	364
  3458                           ;UART T10.C: 364: if(ds4>'9')
  3459  027F  303A               	movlw	(03Ah)
  3460  0280  0278               	subwf	(_ds4),w
  3461  0281  1C03               	skipc
  3462  0282  2A84               	goto	u34_21
  3463  0283  2A85               	goto	u34_20
  3464  0284                     u34_21:
  3465  0284  2A8E               	goto	i1l59
  3466  0285                     u34_20:
  3467                           	
  3468  0285                     i1l30000624:	
  3469                           	line	366
  3470                           ;UART T10.C: 365: {
  3471                           ;UART T10.C: 366: ds1='0';
  3472  0285  3030               	movlw	(030h)
  3473  0286  00F5               	movwf	(_ds1)
  3474                           	line	367
  3475                           ;UART T10.C: 367: ds2='0';
  3476  0287  3030               	movlw	(030h)
  3477  0288  00F6               	movwf	(_ds2)
  3478                           	line	368
  3479                           ;UART T10.C: 368: ds3='0';
  3480  0289  3030               	movlw	(030h)
  3481  028A  00F7               	movwf	(_ds3)
  3482                           	line	369
  3483                           ;UART T10.C: 369: ds4='0';
  3484  028B  3030               	movlw	(030h)
  3485  028C  00F8               	movwf	(_ds4)
  3486  028D  2A8E               	goto	i1l57
  3487                           	
  3488  028E                     i1l59:	
  3489                           	
  3490  028E                     i1l57:	
  3491  028E  0008               	return
  3492                           	opt stack 0
  3493                           GLOBAL	__end_of_incrementd
  3494  028F                     	__end_of_incrementd:
  3495                           ; =============== function _incrementd ends ============
  3496                           
  3497                           psect	text163,local,class=CODE,delta=2
  3498                           global __ptext163
  3499  04D2                     __ptext163:
  3500                           	line	378
  3501                           	signat	_incrementd,88
  3502                           	global	i1_init_timer
  3503                           
  3504                           ; *************** function i1_init_timer *****************
  3505                           ; Defined at:
  3506                           ;		line 102 in file "D:\ABHISHEK JOSHI\PIC\UART\UART T10\UART T10.C"
  3507                           ; Parameters:    Size  Location     Type
  3508                           ;		None
  3509                           ; Auto vars:     Size  Location     Type
  3510                           ;		None
  3511                           ; Return value:  Size  Location     Type
  3512                           ;		None               void
  3513                           ; Registers used:
  3514                           ;		wreg
  3515                           ; Tracked objects:
  3516                           ;		On entry : 0/0
  3517                           ;		On exit  : 0/0
  3518                           ;		Unchanged: 0/0
  3519                           ; Data sizes:     COMMON   BANK0   BANK1   BANK3   BANK2
  3520                           ;      Locals:         0       0       0       0       0
  3521                           ;      Temp:     0
  3522                           ;      Total:    0
  3523                           ; This function calls:
  3524                           ;		Nothing
  3525                           ; This function is called by:
  3526                           ;		_isr_t0
  3527                           ; This function uses a non-reentrant model
  3528                           ; 
  3529                           psect	text163
  3530                           	file	"D:\ABHISHEK JOSHI\PIC\UART\UART T10\UART T10.C"
  3531                           	line	102
  3532                           	global	__size_ofi1_init_timer
  3533  000F                     	__size_ofi1_init_timer	equ	__end_ofi1_init_timer-i1_init_timer
  3534                           ;UART T10.C: 101: void init_timer()
  3535                           ;UART T10.C: 102: {
  3536                           	
  3537  04D2                     i1_init_timer:	
  3538                           	opt stack 3
  3539                           ; Regs used in i1_init_timer: [wreg]
  3540                           	line	103
  3541                           	
  3542  04D2                     i1l30000625:	
  3543                           ;UART T10.C: 103: TMR1H=0xFC;
  3544  04D2  30FC               	movlw	(0FCh)
  3545  04D3  1283               	bcf	status, 5	;RP0=0, select bank0
  3546  04D4  1303               	bcf	status, 6	;RP1=0, select bank0
  3547  04D5  008F               	movwf	(15)	;volatile
  3548                           	line	104
  3549                           ;UART T10.C: 104: TMR1L=0x18;
  3550  04D6  3018               	movlw	(018h)
  3551  04D7  008E               	movwf	(14)	;volatile
  3552                           	line	105
  3553                           ;UART T10.C: 105: T1CON=0x01;
  3554  04D8  3001               	movlw	(01h)
  3555  04D9  0090               	movwf	(16)	;volatile
  3556                           	
  3557  04DA                     i1l30000626:	
  3558                           	line	106
  3559                           ;UART T10.C: 106: TMR1IE=1;
  3560  04DA  1683               	bsf	status, 5	;RP0=1, select bank1
  3561  04DB  1303               	bcf	status, 6	;RP1=0, select bank1
  3562  04DC  140C               	bsf	(1120/8)^080h,(1120)&7
  3563                           	
  3564  04DD                     i1l30000627:	
  3565                           	line	107
  3566                           ;UART T10.C: 107: TMR1IF=0;
  3567  04DD  1283               	bcf	status, 5	;RP0=0, select bank0
  3568  04DE  1303               	bcf	status, 6	;RP1=0, select bank0
  3569  04DF  100C               	bcf	(96/8),(96)&7
  3570                           	
  3571  04E0                     i1l9:	
  3572  04E0  0008               	return
  3573                           	opt stack 0
  3574                           GLOBAL	__end_ofi1_init_timer
  3575  04E1                     	__end_ofi1_init_timer:
  3576                           ; =============== function i1_init_timer ends ============
  3577                           
  3578                           psect	text164,local,class=CODE,delta=2
  3579                           global __ptext164
  3580  02C4                     __ptext164:
  3581                           	line	108
  3582                           	signat	i1_init_timer,88
  3583                           	global	_delay_1sec
  3584                           
  3585                           ; *************** function _delay_1sec *****************
  3586                           ; Defined at:
  3587                           ;		line 141 in file "D:\ABHISHEK JOSHI\PIC\UART\UART T10\UART T10.C"
  3588                           ; Parameters:    Size  Location     Type
  3589                           ;		None
  3590                           ; Auto vars:     Size  Location     Type
  3591                           ;		None
  3592                           ; Return value:  Size  Location     Type
  3593                           ;		None               void
  3594                           ; Registers used:
  3595                           ;		wreg, status,2, status,0
  3596                           ; Tracked objects:
  3597                           ;		On entry : 0/0
  3598                           ;		On exit  : 0/0
  3599                           ;		Unchanged: 0/0
  3600                           ; Data sizes:     COMMON   BANK0   BANK1   BANK3   BANK2
  3601                           ;      Locals:         0       0       0       0       0
  3602                           ;      Temp:     0
  3603                           ;      Total:    0
  3604                           ; This function calls:
  3605                           ;		Nothing
  3606                           ; This function is called by:
  3607                           ;		_isr_t0
  3608                           ; This function uses a non-reentrant model
  3609                           ; 
  3610                           psect	text164
  3611                           	file	"D:\ABHISHEK JOSHI\PIC\UART\UART T10\UART T10.C"
  3612                           	line	141
  3613                           	global	__size_of_delay_1sec
  3614  0033                     	__size_of_delay_1sec	equ	__end_of_delay_1sec-_delay_1sec
  3615                           ;UART T10.C: 140: void delay_1sec()
  3616                           ;UART T10.C: 141: {
  3617                           	
  3618  02C4                     _delay_1sec:	
  3619                           	opt stack 3
  3620                           ; Regs used in _delay_1sec: [wreg+status,2+status,0]
  3621                           	line	142
  3622                           	
  3623  02C4                     i1l30000628:	
  3624                           ;UART T10.C: 142: if(s1_over!=1)
  3625  02C4  3001               	movlw	01h
  3626  02C5  1283               	bcf	status, 5	;RP0=0, select bank0
  3627  02C6  1303               	bcf	status, 6	;RP1=0, select bank0
  3628  02C7  0662               	xorwf	(_s1_over),w
  3629  02C8  0463               	iorwf	(_s1_over+1),w
  3630  02C9  1903               	skipnz
  3631  02CA  2ACC               	goto	u35_21
  3632  02CB  2ACD               	goto	u35_20
  3633  02CC                     u35_21:
  3634  02CC  2AF6               	goto	i1l13
  3635  02CD                     u35_20:
  3636                           	
  3637  02CD                     i1l30000629:	
  3638                           	line	144
  3639                           ;UART T10.C: 143: {
  3640                           ;UART T10.C: 144: cnt_1sl--;
  3641  02CD  30FF               	movlw	low(-1)
  3642  02CE  07DC               	addwf	(_cnt_1sl),f
  3643  02CF  1803               	skipnc
  3644  02D0  0ADD               	incf	(_cnt_1sl+1),f
  3645  02D1  30FF               	movlw	high(-1)
  3646  02D2  07DD               	addwf	(_cnt_1sl+1),f
  3647                           	
  3648  02D3                     i1l30000630:	
  3649                           	line	145
  3650                           ;UART T10.C: 145: if(cnt_1sl==0)
  3651  02D3  085D               	movf	((_cnt_1sl+1)),w
  3652  02D4  045C               	iorwf	((_cnt_1sl)),w
  3653  02D5  1D03               	skipz
  3654  02D6  2AD8               	goto	u36_21
  3655  02D7  2AD9               	goto	u36_20
  3656  02D8                     u36_21:
  3657  02D8  2AF6               	goto	i1l13
  3658  02D9                     u36_20:
  3659                           	
  3660  02D9                     i1l30000631:	
  3661                           	line	147
  3662                           ;UART T10.C: 146: {
  3663                           ;UART T10.C: 147: cnt_1sh--;
  3664  02D9  30FF               	movlw	low(-1)
  3665  02DA  07DA               	addwf	(_cnt_1sh),f
  3666  02DB  1803               	skipnc
  3667  02DC  0ADB               	incf	(_cnt_1sh+1),f
  3668  02DD  30FF               	movlw	high(-1)
  3669  02DE  07DB               	addwf	(_cnt_1sh+1),f
  3670                           	line	148
  3671                           ;UART T10.C: 148: if(cnt_1sh!=0)
  3672  02DF  085B               	movf	(_cnt_1sh+1),w
  3673  02E0  045A               	iorwf	(_cnt_1sh),w
  3674  02E1  1903               	skipnz
  3675  02E2  2AE4               	goto	u37_21
  3676  02E3  2AE5               	goto	u37_20
  3677  02E4                     u37_21:
  3678  02E4  2AEA               	goto	i1l30000633
  3679  02E5                     u37_20:
  3680                           	
  3681  02E5                     i1l30000632:	
  3682                           	line	149
  3683                           ;UART T10.C: 149: cnt_1sl=0x0ff;
  3684  02E5  30FF               	movlw	low(0FFh)
  3685  02E6  00DC               	movwf	(_cnt_1sl)
  3686  02E7  3000               	movlw	high(0FFh)
  3687  02E8  00DD               	movwf	((_cnt_1sl))+1
  3688  02E9  2AF6               	goto	i1l13
  3689                           	
  3690  02EA                     i1l30000633:	
  3691                           	line	152
  3692                           ;UART T10.C: 150: else
  3693                           ;UART T10.C: 151: {
  3694                           ;UART T10.C: 152: cnt_1sl=0x0e8;
  3695  02EA  30E8               	movlw	low(0E8h)
  3696  02EB  00DC               	movwf	(_cnt_1sl)
  3697  02EC  3000               	movlw	high(0E8h)
  3698  02ED  00DD               	movwf	((_cnt_1sl))+1
  3699                           	line	153
  3700                           ;UART T10.C: 153: cnt_1sh=0x04;
  3701  02EE  3004               	movlw	low(04h)
  3702  02EF  00DA               	movwf	(_cnt_1sh)
  3703  02F0  3000               	movlw	high(04h)
  3704  02F1  00DB               	movwf	((_cnt_1sh))+1
  3705                           	line	154
  3706                           ;UART T10.C: 154: s1_over=1;
  3707  02F2  3001               	movlw	low(01h)
  3708  02F3  00E2               	movwf	(_s1_over)
  3709  02F4  3000               	movlw	high(01h)
  3710  02F5  00E3               	movwf	((_s1_over))+1
  3711                           	
  3712  02F6                     i1l13:	
  3713  02F6  0008               	return
  3714                           	opt stack 0
  3715                           GLOBAL	__end_of_delay_1sec
  3716  02F7                     	__end_of_delay_1sec:
  3717                           ; =============== function _delay_1sec ends ============
  3718                           
  3719                           psect	text165,local,class=CODE,delta=2
  3720                           global __ptext165
  3721  01E1                     __ptext165:
  3722                           	line	159
  3723                           	signat	_delay_1sec,88
  3724                           	global	_k1
  3725                           
  3726                           ; *************** function _k1 *****************
  3727                           ; Defined at:
  3728                           ;		line 288 in file "D:\ABHISHEK JOSHI\PIC\UART\UART T10\UART T10.C"
  3729                           ; Parameters:    Size  Location     Type
  3730                           ;		None
  3731                           ; Auto vars:     Size  Location     Type
  3732                           ;		None
  3733                           ; Return value:  Size  Location     Type
  3734                           ;		None               void
  3735                           ; Registers used:
  3736                           ;		wreg, status,2, status,0
  3737                           ; Tracked objects:
  3738                           ;		On entry : 0/0
  3739                           ;		On exit  : 0/0
  3740                           ;		Unchanged: 0/0
  3741                           ; Data sizes:     COMMON   BANK0   BANK1   BANK3   BANK2
  3742                           ;      Locals:         0       0       0       0       0
  3743                           ;      Temp:     0
  3744                           ;      Total:    0
  3745                           ; This function calls:
  3746                           ;		Nothing
  3747                           ; This function is called by:
  3748                           ;		_scanner
  3749                           ; This function uses a non-reentrant model
  3750                           ; 
  3751                           psect	text165
  3752                           	file	"D:\ABHISHEK JOSHI\PIC\UART\UART T10\UART T10.C"
  3753                           	line	288
  3754                           	global	__size_of_k1
  3755  0071                     	__size_of_k1	equ	__end_of_k1-_k1
  3756                           ;UART T10.C: 287: void k1()
  3757                           ;UART T10.C: 288: {
  3758                           	
  3759  01E1                     _k1:	
  3760                           	opt stack 2
  3761                           ; Regs used in _k1: [wreg+status,2+status,0]
  3762                           	line	289
  3763                           	
  3764  01E1                     i1l30000542:	
  3765                           ;UART T10.C: 289: if(key_ready==1)
  3766  01E1  3001               	movlw	01h
  3767  01E2  1283               	bcf	status, 5	;RP0=0, select bank0
  3768  01E3  1303               	bcf	status, 6	;RP1=0, select bank0
  3769  01E4  064D               	xorwf	(_key_ready),w
  3770  01E5  044E               	iorwf	(_key_ready+1),w
  3771  01E6  1D03               	skipz
  3772  01E7  29E9               	goto	u22_21
  3773  01E8  29EA               	goto	u22_20
  3774  01E9                     u22_21:
  3775  01E9  2A10               	goto	i1l30000548
  3776  01EA                     u22_20:
  3777                           	
  3778  01EA                     i1l30000543:	
  3779                           	line	291
  3780                           ;UART T10.C: 290: {
  3781                           ;UART T10.C: 291: if(c==0)
  3782  01EA  0846               	movf	((_c+1)),w
  3783  01EB  0445               	iorwf	((_c)),w
  3784  01EC  1D03               	skipz
  3785  01ED  29EF               	goto	u23_21
  3786  01EE  29F0               	goto	u23_20
  3787  01EF                     u23_21:
  3788  01EF  29F5               	goto	i1l30000545
  3789  01F0                     u23_20:
  3790                           	
  3791  01F0                     i1l30000544:	
  3792                           	line	293
  3793                           ;UART T10.C: 292: {
  3794                           ;UART T10.C: 293: krcount=32;
  3795  01F0  3020               	movlw	low(020h)
  3796  01F1  00E0               	movwf	(_krcount)
  3797  01F2  3000               	movlw	high(020h)
  3798  01F3  00E1               	movwf	((_krcount))+1
  3799  01F4  2A51               	goto	i1l37
  3800                           	
  3801  01F5                     i1l30000545:	
  3802                           	line	297
  3803                           ;UART T10.C: 295: else
  3804                           ;UART T10.C: 296: {
  3805                           ;UART T10.C: 297: krcount=krcount-1;
  3806  01F5  0860               	movf	(_krcount),w
  3807  01F6  3EFF               	addlw	low(-1)
  3808  01F7  00E0               	movwf	(_krcount)
  3809  01F8  0861               	movf	(_krcount+1),w
  3810  01F9  1803               	skipnc
  3811  01FA  3E01               	addlw	1
  3812  01FB  3EFF               	addlw	high(-1)
  3813  01FC  00E1               	movwf	1+(_krcount)
  3814                           	
  3815  01FD                     i1l30000546:	
  3816                           	line	299
  3817                           ;UART T10.C: 299: if(krcount==0)
  3818  01FD  0861               	movf	((_krcount+1)),w
  3819  01FE  0460               	iorwf	((_krcount)),w
  3820  01FF  1D03               	skipz
  3821  0200  2A02               	goto	u24_21
  3822  0201  2A03               	goto	u24_20
  3823  0202                     u24_21:
  3824  0202  2A51               	goto	i1l37
  3825  0203                     u24_20:
  3826                           	
  3827  0203                     i1l30000547:	
  3828                           	line	301
  3829                           ;UART T10.C: 300: {
  3830                           ;UART T10.C: 301: nkp=1;
  3831  0203  3001               	movlw	low(01h)
  3832  0204  00CF               	movwf	(_nkp)
  3833  0205  3000               	movlw	high(01h)
  3834  0206  00D0               	movwf	((_nkp))+1
  3835                           	line	302
  3836                           ;UART T10.C: 302: start_buzzer=0;
  3837  0207  3000               	movlw	low(0)
  3838  0208  00D3               	movwf	(_start_buzzer)
  3839  0209  3000               	movlw	high(0)
  3840  020A  00D4               	movwf	((_start_buzzer))+1
  3841                           	line	303
  3842                           ;UART T10.C: 303: krcount=32;
  3843  020B  3020               	movlw	low(020h)
  3844  020C  00E0               	movwf	(_krcount)
  3845  020D  3000               	movlw	high(020h)
  3846  020E  00E1               	movwf	((_krcount))+1
  3847  020F  2A51               	goto	i1l37
  3848                           	
  3849  0210                     i1l30000548:	
  3850                           	line	307
  3851                           ;UART T10.C: 307: else if(dcount==33)
  3852  0210  3021               	movlw	021h
  3853  0211  065E               	xorwf	(_dcount),w
  3854  0212  045F               	iorwf	(_dcount+1),w
  3855  0213  1D03               	skipz
  3856  0214  2A16               	goto	u25_21
  3857  0215  2A17               	goto	u25_20
  3858  0216                     u25_21:
  3859  0216  2A2C               	goto	i1l30000551
  3860  0217                     u25_20:
  3861                           	
  3862  0217                     i1l30000549:	
  3863                           	line	309
  3864                           ;UART T10.C: 308: {
  3865                           ;UART T10.C: 309: if(c==0)
  3866  0217  0846               	movf	((_c+1)),w
  3867  0218  0445               	iorwf	((_c)),w
  3868  0219  1D03               	skipz
  3869  021A  2A1C               	goto	u26_21
  3870  021B  2A1D               	goto	u26_20
  3871  021C                     u26_21:
  3872  021C  2A51               	goto	i1l37
  3873  021D                     u26_20:
  3874                           	
  3875  021D                     i1l30000550:	
  3876                           	line	311
  3877                           ;UART T10.C: 310: {
  3878                           ;UART T10.C: 311: dcount=dcount-1;
  3879  021D  085E               	movf	(_dcount),w
  3880  021E  3EFF               	addlw	low(-1)
  3881  021F  00DE               	movwf	(_dcount)
  3882  0220  085F               	movf	(_dcount+1),w
  3883  0221  1803               	skipnc
  3884  0222  3E01               	addlw	1
  3885  0223  3EFF               	addlw	high(-1)
  3886  0224  00DF               	movwf	1+(_dcount)
  3887                           	line	312
  3888                           ;UART T10.C: 312: key_code=scan_no;
  3889  0225  0852               	movf	(_scan_no+1),w
  3890  0226  01CC               	clrf	(_key_code+1)
  3891  0227  07CC               	addwf	(_key_code+1)
  3892  0228  0851               	movf	(_scan_no),w
  3893  0229  01CB               	clrf	(_key_code)
  3894  022A  07CB               	addwf	(_key_code)
  3895                           
  3896  022B  2A51               	goto	i1l37
  3897                           	
  3898  022C                     i1l30000551:	
  3899                           	line	319
  3900                           ;UART T10.C: 317: else
  3901                           ;UART T10.C: 318: {
  3902                           ;UART T10.C: 319: dcount=dcount-1;
  3903  022C  085E               	movf	(_dcount),w
  3904  022D  3EFF               	addlw	low(-1)
  3905  022E  00DE               	movwf	(_dcount)
  3906  022F  085F               	movf	(_dcount+1),w
  3907  0230  1803               	skipnc
  3908  0231  3E01               	addlw	1
  3909  0232  3EFF               	addlw	high(-1)
  3910  0233  00DF               	movwf	1+(_dcount)
  3911                           	
  3912  0234                     i1l30000552:	
  3913                           	line	320
  3914                           ;UART T10.C: 320: if(dcount==0)
  3915  0234  085F               	movf	((_dcount+1)),w
  3916  0235  045E               	iorwf	((_dcount)),w
  3917  0236  1D03               	skipz
  3918  0237  2A39               	goto	u27_21
  3919  0238  2A3A               	goto	u27_20
  3920  0239                     u27_21:
  3921  0239  2A51               	goto	i1l37
  3922  023A                     u27_20:
  3923                           	
  3924  023A                     i1l30000553:	
  3925                           	line	322
  3926                           ;UART T10.C: 321: {
  3927                           ;UART T10.C: 322: if(c==0)
  3928  023A  0846               	movf	((_c+1)),w
  3929  023B  0445               	iorwf	((_c)),w
  3930  023C  1D03               	skipz
  3931  023D  2A3F               	goto	u28_21
  3932  023E  2A40               	goto	u28_20
  3933  023F                     u28_21:
  3934  023F  2A4D               	goto	i1l30000555
  3935  0240                     u28_20:
  3936                           	
  3937  0240                     i1l30000554:	
  3938                           	line	324
  3939                           ;UART T10.C: 323: {
  3940                           ;UART T10.C: 324: key_ready=1;
  3941  0240  3001               	movlw	low(01h)
  3942  0241  00CD               	movwf	(_key_ready)
  3943  0242  3000               	movlw	high(01h)
  3944  0243  00CE               	movwf	((_key_ready))+1
  3945                           	line	325
  3946                           ;UART T10.C: 325: start_buzzer=1;
  3947  0244  3001               	movlw	low(01h)
  3948  0245  00D3               	movwf	(_start_buzzer)
  3949  0246  3000               	movlw	high(01h)
  3950  0247  00D4               	movwf	((_start_buzzer))+1
  3951                           	line	326
  3952                           ;UART T10.C: 326: dcount=33;
  3953  0248  3021               	movlw	low(021h)
  3954  0249  00DE               	movwf	(_dcount)
  3955  024A  3000               	movlw	high(021h)
  3956  024B  00DF               	movwf	((_dcount))+1
  3957  024C  2A51               	goto	i1l37
  3958                           	
  3959  024D                     i1l30000555:	
  3960                           	line	328
  3961                           ;UART T10.C: 328: else dcount=33;
  3962  024D  3021               	movlw	low(021h)
  3963  024E  00DE               	movwf	(_dcount)
  3964  024F  3000               	movlw	high(021h)
  3965  0250  00DF               	movwf	((_dcount))+1
  3966                           	
  3967  0251                     i1l37:	
  3968  0251  0008               	return
  3969                           	opt stack 0
  3970                           GLOBAL	__end_of_k1
  3971  0252                     	__end_of_k1:
  3972                           ; =============== function _k1 ends ============
  3973                           
  3974                           psect	text166,local,class=CODE,delta=2
  3975                           global __ptext166
  3976  051F                     __ptext166:
  3977                           	line	332
  3978                           	signat	_k1,88
  3979                           	global	btemp
  3980  007E                     	btemp set 07Eh


HI-TECH Software PICC Macro Assembler V9.70 build 5239 
Symbol Table                                                                                   Tue Jan 01 15:58:10 2002

           uart_delay@del 0071                         l8 04B3                         l9 04C2  
                       _a 0043                         _c 0045                         _i 0047  
                       _k 0049                         pc 0002               ?_keyprocess 0070  
                      l11 0405                        l12 04EF                        _DA 04A5  
                      _BF 04A0                        _DC 0019                        l63 0492  
                      l80 0513                        l81 04D1                        l73 03E2  
                      l90 0329                        l82 0467                        l83 0504  
                      l85 03B6                        l69 0449                        l94 031F  
                      l86 04FA                 tx@tx_data 0070                        l87 04F1  
                      l79 051A                        _PD 001B                        _RD 0C60  
                      _UA 04A1                        _TO 001C                        _RW 04A2  
                      _WR 0C61                        _k1 01E1                        _tb 0057  
                      _tx 04F0                        fsr 0004              ??_incrementd 0068  
             __pbssCOMMON 0079              i1_init_timer 04D2                       ?_k1 0068  
                     _CM0 04E0                       _CM1 04E1                       _CM2 04E2  
                     ?_tx 0071                       _CKE 04A6                       _CIS 04E3  
                     _CKP 00A4                       _GIE 005F                       _BOR 0470  
                     _RA0 0028                       _RA1 0029                       _RB0 0030  
                     _RA2 002A                       _RB1 0031                       _RA3 002B  
                     _RC0 0038                       _RB2 0032                       _RA4 002C  
                     _RC1 0039                       _RB3 0033                       _RA5 002D  
                     _RC2 003A                       _RB4 0034                       _RC3 003B  
                     _RB5 0035                       _RC4 003C                       _RB6 0036  
                     _RC5 003D                       _RB7 0037                       _RC6 003E  
                     _RC7 003F                       _FSR 0004                       u410 04F7  
                     _PCL 0002                       u411 04F6                       u420 048A  
                     u421 0489                       u430 0317                       _PS0 0408  
                     _PR2 0092                       u431 0316                       _PS1 0409  
                     u440 0329                       _PS2 040A                       _PEN 048A  
                     _RP0 001D                       _IRP 001F                       u441 0328  
                     _RP1 001E                       u450 0438                       u435 0313  
                     u451 0437                       u445 0325                       i1l2 034D  
                     _SEN 0488                       i1l9 04E0                       _PSA 040B  
                     _POR 0471                       _RX9 00C6                       _SMP 04A7  
                     _TX9 04C6           __size_of_isr_t0 0030                       _ds1 0075  
                     _ds2 0076                       _ds3 0077                       _ds4 0078  
                     _cnt 0039                       _nkp 004F                       fsr0 0004  
                     indf 0000      __end_ofi1_init_timer 04E1              ??_init_timer 0070  
           ??_home_screen 0071              _start_buzzer 0053                      ??_k1 0068  
                _cmd_data 0059                _uart_delay 02F7                      ??_tx 0070  
     __size_of_delay_1sec 0033        __end_of_uart_delay 032A          __size_of_get_key 0021  
                    _ADIE 0466                      _ADIF 0066                      _ADFM 04FF  
                    _ADGO 00FA                      _ADON 00F8                      _CHS0 00FB  
                    _CHS1 00FC                      _CHS2 00FD                      _EEIE 046C  
                    _EEIF 006C                      _GCEN 048F              ??_keyprocess 0070  
                    _CMIE 046E                      _CMIF 006E                      _BRGH 04C2  
                    _T0IE 005D                      _T0IF 005A                      _CREN 00C4  
                    _T0CS 040D                      _FERR 00C2                      _CVR0 04E8  
                    _CVR1 04E9                      _CVR2 04EA                      _CVR3 04EB  
                    _T0SE 040C                      _CSRC 04C7                      _INDF 0000  
                    _PIE1 008C                      _PIE2 008D                      _CVRR 04ED  
                    _PEIE 005E                      i1l13 02F6                      i1l21 0016  
                    _INTE 005C                      _INTF 0059                      _RBIE 005B  
                    _RBIF 0058                      i1l33 0142                      i1l25 007A  
                    i1l18 01E0                      _RCIE 0465                      _RCEN 048B  
                    _RCIF 0065                      i1l37 0251                      i1l29 00DE  
                    _PCON 008E                      i1l57 028E                      _PIR1 000C  
                    _PIR2 000D                      i1l59 028E                      _OERR 00C1  
                    _RBPU 040F              __pidataBANK0 0406              __pidataBANK1 0468  
                    _RX9D 00C0                      _TMR0 0001                      _TMR2 0011  
                    _WCOL 00A7                      _SPEN 00C7                      _RSEN 0489  
                    _TX9D 04C0                      _SREN 00C5                      _TRMT 04C1  
                    _STOP 04A4                      _TXIE 0464                      _ZERO 001A  
                    _WREN 0C62                      _TXEN 04C5                      _TXIF 0064  
                    _SYNC 04C4             ??_key_release 0070             ??_init_keypad 0070  
        __size_of_scanner 01CC                      _disp 00A0                      _main 035A  
                    _init 04A4               ?_uart_delay 0071                      btemp 007E  
                _key_code 004B                      start 0012         interrupt_function 0004  
     start_initialization 028F               uart_delay@i 0064               uart_delay@j 0066  
                clear_ram 0505                 __pnvBANK0 005A                   _CCP1CON 0017  
                 _CCP2CON 001D                   _ACKSTAT 048E                   ?_isr_t0 006A  
                   l30023 03D8                     l30024 03CB             ?i1_init_timer 0068  
                   _C1INV 04E4                  ??_isr_t0 00B9                     _C2INV 04E5  
                _start_sw 0055                     _C1OUT 04E6                 _ascii_tab 0020  
                   _C2OUT 04E7                     _ADCS0 00FE                     _ADCS1 00FF  
                   _ADCS2 04FE                     _ADDEN 00C3                     ?_main 0075  
                   _ACKEN 048C                     _ACKDT 048D                     ?_init 0070  
               __ptext150 0481                 __ptext151 04C3                 __ptext160 032A  
               __ptext152 050D                 __ptext161 0015                 __ptext153 04E1  
               __ptext145 03B7                 __ptext162 0252                 __ptext154 04B4  
               __ptext146 0429                 __ptext163 04D2                 __ptext155 03E3  
               __ptext147 04FB                 __ptext164 02C4                 __ptext156 044A  
               __ptext148 04A4                 __ptext165 01E1                 __ptext157 0389  
               __ptext149 0514                     _BCLIE 046B                 __ptext166 051F  
               __ptext158 04F0                     _BCLIF 006B                 __ptext159 02F7  
                   _CCP1X 00BD                     _CCP1Y 00BC                     _CCP2X 00ED  
                   _CCP2Y 00EC                     _EEADR 010D                     _CARRY 0018  
                   _EEPGD 0C67                     _CMCON 009C              ??_uart_delay 0070  
                   _T1CON 0010                     _T2CON 0012                   _T1CKPS0 0084  
                 _T1CKPS1 0085                     _PCFG0 04F8                     _PCFG1 04F9  
                   _PCFG2 04FA                     _PCFG3 04FB                   _T2CKPS0 0090  
                 _T2CKPS1 0091                     _CVREN 04EF                     _CVROE 04EE  
         __end_of_get_key 044A                     _RCREG 001A                     _RCSTA 0018  
                   u22_20 01EA                     u30_20 025B                     u22_21 01E9  
                   u30_21 025A                     u23_20 01F0                     u31_20 0264  
                   u23_21 01EF                     u31_21 0263                     u24_20 0203  
                   u32_20 026F                     u24_21 0202                     u32_21 026E  
                   u25_20 0217                     u33_20 027A                     u25_21 0216  
                   u33_21 0279                     _TMR1H 000F                     _TMR1L 000E  
                   u26_20 021D                     u34_20 0285                     u26_21 021C  
                   u34_21 0284                     _SPBRG 0099                     u27_20 023A  
                   u35_20 02CD                     u27_21 0239                     u35_21 02CC  
                   _PORTA 0005                     _PORTB 0006                   _T1OSCEN 0083  
                   _PORTC 0007                     u28_20 0240                     u36_20 02D9  
                   u28_21 023F                     u36_21 02D8                     u37_20 02E5  
                   u37_21 02E4                     u46_20 0342                     u46_21 0341  
                   _START 04A3                     _SSPM0 00A0                     _SSPM1 00A1  
                   _SSPM2 00A2                     _SSPM3 00A3                     _TRISA 0085  
                   _TRISB 0086                     _TRISC 0087                     _SSPIE 0463  
                   _SSPIF 0063                     _SSPEN 00A5                   i1l30025 01DB  
                 i1l30026 01A7                     _SSPOV 00A6                     _WRERR 0C63  
                   _TXREG 0019                     _TXSTA 0098                 _disp_data 0079  
           __pidataCOMMON 051B           __end_of_scanner 01E1               __size_of_k1 0071  
             __size_of_tx 000B            __pcstackCOMMON 0070                   _SSPCON2 0091  
   __size_ofi1_init_timer 000F                __end_of_k1 0252                __end_of_tx 04FB  
                 _SSPSTAT 0094                   _TOUTPS0 0093                   _TOUTPS1 0094  
                 _TOUTPS2 0095                   _TOUTPS3 0096                     pclath 000A  
__size_of_init_delay_1sec 000F                  intlevel1 0004                 _key_ready 004D  
     __size_of_incrementd 003D                     status 0003                 _init_uart 04FB  
       __end_of_init_uart 0505                ?_init_uart 0070       __size_of_init_timer 000F  
           __size_of_main 002F                __pbssBANK0 0043             __size_of_init 0010  
                 _s1_over 0062                  l30000700 0363                  l30000701 0365  
                l30000702 0367                  l30000703 036C                  l30000704 0372  
                l30000705 0377                  l30000634 03E3                  l30000706 037A  
                l30000635 03E9                  l30000707 037B                  l30000636 04A4  
                l30000708 0380                  l30000670 03C4                  l30000664 04F1  
                l30000680 04FB                  l30000672 03CA                  l30000665 04F7  
                l30000681 0501                  l30000673 03DD                  l30000690 0317  
                l30000666 04F9                  l30000682 04E1                  l30000674 04C3  
                l30000691 0389                  l30000683 04B4                  l30000675 0481  
                l30000667 03B7                  l30000692 044A                  l30000684 04BC  
                l30000676 0481                  l30000668 03B8                  l30000685 04BF  
                l30000677 048A                  l30000693 0429                  l30000669 03BE  
                l30000686 02F7                  l30000678 0514                  l30000694 042A  
                l30000687 02FE                  l30000679 050D                  l30000695 042F  
                l30000696 0438                  l30000689 0302                  l30000697 043E  
                l30000698 035A                  l30000699 0361               ??_init_uart 0070  
              _delay_1sec 02C4       __size_of_keyprocess 002C        __end_of_delay_1sec 02F7  
               _uart_disp 044A                    ??_main 0073                   _cnt_1sh 005A  
                 _cnt_1sl 005C         __end_of_uart_disp 0468                    ??_init 0070  
                 _get_key 0429                 _process_a 0514                 _process_b 050D  
               _process_c 04C3                  ?_get_key 0075         __end_of_process_a 051B  
       __end_of_process_b 0514         __end_of_process_c 04D2                __pmaintext 035A  
              ?_uart_disp 0073                 ??_get_key 0073                   _scan_no 0051  
                 _scanner 0015               ?_delay_1sec 0068                   _krcount 0060  
              ?_process_a 0070                ?_process_b 0070                ?_process_c 0070  
                ?_scanner 006A                __pintentry 0004                 ??_scanner 0068  
                  _ADCON0 001F                    _ADCON1 009F                    _CCP1M0 00B8  
                  _CCP1M1 00B9                    _CCP1M2 00BA                    _CCP1M3 00BB  
                  _CCP2M0 00E8                    _CCP2M1 00E9                    _CCP2M2 00EA  
                  _CCP2M3 00EB                    _CCP1IE 0462                    _CCP1IF 0062  
                  _CCP2IE 0468                    _CCP2IF 0068                    _ADRESH 001E  
                  _EEADRH 010F                    _ADRESL 009E                    _EEADRL 010D  
                  _EEDATA 010C                    _CCPR1H 0016                    _EEDATH 010E  
                  _CCPR2H 001C                    _CCPR1L 0015                    _CCPR2L 001B  
                  _EECON1 018C                    _EECON2 018D           _init_delay_1sec 04E1  
            __end_of_main 0389               ??_uart_disp 0071              __end_of_init 04B4  
                  _GODONE 00FA      end_of_initialization 02C0                    _CVRCON 009D  
                  _T1SYNC 0082                    _INTEDG 040E                    _PCLATH 000A  
                  _INTCON 000B             __pcstackBANK0 0064             __pcstackBANK1 00B9  
          __end_of_isr_t0 035A               ??_process_a 0070               ??_process_b 0070  
             ??_process_c 0070          ?_init_delay_1sec 0070                    _TMR0IE 005D  
                  _TMR0IF 005A                    _TMR1IE 0460                    _TMR1IF 0060  
                  _TMR1CS 0081                    _TMR2IE 0461                    _TMR2IF 0061  
                  _OPTION 0081                    _TMR1ON 0080                    _TMR2ON 0092  
                  _SSPADD 0093                    _TRISA0 0428                    _TRISA1 0429  
                  _TRISB0 0430                    _TRISA2 042A                    _TRISB1 0431  
                  _TRISA3 042B                    _TRISC0 0438                    _TRISB2 0432  
                  _TRISA4 042C                    _TRISC1 0439                    _TRISB3 0433  
                  _TRISA5 042D                    _TRISC2 043A                    _TRISB4 0434  
                  _TRISC3 043B                    _TRISB5 0435                    _TRISC4 043C  
                  _TRISB6 0436                    _TRISC5 043D                    _TRISB7 0437  
                  _TRISC6 043E                    _TRISC7 043F                    _STATUS 0003  
                  _SSPCON 0014                    _SSPBUF 0013                   init_ram 0497  
     __size_of_uart_delay 0033               _home_screen 0389        __size_of_init_uart 000A  
            ??_delay_1sec 0068       __end_of_home_screen 03B7         ??_init_delay_1sec 0070  
                  _dcount 005E               _key_release 0481                    _isr_t0 032A  
              i1l30000600 0182                i1l30000601 0187                i1l30000602 018E  
              i1l30000603 019A                i1l30000620 0274                i1l30000612 0252  
              i1l30000604 019F                i1l30000621 027A                i1l30000613 025B  
              i1l30000550 021D                i1l30000542 01E1                i1l30000630 02D3  
              i1l30000622 027C                i1l30000614 025E                i1l30000606 01A6  
              i1l30000710 0334                i1l30000551 022C                i1l30000543 01EA  
              i1l30000631 02D9                i1l30000623 027F                i1l30000615 0264  
              i1l30000711 0339                i1l30000552 0234                i1l30000544 01F0  
              i1l30000632 02E5                i1l30000624 0285                i1l30000616 0266  
              i1l30000560 0032                i1l30000712 0342                i1l30000553 023A  
              i1l30000545 01F5                i1l30000633 02EA                i1l30000625 04D2  
              i1l30000617 0269                i1l30000561 003E                i1l30000713 0347  
              i1l30000554 0240                i1l30000546 01FD                i1l30000626 04DA  
              i1l30000618 026F                i1l30000570 008A                i1l30000562 0043  
              i1l30000555 024D                i1l30000547 0203                i1l30000627 04DD  
              i1l30000619 0271                i1l30000571 008F                i1l30000563 004A  
              i1l30000548 0210                i1l30000628 02C4                i1l30000580 00D7  
              i1l30000572 0096                i1l30000564 0056                i1l30000556 0015  
              i1l30000549 0217                i1l30000629 02CD                i1l30000581 00E2  
              i1l30000573 00A2                i1l30000565 005B                i1l30000557 001A  
              i1l30000709 032A                i1l30000590 012A                i1l30000582 00EE  
              i1l30000574 00A7                i1l30000566 0062                i1l30000558 0026  
              i1l30000591 0136                i1l30000583 00F3                i1l30000575 00AE  
              i1l30000567 006E                i1l30000559 002B                i1l30000592 013B  
              i1l30000584 00FA                i1l30000576 00BA                i1l30000568 0073  
              i1l30000593 0146                i1l30000585 0106                i1l30000577 00BF  
              i1l30000569 007E                i1l30000594 0152                i1l30000586 010B  
              i1l30000578 00C6                i1l30000595 0157                i1l30000587 0112  
              i1l30000579 00D2                i1l30000596 015E                i1l30000588 011E  
              i1l30000597 016A                i1l30000589 0123                i1l30000598 016F  
              i1l30000599 0176               _init_keypad 03E3                 init_fetch 0493  
     __end_of_key_release 0493            ??i1_init_timer 0068       __end_of_init_keypad 0406  
                  clrloop 0506              ?_home_screen 0073                _incrementd 0252  
      __size_of_uart_disp 001E                    saved_w 007F        __end_of_incrementd 028F  
      __size_of_process_a 0007        __size_of_process_b 0007        __size_of_process_c 000F  
    __size_of_home_screen 002E                _init_timer 04B4        __end_of_init_timer 04C3  
             ?_incrementd 0068              ?_key_release 0070              ?_init_keypad 0070  
    __size_of_key_release 0012                _keyprocess 03B7               ?_init_timer 0070  
      __end_of_keyprocess 03E3      __size_of_init_keypad 0023   __end_of_init_delay_1sec 04F0  
             __pdataBANK0 0020               __pdataBANK1 00A0              __pdataCOMMON 0075  
