

HI-TECH Software PIC LITE Macro Assembler V9.70 build 5239 
                                                                                               Wed Jan 02 17:19:51 2002

HI-TECH Software Omniscient Code Generator (Lite mode) build 5239
     1  0000                     opt subtitle "HI-TECH Software Omniscient Code Generator (Lite mode) build 5239"
     2                           
     3                           opt pagewidth 120
     4                           
     5                           	opt lm
     6                           
     7                           	processor	16F876A
     8                           clrc	macro
     9                           	bcf	3,0
    10  0000                     	endm
    11                           clrz	macro
    12                           	bcf	3,2
    13  0000                     	endm
    14                           setc	macro
    15                           	bsf	3,0
    16  0000                     	endm
    17                           setz	macro
    18                           	bsf	3,2
    19  0000                     	endm
    20                           skipc	macro
    21                           	btfss	3,0
    22  0000                     	endm
    23                           skipz	macro
    24                           	btfss	3,2
    25  0000                     	endm
    26                           skipnc	macro
    27                           	btfsc	3,0
    28  0000                     	endm
    29                           skipnz	macro
    30                           	btfsc	3,2
    31  0000                     	endm
    32  0000                     indf	equ	0
    33  0000                     indf0	equ	0
    34  0002                     pc	equ	2
    35  0002                     pcl	equ	2
    36  0003                     status	equ	3
    37  0004                     fsr	equ	4
    38  0004                     fsr0	equ	4
    39  0001                     c	equ	1
    40  0000                     z	equ	0
    41  000A                     pclath	equ	10
    42                           ;COMMON:	_main->_delay
    43                           	FNCALL	_main,_init_lcd
    44                           	FNCALL	_main,_init
    45                           	FNCALL	_main,_cmd_wr
    46                           	FNCALL	_main,_data_wr
    47                           	FNCALL	_main,_lcd_disp
    48                           	FNCALL	_main,_delay
    49                           	FNCALL	_main,_incrementd
    50                           	FNCALL	_init,_init_timer
    51                           	FNCALL	_lcd_disp,_cmd_wr
    52                           	FNCALL	_lcd_disp,_data_wr
    53                           	FNCALL	_init_lcd,_lcd_delay
    54                           	FNCALL	_init_lcd,_cmd_wr
    55                           	FNCALL	_data_wr,_data_mapping
    56                           	FNCALL	_data_wr,_toggle
    57                           	FNCALL	_cmd_wr,_data_mapping
    58                           	FNCALL	_cmd_wr,_toggle
    59                           	FNROOT	_main
    60                           	FNCALL	_isr_t0,i1_init_timer
    61                           	FNCALL	_isr_t0,_scanner
    62                           	FNCALL	intlevel1,_isr_t0
    63                           	global	intlevel1
    64                           	FNROOT	intlevel1
    65                           	global	_disp
    66                           	global	_cnt
    67                           	global	_ds3
    68                           	global	_ds1
    69                           	global	_ds2
    70                           	global	_ds4
    71                           psect	idataBANK0,class=CODE,space=0,delta=2
    72                           global __pidataBANK0
    73  02BC                     __pidataBANK0:
    74                           	file	"D:\ABHISHEK JOSHI\PIC\LCD\T8\LCD T8.C"
    75                           	line	16
    76                           
    77                           ;initializer for _disp
    78  02BC  34FC               	retlw	0FCh
    79  02BD  3460               	retlw	060h
    80  02BE  34DA               	retlw	0DAh
    81  02BF  34F2               	retlw	0F2h
    82  02C0  3466               	retlw	066h
    83  02C1  34B6               	retlw	0B6h
    84  02C2  34BE               	retlw	0BEh
    85  02C3  34E0               	retlw	0E0h
    86  02C4  34FE               	retlw	0FEh
    87  02C5  34F6               	retlw	0F6h
    88  02C6  34FF               	retlw	0FFh
    89  02C7  34FF               	retlw	0FFh
    90  02C8  34FF               	retlw	0FFh
    91  02C9  34FF               	retlw	0FFh
    92  02CA  34FF               	retlw	0FFh
    93  02CB  34FF               	retlw	0FFh
    94  02CC  34FF               	retlw	0FFh
    95  02CD  34EE               	retlw	0EEh
    96  02CE  343E               	retlw	03Eh
    97  02CF  349C               	retlw	09Ch
    98  02D0  347A               	retlw	07Ah
    99  02D1  349E               	retlw	09Eh
   100  02D2  348E               	retlw	08Eh
   101  02D3  3400               	retlw	0
   102  02D4  3400               	retlw	0
   103                           	line	15
   104                           
   105                           ;initializer for _cnt
   106  02D5  3443               	retlw	043h
   107  02D6  344F               	retlw	04Fh
   108  02D7  3455               	retlw	055h
   109  02D8  344E               	retlw	04Eh
   110  02D9  3454               	retlw	054h
   111  02DA  3445               	retlw	045h
   112  02DB  3452               	retlw	052h
   113  02DC  3400               	retlw	0
   114  02DD  3400               	retlw	0
   115  02DE  3400               	retlw	0
   116                           	line	17
   117                           
   118                           ;initializer for _ds3
   119  02DF  3430               	retlw	030h
   120                           
   121                           ;initializer for _ds1
   122                           psect	idataCOMMON,class=CODE,space=0,delta=2
   123                           global __pidataCOMMON
   124  0363                     __pidataCOMMON:
   125  0363  3430               	retlw	030h
   126                           
   127                           ;initializer for _ds2
   128  0364  3430               	retlw	030h
   129                           
   130                           ;initializer for _ds4
   131  0365  3430               	retlw	030h
   132                           	global	_i
   133                           	global	_k
   134                           	global	_scan_no
   135                           	global	_cmd_data
   136                           	global	_ADCON0
   137  001F                     _ADCON0  equ     31
   138                           	global	_ADRESH
   139  001E                     _ADRESH  equ     30
   140                           	global	_CCP1CON
   141  0017                     _CCP1CON  equ     23
   142                           	global	_CCP2CON
   143  001D                     _CCP2CON  equ     29
   144                           	global	_CCPR1H
   145  0016                     _CCPR1H  equ     22
   146                           	global	_CCPR1L
   147  0015                     _CCPR1L  equ     21
   148                           	global	_CCPR2H
   149  001C                     _CCPR2H  equ     28
   150                           	global	_CCPR2L
   151  001B                     _CCPR2L  equ     27
   152                           	global	_FSR
   153  0004                     _FSR  equ     4
   154                           	global	_INDF
   155  0000                     _INDF  equ     0
   156                           	global	_INTCON
   157  000B                     _INTCON  equ     11
   158                           	global	_PCL
   159  0002                     _PCL  equ     2
   160                           	global	_PCLATH
   161  000A                     _PCLATH  equ     10
   162                           	global	_PIR1
   163  000C                     _PIR1  equ     12
   164                           	global	_PIR2
   165  000D                     _PIR2  equ     13
   166                           	global	_PORTA
   167  0005                     _PORTA  equ     5
   168                           	global	_PORTB
   169  0006                     _PORTB  equ     6
   170                           	global	_PORTC
   171  0007                     _PORTC  equ     7
   172                           	global	_RCREG
   173  001A                     _RCREG  equ     26
   174                           	global	_RCSTA
   175  0018                     _RCSTA  equ     24
   176                           	global	_SSPBUF
   177  0013                     _SSPBUF  equ     19
   178                           	global	_SSPCON
   179  0014                     _SSPCON  equ     20
   180                           	global	_STATUS
   181  0003                     _STATUS  equ     3
   182                           	global	_T1CON
   183  0010                     _T1CON  equ     16
   184                           	global	_T2CON
   185  0012                     _T2CON  equ     18
   186                           	global	_TMR0
   187  0001                     _TMR0  equ     1
   188                           	global	_TMR1H
   189  000F                     _TMR1H  equ     15
   190                           	global	_TMR1L
   191  000E                     _TMR1L  equ     14
   192                           	global	_TMR2
   193  0011                     _TMR2  equ     17
   194                           	global	_TXREG
   195  0019                     _TXREG  equ     25
   196                           	global	_ADCS0
   197  00FE                     _ADCS0  equ     254
   198                           	global	_ADCS1
   199  00FF                     _ADCS1  equ     255
   200                           	global	_ADDEN
   201  00C3                     _ADDEN  equ     195
   202                           	global	_ADGO
   203  00FA                     _ADGO  equ     250
   204                           	global	_ADIF
   205  0066                     _ADIF  equ     102
   206                           	global	_ADON
   207  00F8                     _ADON  equ     248
   208                           	global	_BCLIF
   209  006B                     _BCLIF  equ     107
   210                           	global	_CARRY
   211  0018                     _CARRY  equ     24
   212                           	global	_CCP1IF
   213  0062                     _CCP1IF  equ     98
   214                           	global	_CCP1M0
   215  00B8                     _CCP1M0  equ     184
   216                           	global	_CCP1M1
   217  00B9                     _CCP1M1  equ     185
   218+                          	global	_CCP1M2
   219+ 00BA                     _CCP1M2  equ     186
   220+                          	global	_CCP1M3
   221+ 00BB                     _CCP1M3  equ     187
   222                           	global	_CCP1X
   223  00BD                     _CCP1X  equ     189
   224+                          	global	_CCP1Y
   225+ 00BC                     _CCP1Y  equ     188
   226                           	global	_CCP2IF
   227  0068                     _CCP2IF  equ     104
   228+                          	global	_CCP2M0
   229+ 00E8                     _CCP2M0  equ     232
   230                           	global	_CCP2M1
   231  00E9                     _CCP2M1  equ     233
   232+                          	global	_CCP2M2
   233+ 00EA                     _CCP2M2  equ     234
   234+                          	global	_CCP2M3
   235+ 00EB                     _CCP2M3  equ     235
   236+                          	global	_CCP2X
   237+ 00ED                     _CCP2X  equ     237
   238+                          	global	_CCP2Y
   239+ 00EC                     _CCP2Y  equ     236
   240+                          	global	_CHS0
   241+ 00FB                     _CHS0  equ     251
   242                           	global	_CHS1
   243  00FC                     _CHS1  equ     252
   244                           	global	_CHS2
   245  00FD                     _CHS2  equ     253
   246+                          	global	_CKP
   247+ 00A4                     _CKP  equ     164
   248+                          	global	_CMIF
   249+ 006E                     _CMIF  equ     110
   250                           	global	_CREN
   251  00C4                     _CREN  equ     196
   252+                          	global	_DC
   253+ 0019                     _DC  equ     25
   254                           	global	_EEIF
   255  006C                     _EEIF  equ     108
   256+                          	global	_FERR
   257+ 00C2                     _FERR  equ     194
   258                           	global	_GIE
   259  005F                     _GIE  equ     95
   260+                          	global	_GODONE
   261+ 00FA                     _GODONE  equ     250
   262+                          	global	_INTE
   263+ 005C                     _INTE  equ     92
   264+                          	global	_INTF
   265+ 0059                     _INTF  equ     89
   266+                          	global	_IRP
   267+ 001F                     _IRP  equ     31
   268+                          	global	_OERR
   269+ 00C1                     _OERR  equ     193
   270                           	global	_PD
   271  001B                     _PD  equ     27
   272+                          	global	_PEIE
   273+ 005E                     _PEIE  equ     94
   274+                          	global	_RA0
   275+ 0028                     _RA0  equ     40
   276+                          	global	_RA1
   277+ 0029                     _RA1  equ     41
   278+                          	global	_RA2
   279+ 002A                     _RA2  equ     42
   280+                          	global	_RA3
   281+ 002B                     _RA3  equ     43
   282                           	global	_RA4
   283  002C                     _RA4  equ     44
   284+                          	global	_RA5
   285+ 002D                     _RA5  equ     45
   286                           	global	_RB0
   287  0030                     _RB0  equ     48
   288+                          	global	_RB1
   289+ 0031                     _RB1  equ     49
   290+                          	global	_RB2
   291+ 0032                     _RB2  equ     50
   292+                          	global	_RB3
   293+ 0033                     _RB3  equ     51
   294+                          	global	_RB4
   295+ 0034                     _RB4  equ     52
   296+                          	global	_RB5
   297+ 0035                     _RB5  equ     53
   298                           	global	_RB6
   299  0036                     _RB6  equ     54
   300+                          	global	_RB7
   301+ 0037                     _RB7  equ     55
   302+                          	global	_RBIE
   303+ 005B                     _RBIE  equ     91
   304+                          	global	_RBIF
   305+ 0058                     _RBIF  equ     88
   306+                          	global	_RC0
   307+ 0038                     _RC0  equ     56
   308+                          	global	_RC1
   309+ 0039                     _RC1  equ     57
   310                           	global	_RC2
   311  003A                     _RC2  equ     58
   312+                          	global	_RC3
   313+ 003B                     _RC3  equ     59
   314                           	global	_RC4
   315  003C                     _RC4  equ     60
   316+                          	global	_RC5
   317+ 003D                     _RC5  equ     61
   318+                          	global	_RC6
   319+ 003E                     _RC6  equ     62
   320+                          	global	_RC7
   321+ 003F                     _RC7  equ     63
   322+                          	global	_RCIF
   323+ 0065                     _RCIF  equ     101
   324+                          	global	_RP0
   325+ 001D                     _RP0  equ     29
   326                           	global	_RP1
   327  001E                     _RP1  equ     30
   328+                          	global	_RX9
   329+ 00C6                     _RX9  equ     198
   330+                          	global	_RX9D
   331+ 00C0                     _RX9D  equ     192
   332+                          	global	_SPEN
   333+ 00C7                     _SPEN  equ     199
   334+                          	global	_SREN
   335+ 00C5                     _SREN  equ     197
   336+                          	global	_SSPEN
   337+ 00A5                     _SSPEN  equ     165
   338                           	global	_SSPIF
   339  0063                     _SSPIF  equ     99
   340+                          	global	_SSPM0
   341+ 00A0                     _SSPM0  equ     160
   342                           	global	_SSPM1
   343  00A1                     _SSPM1  equ     161
   344+                          	global	_SSPM2
   345+ 00A2                     _SSPM2  equ     162
   346+                          	global	_SSPM3
   347+ 00A3                     _SSPM3  equ     163
   348+                          	global	_SSPOV
   349+ 00A6                     _SSPOV  equ     166
   350+                          	global	_T0IE
   351+ 005D                     _T0IE  equ     93
   352+                          	global	_T0IF
   353+ 005A                     _T0IF  equ     90
   354                           	global	_T1CKPS0
   355  0084                     _T1CKPS0  equ     132
   356+                          	global	_T1CKPS1
   357+ 0085                     _T1CKPS1  equ     133
   358+                          	global	_T1OSCEN
   359+ 0083                     _T1OSCEN  equ     131
   360+                          	global	_T1SYNC
   361+ 0082                     _T1SYNC  equ     130
   362+                          	global	_T2CKPS0
   363+ 0090                     _T2CKPS0  equ     144
   364+                          	global	_T2CKPS1
   365+ 0091                     _T2CKPS1  equ     145
   366                           	global	_TMR0IE
   367  005D                     _TMR0IE  equ     93
   368+                          	global	_TMR0IF
   369+ 005A                     _TMR0IF  equ     90
   370                           	global	_TMR1CS
   371  0081                     _TMR1CS  equ     129
   372+                          	global	_TMR1IF
   373+ 0060                     _TMR1IF  equ     96
   374+                          	global	_TMR1ON
   375+ 0080                     _TMR1ON  equ     128
   376+                          	global	_TMR2IF
   377+ 0061                     _TMR2IF  equ     97
   378+                          	global	_TMR2ON
   379+ 0092                     _TMR2ON  equ     146
   380+                          	global	_TO
   381+ 001C                     _TO  equ     28
   382                           	global	_TOUTPS0
   383  0093                     _TOUTPS0  equ     147
   384                           	global	_TOUTPS1
   385  0094                     _TOUTPS1  equ     148
   386+                          	global	_TOUTPS2
   387+ 0095                     _TOUTPS2  equ     149
   388+                          	global	_TOUTPS3
   389+ 0096                     _TOUTPS3  equ     150
   390                           	global	_TXIF
   391  0064                     _TXIF  equ     100
   392+                          	global	_WCOL
   393+ 00A7                     _WCOL  equ     167
   394                           	global	_ZERO
   395  001A                     _ZERO  equ     26
   396+                          	global	_ADCON1
   397+ 009F                     _ADCON1  equ     159
   398                           	global	_ADRESL
   399  009E                     _ADRESL  equ     158
   400+                          	global	_CMCON
   401+ 009C                     _CMCON  equ     156
   402+                          	global	_CVRCON
   403+ 009D                     _CVRCON  equ     157
   404+                          	global	_OPTION
   405+ 0081                     _OPTION  equ     129
   406+                          	global	_PCON
   407+ 008E                     _PCON  equ     142
   408+                          	global	_PIE1
   409+ 008C                     _PIE1  equ     140
   410                           	global	_PIE2
   411  008D                     _PIE2  equ     141
   412+                          	global	_PR2
   413+ 0092                     _PR2  equ     146
   414+                          	global	_SPBRG
   415+ 0099                     _SPBRG  equ     153
   416                           	global	_SSPADD
   417  0093                     _SSPADD  equ     147
   418+                          	global	_SSPCON2
   419+ 0091                     _SSPCON2  equ     145
   420+                          	global	_SSPSTAT
   421+ 0094                     _SSPSTAT  equ     148
   422+                          	global	_TRISA
   423+ 0085                     _TRISA  equ     133
   424+                          	global	_TRISB
   425+ 0086                     _TRISB  equ     134
   426                           	global	_TRISC
   427  0087                     _TRISC  equ     135
   428+                          	global	_TXSTA
   429+ 0098                     _TXSTA  equ     152
   430                           	global	_ACKDT
   431  048D                     _ACKDT  equ     1165
   432+                          	global	_ACKEN
   433+ 048C                     _ACKEN  equ     1164
   434+                          	global	_ACKSTAT
   435+ 048E                     _ACKSTAT  equ     1166
   436+                          	global	_ADCS2
   437+ 04FE                     _ADCS2  equ     1278
   438+                          	global	_ADFM
   439+ 04FF                     _ADFM  equ     1279
   440+                          	global	_ADIE
   441+ 0466                     _ADIE  equ     1126
   442                           	global	_BCLIE
   443  046B                     _BCLIE  equ     1131
   444+                          	global	_BF
   445+ 04A0                     _BF  equ     1184
   446+                          	global	_BOR
   447+ 0470                     _BOR  equ     1136
   448+                          	global	_BRGH
   449+ 04C2                     _BRGH  equ     1218
   450+                          	global	_C1INV
   451+ 04E4                     _C1INV  equ     1252
   452+                          	global	_C1OUT
   453+ 04E6                     _C1OUT  equ     1254
   454                           	global	_C2INV
   455  04E5                     _C2INV  equ     1253
   456+                          	global	_C2OUT
   457+ 04E7                     _C2OUT  equ     1255
   458                           	global	_CCP1IE
   459  0462                     _CCP1IE  equ     1122
   460+                          	global	_CCP2IE
   461+ 0468                     _CCP2IE  equ     1128
   462+                          	global	_CIS
   463+ 04E3                     _CIS  equ     1251
   464+                          	global	_CKE
   465+ 04A6                     _CKE  equ     1190
   466+                          	global	_CM0
   467+ 04E0                     _CM0  equ     1248
   468+                          	global	_CM1
   469+ 04E1                     _CM1  equ     1249
   470                           	global	_CM2
   471  04E2                     _CM2  equ     1250
   472+                          	global	_CMIE
   473+ 046E                     _CMIE  equ     1134
   474+                          	global	_CSRC
   475+ 04C7                     _CSRC  equ     1223
   476+                          	global	_CVR0
   477+ 04E8                     _CVR0  equ     1256
   478+                          	global	_CVR1
   479+ 04E9                     _CVR1  equ     1257
   480+                          	global	_CVR2
   481+ 04EA                     _CVR2  equ     1258
   482                           	global	_CVR3
   483  04EB                     _CVR3  equ     1259
   484+                          	global	_CVREN
   485+ 04EF                     _CVREN  equ     1263
   486                           	global	_CVROE
   487  04EE                     _CVROE  equ     1262
   488+                          	global	_CVRR
   489+ 04ED                     _CVRR  equ     1261
   490+                          	global	_DA
   491+ 04A5                     _DA  equ     1189
   492+                          	global	_EEIE
   493+ 046C                     _EEIE  equ     1132
   494+                          	global	_GCEN
   495+ 048F                     _GCEN  equ     1167
   496+                          	global	_INTEDG
   497+ 040E                     _INTEDG  equ     1038
   498                           	global	_PCFG0
   499  04F8                     _PCFG0  equ     1272
   500+                          	global	_PCFG1
   501+ 04F9                     _PCFG1  equ     1273
   502+                          	global	_PCFG2
   503+ 04FA                     _PCFG2  equ     1274
   504+                          	global	_PCFG3
   505+ 04FB                     _PCFG3  equ     1275
   506+                          	global	_PEN
   507+ 048A                     _PEN  equ     1162
   508+                          	global	_POR
   509+ 0471                     _POR  equ     1137
   510                           	global	_PS0
   511  0408                     _PS0  equ     1032
   512+                          	global	_PS1
   513+ 0409                     _PS1  equ     1033
   514                           	global	_PS2
   515  040A                     _PS2  equ     1034
   516+                          	global	_PSA
   517+ 040B                     _PSA  equ     1035
   518+                          	global	_RBPU
   519+ 040F                     _RBPU  equ     1039
   520+                          	global	_RCEN
   521+ 048B                     _RCEN  equ     1163
   522+                          	global	_RCIE
   523+ 0465                     _RCIE  equ     1125
   524+                          	global	_RSEN
   525+ 0489                     _RSEN  equ     1161
   526                           	global	_RW
   527  04A2                     _RW  equ     1186
   528                           	global	_SEN
   529  0488                     _SEN  equ     1160
   530+                          	global	_SMP
   531+ 04A7                     _SMP  equ     1191
   532+                          	global	_SSPIE
   533+ 0463                     _SSPIE  equ     1123
   534                           	global	_START
   535  04A3                     _START  equ     1187
   536+                          	global	_STOP
   537+ 04A4                     _STOP  equ     1188
   538                           	global	_SYNC
   539  04C4                     _SYNC  equ     1220
   540+                          	global	_T0CS
   541+ 040D                     _T0CS  equ     1037
   542                           	global	_T0SE
   543  040C                     _T0SE  equ     1036
   544+                          	global	_TMR1IE
   545+ 0460                     _TMR1IE  equ     1120
   546+                          	global	_TMR2IE
   547+ 0461                     _TMR2IE  equ     1121
   548+                          	global	_TRISA0
   549+ 0428                     _TRISA0  equ     1064
   550+                          	global	_TRISA1
   551+ 0429                     _TRISA1  equ     1065
   552+                          	global	_TRISA2
   553+ 042A                     _TRISA2  equ     1066
   554                           	global	_TRISA3
   555  042B                     _TRISA3  equ     1067
   556                           	global	_TRISA4
   557  042C                     _TRISA4  equ     1068
   558+                          	global	_TRISA5
   559+ 042D                     _TRISA5  equ     1069
   560+                          	global	_TRISB0
   561+ 0430                     _TRISB0  equ     1072
   562                           	global	_TRISB1
   563  0431                     _TRISB1  equ     1073
   564+                          	global	_TRISB2
   565+ 0432                     _TRISB2  equ     1074
   566                           	global	_TRISB3
   567  0433                     _TRISB3  equ     1075
   568+                          	global	_TRISB4
   569+ 0434                     _TRISB4  equ     1076
   570                           	global	_TRISB5
   571  0435                     _TRISB5  equ     1077
   572+                          	global	_TRISB6
   573+ 0436                     _TRISB6  equ     1078
   574+                          	global	_TRISB7
   575+ 0437                     _TRISB7  equ     1079
   576+                          	global	_TRISC0
   577+ 0438                     _TRISC0  equ     1080
   578+                          	global	_TRISC1
   579+ 0439                     _TRISC1  equ     1081
   580+                          	global	_TRISC2
   581+ 043A                     _TRISC2  equ     1082
   582                           	global	_TRISC3
   583  043B                     _TRISC3  equ     1083
   584+                          	global	_TRISC4
   585+ 043C                     _TRISC4  equ     1084
   586+                          	global	_TRISC5
   587+ 043D                     _TRISC5  equ     1085
   588+                          	global	_TRISC6
   589+ 043E                     _TRISC6  equ     1086
   590+                          	global	_TRISC7
   591+ 043F                     _TRISC7  equ     1087
   592+                          	global	_TRMT
   593+ 04C1                     _TRMT  equ     1217
   594                           	global	_TX9
   595  04C6                     _TX9  equ     1222
   596+                          	global	_TX9D
   597+ 04C0                     _TX9D  equ     1216
   598                           	global	_TXEN
   599  04C5                     _TXEN  equ     1221
   600+                          	global	_TXIE
   601+ 0464                     _TXIE  equ     1124
   602+                          	global	_UA
   603+ 04A1                     _UA  equ     1185
   604+                          	global	_EEADR
   605+ 010D                     _EEADR  equ     269
   606+                          	global	_EEADRH
   607+ 010F                     _EEADRH  equ     271
   608+                          	global	_EEADRL
   609+ 010D                     _EEADRL  equ     269
   610                           	global	_EEDATA
   611  010C                     _EEDATA  equ     268
   612+                          	global	_EEDATH
   613+ 010E                     _EEDATH  equ     270
   614+                          	global	_EECON1
   615+ 018C                     _EECON1  equ     396
   616                           	global	_EECON2
   617  018D                     _EECON2  equ     397
   618                           	global	_EEPGD
   619  0C67                     _EEPGD  equ     3175
   620                           	global	_RD
   621  0C60                     _RD  equ     3168
   622                           	global	_WR
   623  0C61                     _WR  equ     3169
   624                           	global	_WREN
   625  0C62                     _WREN  equ     3170
   626                           	global	_WRERR
   627  0C63                     _WRERR  equ     3171
   628                           	file	"T8.as"
   629                           	line	#
   630                           psect cinit,class=CODE,delta=2
   631                           global start_initialization
   632  0296                     start_initialization:
   633                           
   634                           psect	bssCOMMON,class=COMMON,space=1
   635                           global __pbssCOMMON
   636  0079                     __pbssCOMMON:
   637  0079                     _cmd_data:
   638  0079                            ds      1
   639                           
   640                           psect	dataCOMMON,class=COMMON,space=1
   641                           global __pdataCOMMON
   642  0076                     __pdataCOMMON:
   643                           	file	"D:\ABHISHEK JOSHI\PIC\LCD\T8\LCD T8.C"
   644                           	line	17
   645  0076                     _ds1:
   646  0076                            ds      1
   647                           
   648                           psect	dataCOMMON
   649                           	file	"D:\ABHISHEK JOSHI\PIC\LCD\T8\LCD T8.C"
   650                           	line	17
   651  0077                     _ds2:
   652  0077                            ds      1
   653                           
   654                           psect	dataCOMMON
   655                           	file	"D:\ABHISHEK JOSHI\PIC\LCD\T8\LCD T8.C"
   656                           	line	17
   657  0078                     _ds4:
   658  0078                            ds      1
   659                           
   660                           psect	bssBANK0,class=BANK0,space=1
   661                           global __pbssBANK0
   662  004C                     __pbssBANK0:
   663  004C                     _i:
   664  004C                            ds      2
   665                           
   666  004E                     _k:
   667  004E                            ds      2
   668                           
   669  0050                     _scan_no:
   670  0050                            ds      2
   671                           
   672                           psect	dataBANK0,class=BANK0,space=1
   673                           global __pdataBANK0
   674  0020                     __pdataBANK0:
   675                           	file	"D:\ABHISHEK JOSHI\PIC\LCD\T8\LCD T8.C"
   676                           	line	16
   677  0020                     _disp:
   678  0020                            ds      25
   679                           
   680                           psect	dataBANK0
   681                           	file	"D:\ABHISHEK JOSHI\PIC\LCD\T8\LCD T8.C"
   682                           	line	15
   683  0039                     _cnt:
   684  0039                            ds      10
   685                           
   686                           psect	dataBANK0
   687                           	file	"D:\ABHISHEK JOSHI\PIC\LCD\T8\LCD T8.C"
   688                           	line	17
   689  0043                     _ds3:
   690  0043                            ds      1
   691                           
   692                           ; Clear objects allocated to COMMON
   693                           psect cinit,class=CODE,delta=2
   694  0296  01F9               	clrf	((__pbssCOMMON)+0)&07Fh
   695                           ; Clear objects allocated to BANK0
   696                           psect cinit,class=CODE,delta=2
   697  0297  01CC               	clrf	((__pbssBANK0)+0)&07Fh
   698  0298  01CD               	clrf	((__pbssBANK0)+1)&07Fh
   699  0299  01CE               	clrf	((__pbssBANK0)+2)&07Fh
   700  029A  01CF               	clrf	((__pbssBANK0)+3)&07Fh
   701  029B  01D0               	clrf	((__pbssBANK0)+4)&07Fh
   702  029C  01D1               	clrf	((__pbssBANK0)+5)&07Fh
   703                           global btemp
   704                           psect inittext,class=CODE,delta=2
   705                           global init_fetch,btemp
   706                           ;	Called with low address in FSR and high address in W
   707  0318                     init_fetch:
   708  0318  087E               	movf btemp,w
   709  0319  008A               	movwf pclath
   710  031A  087F               	movf btemp+1,w
   711  031B  0082               	movwf pc
   712                           global init_ram
   713                           ;Called with:
   714                           ;	high address of idata address in btemp 
   715                           ;	low address of idata address in btemp+1 
   716                           ;	low address of data in FSR
   717                           ;	high address + 1 of data in btemp-1
   718  031C                     init_ram:
   719  031C  2318  120A  118A   	fcall init_fetch
   720  031F  0080               	movwf indf,f
   721  0320  0A84               	incf fsr,f
   722  0321  0804               	movf fsr,w
   723  0322  067D               	xorwf btemp-1,w
   724  0323  1903               	btfsc status,2
   725  0324  3400               	retlw 0
   726  0325  0AFF               	incf btemp+1,f
   727  0326  1903               	btfsc status,2
   728  0327  0AFE               	incf btemp,f
   729  0328  2B1C               	goto init_ram
   730                           ; Initialize objects allocated to COMMON
   731                           psect cinit,class=CODE,delta=2
   732                           global init_ram, __pidataCOMMON
   733  029D  3079               	movlw low(__pdataCOMMON+3)
   734  029E  00FD               	movwf btemp-1,f
   735  029F  3003               	movlw high(__pidataCOMMON)
   736  02A0  00FE               	movwf btemp,f
   737  02A1  3063               	movlw low(__pidataCOMMON)
   738  02A2  00FF               	movwf btemp+1,f
   739  02A3  3076               	movlw low(__pdataCOMMON)
   740  02A4  0084               	movwf fsr,f
   741  02A5  120A  118A  231C   	fcall init_ram
              120A  118A         
   742                           ; Initialize objects allocated to BANK0
   743                           psect cinit,class=CODE,delta=2
   744                           global init_ram, __pidataBANK0
   745  02AA  1383               	bcf	status, 7	;select IRP bank0
   746  02AB  3044               	movlw low(__pdataBANK0+36)
   747  02AC  00FD               	movwf btemp-1,f
   748  02AD  3002               	movlw high(__pidataBANK0)
   749  02AE  00FE               	movwf btemp,f
   750  02AF  30BC               	movlw low(__pidataBANK0)
   751  02B0  00FF               	movwf btemp+1,f
   752  02B1  3020               	movlw low(__pdataBANK0)
   753  02B2  0084               	movwf fsr,f
   754  02B3  120A  118A  231C   	fcall init_ram
              120A  118A         
   755                           psect cinit,class=CODE,delta=2
   756                           global end_of_initialization
   757                           
   758                           ;End of C runtime variable initationation code
   759                           
   760  02B8                     end_of_initialization:
   761  02B8  0183               clrf status
   762  02B9  120A  118A  2948   ljmp _main	;jump to C main() function
   763                           psect	cstackCOMMON,class=COMMON,space=1
   764                           global __pcstackCOMMON
   765  0070                     __pcstackCOMMON:
   766                           	global	?_init_timer
   767  0070                     ?_init_timer: ;@ 0x0
   768                           	global	??_init_timer
   769  0070                     ??_init_timer: ;@ 0x0
   770                           	global	?_incrementd
   771  0070                     ?_incrementd: ;@ 0x0
   772                           	global	??_incrementd
   773  0070                     ??_incrementd: ;@ 0x0
   774                           	global	?_toggle
   775  0070                     ?_toggle: ;@ 0x0
   776                           	global	??_toggle
   777  0070                     ??_toggle: ;@ 0x0
   778                           	global	??_lcd_delay
   779  0070                     ??_lcd_delay: ;@ 0x0
   780                           	global	??_data_mapping
   781  0070                     ??_data_mapping: ;@ 0x0
   782                           	global	??_init
   783  0070                     ??_init: ;@ 0x0
   784                           	global	?_init
   785  0070                     ?_init: ;@ 0x0
   786                           	global	??_delay
   787  0070                     ??_delay: ;@ 0x0
   788  0070                     	ds	1
   789                           	global	data_mapping@var_data1
   790  0071                     data_mapping@var_data1:	; 1 bytes @ 0x1
   791                           	global	delay@d1
   792  0071                     delay@d1:	; 2 bytes @ 0x1
   793  0071                     	ds	1
   794                           	global	??_data_wr
   795  0072                     ??_data_wr: ;@ 0x2
   796                           	global	??_cmd_wr
   797  0072                     ??_cmd_wr: ;@ 0x2
   798                           	global	?_data_mapping
   799  0072                     ?_data_mapping: ;@ 0x2
   800                           	global	??_lcd_disp
   801  0072                     ??_lcd_disp: ;@ 0x2
   802  0072                     	ds	1
   803                           	global	??_init_lcd
   804  0073                     ??_init_lcd: ;@ 0x3
   805                           	global	?_lcd_delay
   806  0073                     ?_lcd_delay: ;@ 0x3
   807                           	global	cmd_wr@var_data
   808  0073                     cmd_wr@var_data:	; 1 bytes @ 0x3
   809                           	global	data_wr@var_data
   810  0073                     data_wr@var_data:	; 1 bytes @ 0x3
   811                           	global	lcd_delay@x
   812  0073                     lcd_delay@x:	; 2 bytes @ 0x3
   813                           	global	delay@d2
   814  0073                     delay@d2:	; 2 bytes @ 0x3
   815  0073                     	ds	1
   816                           	global	?_data_wr
   817  0074                     ?_data_wr: ;@ 0x4
   818                           	global	?_cmd_wr
   819  0074                     ?_cmd_wr: ;@ 0x4
   820                           	global	?_lcd_disp
   821  0074                     ?_lcd_disp: ;@ 0x4
   822  0074                     	ds	1
   823                           	global	?_init_lcd
   824  0075                     ?_init_lcd: ;@ 0x5
   825                           	global	??_main
   826  0075                     ??_main: ;@ 0x5
   827  0075                     	ds	1
   828                           	global	?_main
   829  0076                     ?_main: ;@ 0x6
   830                           psect	cstackBANK0,class=BANK0,space=1
   831                           global __pcstackBANK0
   832  0044                     __pcstackBANK0:
   833                           	global	?_delay
   834  0044                     ?_delay: ;@ 0x0
   835                           	global	delay@del
   836  0044                     delay@del:	; 2 bytes @ 0x0
   837                           	global	lcd_delay@i
   838  0044                     lcd_delay@i:	; 2 bytes @ 0x0
   839  0044                     	ds	2
   840                           	global	lcd_delay@j
   841  0046                     lcd_delay@j:	; 2 bytes @ 0x2
   842  0046                     	ds	2
   843                           	global	??_scanner
   844  0048                     ??_scanner: ;@ 0x4
   845                           	global	?i1_init_timer
   846  0048                     ?i1_init_timer: ;@ 0x4
   847                           	global	??i1_init_timer
   848  0048                     ??i1_init_timer: ;@ 0x4
   849                           	global	??_isr_t0
   850  0048                     ??_isr_t0: ;@ 0x4
   851                           	global	?_scanner
   852  0048                     ?_scanner: ;@ 0x4
   853  0048                     	ds	4
   854                           	global	?_isr_t0
   855  004C                     ?_isr_t0: ;@ 0x8
   856                           ;Data sizes: Strings 0, constant 0, data 39, bss 7, persistent 0 stack 0
   857                           ;Auto spaces:   Size  Autos    Used
   858                           ; COMMON          14      6      10
   859                           ; BANK0           80      8      50
   860                           ; BANK1           80      0       0
   861                           ; BANK3           96      0       0
   862                           ; BANK2           96      0       0
   863                           
   864                           
   865                           ;Pointer list with targets:
   866                           
   867                           
   868                           
   869                           ;Main: autosize = 0, tempsize = 1, incstack = 0, save=0
   870                           
   871                           
   872                           ;Call graph:                      Base Space Used Autos Args Refs Density
   873                           ;_main                                                1    0  541   0.00
   874                           ;                                    5 COMMO    1
   875                           ;           _init_lcd
   876                           ;               _init
   877                           ;             _cmd_wr
   878                           ;            _data_wr
   879                           ;           _lcd_disp
   880                           ;              _delay
   881                           ;         _incrementd
   882                           ;  _delay                                             5    2  108   0.00
   883                           ;                                    0 COMMO    5
   884                           ;                                    0 BANK0    2
   885                           ;  _init                                              0    0    0   0.00
   886                           ;         _init_timer
   887                           ;  _lcd_disp                                          0    0  130   0.00
   888                           ;             _cmd_wr
   889                           ;            _data_wr
   890                           ;  _incrementd                                        0    0    0   0.00
   891                           ;  _init_lcd                                          0    0  173   0.00
   892                           ;          _lcd_delay
   893                           ;             _cmd_wr
   894                           ;    _data_wr                                         2    0   65   0.00
   895                           ;                                    2 COMMO    2
   896                           ;       _data_mapping
   897                           ;             _toggle
   898                           ;    _init_timer                                      0    0    0   0.00
   899                           ;    _cmd_wr                                          2    0   65   0.00
   900                           ;                                    2 COMMO    2
   901                           ;       _data_mapping
   902                           ;             _toggle
   903                           ;    _lcd_delay                                       7    2  108   0.00
   904                           ;                                    0 COMMO    5
   905                           ;                                    0 BANK0    4
   906                           ;      _data_mapping                                  2    0   16   0.00
   907                           ;                                    0 COMMO    2
   908                           ;      _toggle                                        0    0    0   0.00
   909                           ; Estimated maximum call depth 3
   910                           ;_isr_t0                                              4    0    0   0.00
   911                           ;                                    4 BANK0    4
   912                           ;       i1_init_timer
   913                           ;            _scanner
   914                           ;  _scanner                                           0    0    0   0.00
   915                           ;  i1_init_timer                                      0    0    0   0.00
   916                           ; Estimated maximum call depth 1
   917                           ; Address spaces:
   918                           
   919                           ;Name               Size   Autos  Total    Cost      Usage
   920                           ;BITCOMMON            E      0       0       0        0.0%
   921                           ;CODE                 0      0       0       0        0.0%
   922                           ;NULL                 0      0       0       0        0.0%
   923                           ;COMMON               E      6       A       1       71.4%
   924                           ;SFR0                 0      0       0       1        0.0%
   925                           ;BITSFR0              0      0       0       1        0.0%
   926                           ;BITSFR1              0      0       0       2        0.0%
   927                           ;SFR1                 0      0       0       2        0.0%
   928                           ;ABS                  0      0      3C       2        0.0%
   929                           ;STACK                0      0       0       3        0.0%
   930                           ;BITBANK0            50      0       0       4        0.0%
   931                           ;SFR3                 0      0       0       4        0.0%
   932                           ;BITSFR3              0      0       0       4        0.0%
   933                           ;BANK0               50      8      32       5       62.5%
   934                           ;BITSFR2              0      0       0       5        0.0%
   935                           ;SFR2                 0      0       0       5        0.0%
   936                           ;BITBANK1            50      0       0       6        0.0%
   937                           ;BANK1               50      0       0       7        0.0%
   938                           ;BITBANK3            60      0       0       8        0.0%
   939                           ;BANK3               60      0       0       9        0.0%
   940                           ;BITBANK2            60      0       0      10        0.0%
   941                           ;BANK2               60      0       0      11        0.0%
   942                           ;DATA                 0      0      3C      12        0.0%
   943                           ;EEDATA             100      0       0    1000        0.0%
   944                           
   945                           	global	_main
   946                           psect	maintext,local,class=CODE,delta=2
   947                           global __pmaintext
   948  0148                     __pmaintext:
   949                           
   950                           ; *************** function _main *****************
   951                           ; Defined at:
   952                           ;		line 49 in file "D:\ABHISHEK JOSHI\PIC\LCD\T8\LCD T8.C"
   953                           ; Parameters:    Size  Location     Type
   954                           ;		None
   955                           ; Auto vars:     Size  Location     Type
   956                           ;		None
   957                           ; Return value:  Size  Location     Type
   958                           ;		None               void
   959                           ; Registers used:
   960                           ;		wreg, fsr0l, fsr0h, fsr1l, fsr1h, status,2, status,0, btemp+0, btemp+1, btemp+2, btem
                                 p+3, pclath, cstack
   961                           ; Tracked objects:
   962                           ;		On entry : 17F/0
   963                           ;		On exit  : 0/0
   964                           ;		Unchanged: 0/0
   965                           ; Data sizes:     COMMON   BANK0   BANK1   BANK3   BANK2
   966                           ;      Locals:         1       0       0       0       0
   967                           ;      Temp:     1
   968                           ;      Total:    1
   969                           ; This function calls:
   970                           ;		_init_lcd
   971                           ;		_init
   972                           ;		_cmd_wr
   973                           ;		_data_wr
   974                           ;		_lcd_disp
   975                           ;		_delay
   976                           ;		_incrementd
   977                           ; This function is called by:
   978                           ;		Startup code after reset
   979                           ; This function uses a non-reentrant model
   980                           ; 
   981                           psect	maintext
   982                           	file	"D:\ABHISHEK JOSHI\PIC\LCD\T8\LCD T8.C"
   983                           	line	49
   984                           	global	__size_of_main
   985  0065                     	__size_of_main	equ	__end_of_main-_main
   986                           ;LCD T8.C: 48: void main()
   987                           ;LCD T8.C: 49: {
   988                           	
   989  0148                     _main:	
   990                           	opt stack 6
   991                           ; Regs used in _main: [allreg]
   992                           	line	50
   993                           	
   994  0148                     l30000583:	
   995                           ;LCD T8.C: 50: TRISB=0x00;
   996  0148  1003               	clrc
   997  0149  3000               	movlw	0
   998  014A  1803               	btfsc	status,0
   999  014B  3001               	movlw	1
  1000  014C  1683               	bsf	status, 5	;RP0=1, select bank1
  1001  014D  1303               	bcf	status, 6	;RP1=0, select bank1
  1002  014E  0086               	movwf	(134)^080h	;volatile
  1003                           	line	51
  1004                           ;LCD T8.C: 51: TRISA=0x00;
  1005  014F  1003               	clrc
  1006  0150  3000               	movlw	0
  1007  0151  1803               	btfsc	status,0
  1008  0152  3001               	movlw	1
  1009  0153  0085               	movwf	(133)^080h	;volatile
  1010                           	line	52
  1011                           ;LCD T8.C: 52: TRISC=0x00;
  1012  0154  1003               	clrc
  1013  0155  3000               	movlw	0
  1014  0156  1803               	btfsc	status,0
  1015  0157  3001               	movlw	1
  1016  0158  0087               	movwf	(135)^080h	;volatile
  1017                           	
  1018  0159                     l30000584:	
  1019                           	line	53
  1020                           ;LCD T8.C: 53: init_lcd();
  1021  0159  120A  118A  20B1   	fcall	_init_lcd
              120A  118A         
  1022                           	
  1023  015E                     l30000585:	
  1024                           	line	54
  1025                           ;LCD T8.C: 54: init();
  1026  015E  120A  118A  2347   	fcall	_init
              120A  118A         
  1027                           	
  1028  0163                     l30000586:	
  1029                           	line	55
  1030                           ;LCD T8.C: 55: GIE=1;
  1031  0163  1283               	bcf	status, 5	;RP0=0, select bank0
  1032  0164  1303               	bcf	status, 6	;RP1=0, select bank0
  1033  0165  178B               	bsf	(95/8),(95)&7
  1034                           	
  1035  0166                     l30000587:	
  1036                           	line	56
  1037                           ;LCD T8.C: 56: PEIE=1;
  1038  0166  170B               	bsf	(94/8),(94)&7
  1039                           	
  1040  0167                     l30000588:	
  1041                           	line	59
  1042                           ;LCD T8.C: 59: cmd_wr(0xC0);
  1043  0167  30C0               	movlw	(0C0h)
  1044  0168  120A  118A  2248   	fcall	_cmd_wr
              120A  118A         
  1045                           	
  1046  016D                     l30000589:	
  1047                           	line	60
  1048                           ;LCD T8.C: 60: for(i=0;i<=6;i++)
  1049  016D  3000               	movlw	low(0)
  1050  016E  1283               	bcf	status, 5	;RP0=0, select bank0
  1051  016F  1303               	bcf	status, 6	;RP1=0, select bank0
  1052  0170  00CC               	movwf	(_i)
  1053  0171  3000               	movlw	high(0)
  1054  0172  00CD               	movwf	((_i))+1
  1055                           	
  1056  0173                     l30000592:	
  1057                           	line	62
  1058                           ;LCD T8.C: 61: {
  1059                           ;LCD T8.C: 62: data_wr(cnt[i]);
  1060  0173  1283               	bcf	status, 5	;RP0=0, select bank0
  1061  0174  1303               	bcf	status, 6	;RP1=0, select bank0
  1062  0175  084C               	movf	(_i),w
  1063  0176  3E39               	addlw	(_cnt)&0ffh
  1064  0177  0084               	movwf	fsr0
  1065  0178  1383               	bcf	status, 7	;select IRP bank0
  1066  0179  0800               	movf	indf,w
  1067  017A  120A  118A  226F   	fcall	_data_wr
              120A  118A         
  1068                           	
  1069  017F                     l30000593:	
  1070                           	line	60
  1071  017F  3001               	movlw	low(01h)
  1072  0180  1283               	bcf	status, 5	;RP0=0, select bank0
  1073  0181  1303               	bcf	status, 6	;RP1=0, select bank0
  1074  0182  07CC               	addwf	(_i),f
  1075  0183  1803               	skipnc
  1076  0184  0ACD               	incf	(_i+1),f
  1077  0185  3000               	movlw	high(01h)
  1078  0186  07CD               	addwf	(_i+1),f
  1079                           	
  1080  0187                     l30000594:	
  1081  0187  084D               	movf	(_i+1),w
  1082  0188  3A80               	xorlw	80h
  1083  0189  00F5               	movwf	(??_main+0+0)
  1084  018A  3080               	movlw	(high(07h))^80h
  1085  018B  0275               	subwf	(??_main+0+0),w
  1086  018C  1D03               	skipz
  1087  018D  2990               	goto	u285
  1088  018E  3007               	movlw	low(07h)
  1089  018F  024C               	subwf	(_i),w
  1090  0190                     u285:
  1091                           
  1092  0190  1C03               	skipc
  1093  0191  2993               	goto	u281
  1094  0192  2994               	goto	u280
  1095  0193                     u281:
  1096  0193  2973               	goto	l30000592
  1097  0194                     u280:
  1098                           	
  1099  0194                     l30000595:	
  1100                           	line	66
  1101                           ;LCD T8.C: 65: {
  1102                           ;LCD T8.C: 66: lcd_disp();
  1103  0194  120A  118A  22E0   	fcall	_lcd_disp
              120A  118A         
  1104                           	
  1105  0199                     l30000596:	
  1106                           	line	67
  1107                           ;LCD T8.C: 67: delay(1000);
  1108  0199  30E8               	movlw	low(03E8h)
  1109  019A  1283               	bcf	status, 5	;RP0=0, select bank0
  1110  019B  1303               	bcf	status, 6	;RP1=0, select bank0
  1111  019C  00C4               	movwf	(?_delay)
  1112  019D  3003               	movlw	high(03E8h)
  1113  019E  00C5               	movwf	((?_delay))+1
  1114  019F  120A  118A  2219   	fcall	_delay
              120A  118A         
  1115                           	
  1116  01A4                     l30000597:	
  1117                           	line	68
  1118                           ;LCD T8.C: 68: incrementd();
  1119  01A4  120A  118A  21AD   	fcall	_incrementd
              120A  118A         
  1120  01A9  2994               	goto	l30000595
  1121                           	global	start
  1122  01AA  120A  118A  2812   	ljmp	start
  1123                           	opt stack 0
  1124                           GLOBAL	__end_of_main
  1125  01AD                     	__end_of_main:
  1126                           ; =============== function _main ends ============
  1127                           
  1128                           psect	maintext
  1129                           	line	71
  1130                           	signat	_main,88
  1131                           	global	_delay
  1132                           psect	text100,local,class=CODE,delta=2
  1133                           global __ptext100
  1134  0219                     __ptext100:
  1135                           
  1136                           ; *************** function _delay *****************
  1137                           ; Defined at:
  1138                           ;		line 184 in file "D:\ABHISHEK JOSHI\PIC\LCD\T8\LCD T8.C"
  1139                           ; Parameters:    Size  Location     Type
  1140                           ;  del             2    0[BANK0 ] unsigned int 
  1141                           ; Auto vars:     Size  Location     Type
  1142                           ;  d2              2    3[COMMON] int 
  1143                           ;  d1              2    1[COMMON] int 
  1144                           ; Return value:  Size  Location     Type
  1145                           ;		None               void
  1146                           ; Registers used:
  1147                           ;		wreg
  1148                           ; Tracked objects:
  1149                           ;		On entry : 0/0
  1150                           ;		On exit  : 0/0
  1151                           ;		Unchanged: 0/0
  1152                           ; Data sizes:     COMMON   BANK0   BANK1   BANK3   BANK2
  1153                           ;      Locals:         5       2       0       0       0
  1154                           ;      Temp:     1
  1155                           ;      Total:    7
  1156                           ; This function calls:
  1157                           ;		Nothing
  1158                           ; This function is called by:
  1159                           ;		_main
  1160                           ; This function uses a non-reentrant model
  1161                           ; 
  1162                           psect	text100
  1163                           	file	"D:\ABHISHEK JOSHI\PIC\LCD\T8\LCD T8.C"
  1164                           	line	184
  1165                           	global	__size_of_delay
  1166  002F                     	__size_of_delay	equ	__end_of_delay-_delay
  1167                           ;LCD T8.C: 183: void delay(unsigned int del)
  1168                           ;LCD T8.C: 184: {
  1169                           	
  1170  0219                     _delay:	
  1171                           	opt stack 5
  1172                           ; Regs used in _delay: [wreg]
  1173                           	line	186
  1174                           	
  1175  0219                     l30000598:	
  1176                           ;LCD T8.C: 185: int d1,d2;
  1177                           ;LCD T8.C: 186: for(d1=0;d1<=del;d1++)
  1178  0219  3000               	movlw	low(0)
  1179  021A  00F1               	movwf	(delay@d1)
  1180  021B  3000               	movlw	high(0)
  1181  021C  00F2               	movwf	((delay@d1))+1
  1182  021D  2A3B               	goto	l35
  1183                           	
  1184  021E                     l30000599:	
  1185                           	line	187
  1186                           ;LCD T8.C: 187: for(d2=0;d2<=120;d2++);
  1187  021E  3000               	movlw	low(0)
  1188  021F  00F3               	movwf	(delay@d2)
  1189  0220  3000               	movlw	high(0)
  1190  0221  00F4               	movwf	((delay@d2))+1
  1191                           	
  1192  0222                     l30000601:	
  1193  0222  3001               	movlw	low(01h)
  1194  0223  07F3               	addwf	(delay@d2),f
  1195  0224  1803               	skipnc
  1196  0225  0AF4               	incf	(delay@d2+1),f
  1197  0226  3000               	movlw	high(01h)
  1198  0227  07F4               	addwf	(delay@d2+1),f
  1199  0228  0874               	movf	(delay@d2+1),w
  1200  0229  3A80               	xorlw	80h
  1201  022A  00F0               	movwf	(??_delay+0+0)
  1202  022B  3080               	movlw	(high(079h))^80h
  1203  022C  0270               	subwf	(??_delay+0+0),w
  1204  022D  1D03               	skipz
  1205  022E  2A31               	goto	u295
  1206  022F  3079               	movlw	low(079h)
  1207  0230  0273               	subwf	(delay@d2),w
  1208  0231                     u295:
  1209                           
  1210  0231  1C03               	skipc
  1211  0232  2A34               	goto	u291
  1212  0233  2A35               	goto	u290
  1213  0234                     u291:
  1214  0234  2A22               	goto	l30000601
  1215  0235                     u290:
  1216                           	
  1217  0235                     l30000602:	
  1218                           	line	186
  1219  0235  3001               	movlw	low(01h)
  1220  0236  07F1               	addwf	(delay@d1),f
  1221  0237  1803               	skipnc
  1222  0238  0AF2               	incf	(delay@d1+1),f
  1223  0239  3000               	movlw	high(01h)
  1224  023A  07F2               	addwf	(delay@d1+1),f
  1225                           	
  1226  023B                     l35:	
  1227  023B  0872               	movf	(delay@d1+1),w
  1228  023C  1283               	bcf	status, 5	;RP0=0, select bank0
  1229  023D  1303               	bcf	status, 6	;RP1=0, select bank0
  1230  023E  0245               	subwf	(delay@del+1),w
  1231  023F  1D03               	skipz
  1232  0240  2A43               	goto	u305
  1233  0241  0871               	movf	(delay@d1),w
  1234  0242  0244               	subwf	(delay@del),w
  1235  0243                     u305:
  1236  0243  1803               	skipnc
  1237  0244  2A46               	goto	u301
  1238  0245  2A47               	goto	u300
  1239  0246                     u301:
  1240  0246  2A1E               	goto	l30000599
  1241  0247                     u300:
  1242                           	
  1243  0247                     l31:	
  1244  0247  0008               	return
  1245                           	opt stack 0
  1246                           GLOBAL	__end_of_delay
  1247  0248                     	__end_of_delay:
  1248                           ; =============== function _delay ends ============
  1249                           
  1250                           psect	text101,local,class=CODE,delta=2
  1251                           global __ptext101
  1252  0347                     __ptext101:
  1253                           	line	188
  1254                           	signat	_delay,4216
  1255                           	global	_init
  1256                           
  1257                           ; *************** function _init *****************
  1258                           ; Defined at:
  1259                           ;		line 74 in file "D:\ABHISHEK JOSHI\PIC\LCD\T8\LCD T8.C"
  1260                           ; Parameters:    Size  Location     Type
  1261                           ;		None
  1262                           ; Auto vars:     Size  Location     Type
  1263                           ;		None
  1264                           ; Return value:  Size  Location     Type
  1265                           ;		None               void
  1266                           ; Registers used:
  1267                           ;		wreg, status,2, status,0, pclath, cstack
  1268                           ; Tracked objects:
  1269                           ;		On entry : 0/0
  1270                           ;		On exit  : 0/0
  1271                           ;		Unchanged: 0/0
  1272                           ; Data sizes:     COMMON   BANK0   BANK1   BANK3   BANK2
  1273                           ;      Locals:         0       0       0       0       0
  1274                           ;      Temp:     0
  1275                           ;      Total:    0
  1276                           ; This function calls:
  1277                           ;		_init_timer
  1278                           ; This function is called by:
  1279                           ;		_main
  1280                           ; This function uses a non-reentrant model
  1281                           ; 
  1282                           psect	text101
  1283                           	file	"D:\ABHISHEK JOSHI\PIC\LCD\T8\LCD T8.C"
  1284                           	line	74
  1285                           	global	__size_of_init
  1286  000C                     	__size_of_init	equ	__end_of_init-_init
  1287                           ;LCD T8.C: 73: void init()
  1288                           ;LCD T8.C: 74: {
  1289                           	
  1290  0347                     _init:	
  1291                           	opt stack 5
  1292                           ; Regs used in _init: [wreg+status,2+status,0+pclath+cstack]
  1293                           	line	75
  1294                           	
  1295  0347                     l30000551:	
  1296                           ;LCD T8.C: 75: scan_no=0;
  1297  0347  3000               	movlw	low(0)
  1298  0348  1283               	bcf	status, 5	;RP0=0, select bank0
  1299  0349  1303               	bcf	status, 6	;RP1=0, select bank0
  1300  034A  00D0               	movwf	(_scan_no)
  1301  034B  3000               	movlw	high(0)
  1302  034C  00D1               	movwf	((_scan_no))+1
  1303                           	
  1304  034D                     l30000552:	
  1305                           	line	76
  1306                           ;LCD T8.C: 76: init_timer();
  1307  034D  120A  118A  2338   	fcall	_init_timer
              120A  118A         
  1308                           	
  1309  0352                     l10:	
  1310  0352  0008               	return
  1311                           	opt stack 0
  1312                           GLOBAL	__end_of_init
  1313  0353                     	__end_of_init:
  1314                           ; =============== function _init ends ============
  1315                           
  1316                           psect	text102,local,class=CODE,delta=2
  1317                           global __ptext102
  1318  02E0                     __ptext102:
  1319                           	line	77
  1320                           	signat	_init,88
  1321                           	global	_lcd_disp
  1322                           
  1323                           ; *************** function _lcd_disp *****************
  1324                           ; Defined at:
  1325                           ;		line 228 in file "D:\ABHISHEK JOSHI\PIC\LCD\T8\LCD T8.C"
  1326                           ; Parameters:    Size  Location     Type
  1327                           ;		None
  1328                           ; Auto vars:     Size  Location     Type
  1329                           ;		None
  1330                           ; Return value:  Size  Location     Type
  1331                           ;		None               void
  1332                           ; Registers used:
  1333                           ;		wreg, fsr0l, fsr0h, fsr1l, fsr1h, status,2, status,0, btemp+0, btemp+1, btemp+2, btem
                                 p+3, pclath, cstack
  1334                           ; Tracked objects:
  1335                           ;		On entry : 0/0
  1336                           ;		On exit  : 0/0
  1337                           ;		Unchanged: 0/0
  1338                           ; Data sizes:     COMMON   BANK0   BANK1   BANK3   BANK2
  1339                           ;      Locals:         0       0       0       0       0
  1340                           ;      Temp:     0
  1341                           ;      Total:    0
  1342                           ; This function calls:
  1343                           ;		_cmd_wr
  1344                           ;		_data_wr
  1345                           ; This function is called by:
  1346                           ;		_main
  1347                           ; This function uses a non-reentrant model
  1348                           ; 
  1349                           psect	text102
  1350                           	file	"D:\ABHISHEK JOSHI\PIC\LCD\T8\LCD T8.C"
  1351                           	line	228
  1352                           	global	__size_of_lcd_disp
  1353  0021                     	__size_of_lcd_disp	equ	__end_of_lcd_disp-_lcd_disp
  1354                           ;LCD T8.C: 227: void lcd_disp()
  1355                           ;LCD T8.C: 228: {
  1356                           	
  1357  02E0                     _lcd_disp:	
  1358                           	opt stack 5
  1359                           ; Regs used in _lcd_disp: [allreg]
  1360                           	line	229
  1361                           	
  1362  02E0                     l30000514:	
  1363                           ;LCD T8.C: 229: cmd_wr(0x80);
  1364  02E0  3080               	movlw	(080h)
  1365  02E1  120A  118A  2248   	fcall	_cmd_wr
              120A  118A         
  1366                           	line	230
  1367                           ;LCD T8.C: 230: data_wr(ds4);
  1368  02E6  0878               	movf	(_ds4),w
  1369  02E7  120A  118A  226F   	fcall	_data_wr
              120A  118A         
  1370                           	line	231
  1371                           ;LCD T8.C: 231: data_wr(ds3);
  1372  02EC  1283               	bcf	status, 5	;RP0=0, select bank0
  1373  02ED  1303               	bcf	status, 6	;RP1=0, select bank0
  1374  02EE  0843               	movf	(_ds3),w
  1375  02EF  120A  118A  226F   	fcall	_data_wr
              120A  118A         
  1376                           	line	232
  1377                           ;LCD T8.C: 232: data_wr(ds2);
  1378  02F4  0877               	movf	(_ds2),w
  1379  02F5  120A  118A  226F   	fcall	_data_wr
              120A  118A         
  1380                           	line	233
  1381                           ;LCD T8.C: 233: data_wr(ds1);
  1382  02FA  0876               	movf	(_ds1),w
  1383  02FB  120A  118A  226F   	fcall	_data_wr
              120A  118A         
  1384                           	
  1385  0300                     l44:	
  1386  0300  0008               	return
  1387                           	opt stack 0
  1388                           GLOBAL	__end_of_lcd_disp
  1389  0301                     	__end_of_lcd_disp:
  1390                           ; =============== function _lcd_disp ends ============
  1391                           
  1392                           psect	text103,local,class=CODE,delta=2
  1393                           global __ptext103
  1394  01AD                     __ptext103:
  1395                           	line	234
  1396                           	signat	_lcd_disp,88
  1397                           	global	_incrementd
  1398                           
  1399                           ; *************** function _incrementd *****************
  1400                           ; Defined at:
  1401                           ;		line 193 in file "D:\ABHISHEK JOSHI\PIC\LCD\T8\LCD T8.C"
  1402                           ; Parameters:    Size  Location     Type
  1403                           ;		None
  1404                           ; Auto vars:     Size  Location     Type
  1405                           ;		None
  1406                           ; Return value:  Size  Location     Type
  1407                           ;		None               void
  1408                           ; Registers used:
  1409                           ;		wreg, status,2, status,0
  1410                           ; Tracked objects:
  1411                           ;		On entry : 0/0
  1412                           ;		On exit  : 0/0
  1413                           ;		Unchanged: 0/0
  1414                           ; Data sizes:     COMMON   BANK0   BANK1   BANK3   BANK2
  1415                           ;      Locals:         0       0       0       0       0
  1416                           ;      Temp:     0
  1417                           ;      Total:    0
  1418                           ; This function calls:
  1419                           ;		Nothing
  1420                           ; This function is called by:
  1421                           ;		_main
  1422                           ; This function uses a non-reentrant model
  1423                           ; 
  1424                           psect	text103
  1425                           	file	"D:\ABHISHEK JOSHI\PIC\LCD\T8\LCD T8.C"
  1426                           	line	193
  1427                           	global	__size_of_incrementd
  1428  0036                     	__size_of_incrementd	equ	__end_of_incrementd-_incrementd
  1429                           ;LCD T8.C: 192: void incrementd()
  1430                           ;LCD T8.C: 193: {
  1431                           	
  1432  01AD                     _incrementd:	
  1433                           	opt stack 5
  1434                           ; Regs used in _incrementd: [wreg+status,2+status,0]
  1435                           	line	195
  1436                           	
  1437  01AD                     l30000487:	
  1438                           ;LCD T8.C: 195: ds1=ds1+1;
  1439  01AD  0876               	movf	(_ds1),w
  1440  01AE  3E01               	addlw	01h
  1441  01AF  00F6               	movwf	(_ds1)
  1442                           	
  1443  01B0                     l30000488:	
  1444                           	line	196
  1445                           ;LCD T8.C: 196: if (ds1>'9')
  1446  01B0  303A               	movlw	(03Ah)
  1447  01B1  0276               	subwf	(_ds1),w
  1448  01B2  1C03               	skipc
  1449  01B3  29B5               	goto	u131
  1450  01B4  29B6               	goto	u130
  1451  01B5                     u131:
  1452  01B5  29E2               	goto	l39
  1453  01B6                     u130:
  1454                           	
  1455  01B6                     l30000489:	
  1456                           	line	198
  1457                           ;LCD T8.C: 197: {
  1458                           ;LCD T8.C: 198: ds1='0';
  1459  01B6  3030               	movlw	(030h)
  1460  01B7  00F6               	movwf	(_ds1)
  1461                           	
  1462  01B8                     l30000490:	
  1463                           	line	199
  1464                           ;LCD T8.C: 199: ds2=ds2+1;
  1465  01B8  0877               	movf	(_ds2),w
  1466  01B9  3E01               	addlw	01h
  1467  01BA  00F7               	movwf	(_ds2)
  1468                           	
  1469  01BB                     l30000491:	
  1470                           	line	201
  1471                           ;LCD T8.C: 201: if (ds2>'9')
  1472  01BB  303A               	movlw	(03Ah)
  1473  01BC  0277               	subwf	(_ds2),w
  1474  01BD  1C03               	skipc
  1475  01BE  29C0               	goto	u141
  1476  01BF  29C1               	goto	u140
  1477  01C0                     u141:
  1478  01C0  29E2               	goto	l39
  1479  01C1                     u140:
  1480                           	
  1481  01C1                     l30000492:	
  1482                           	line	203
  1483                           ;LCD T8.C: 202: {
  1484                           ;LCD T8.C: 203: ds2='0';
  1485  01C1  3030               	movlw	(030h)
  1486  01C2  00F7               	movwf	(_ds2)
  1487                           	
  1488  01C3                     l30000493:	
  1489                           	line	204
  1490                           ;LCD T8.C: 204: ds3=ds3+1;
  1491  01C3  1283               	bcf	status, 5	;RP0=0, select bank0
  1492  01C4  1303               	bcf	status, 6	;RP1=0, select bank0
  1493  01C5  0843               	movf	(_ds3),w
  1494  01C6  3E01               	addlw	01h
  1495  01C7  00C3               	movwf	(_ds3)
  1496                           	
  1497  01C8                     l30000494:	
  1498                           	line	206
  1499                           ;LCD T8.C: 206: if (ds3>'9')
  1500  01C8  303A               	movlw	(03Ah)
  1501  01C9  0243               	subwf	(_ds3),w
  1502  01CA  1C03               	skipc
  1503  01CB  29CD               	goto	u151
  1504  01CC  29CE               	goto	u150
  1505  01CD                     u151:
  1506  01CD  29E2               	goto	l39
  1507  01CE                     u150:
  1508                           	
  1509  01CE                     l30000495:	
  1510                           	line	208
  1511                           ;LCD T8.C: 207: {
  1512                           ;LCD T8.C: 208: ds3='0';
  1513  01CE  3030               	movlw	(030h)
  1514  01CF  00C3               	movwf	(_ds3)
  1515                           	
  1516  01D0                     l30000496:	
  1517                           	line	209
  1518                           ;LCD T8.C: 209: ds4=ds4+1;
  1519  01D0  0878               	movf	(_ds4),w
  1520  01D1  3E01               	addlw	01h
  1521  01D2  00F8               	movwf	(_ds4)
  1522                           	
  1523  01D3                     l30000497:	
  1524                           	line	211
  1525                           ;LCD T8.C: 211: if(ds4>'9')
  1526  01D3  303A               	movlw	(03Ah)
  1527  01D4  0278               	subwf	(_ds4),w
  1528  01D5  1C03               	skipc
  1529  01D6  29D8               	goto	u161
  1530  01D7  29D9               	goto	u160
  1531  01D8                     u161:
  1532  01D8  29E2               	goto	l41
  1533  01D9                     u160:
  1534                           	
  1535  01D9                     l30000498:	
  1536                           	line	213
  1537                           ;LCD T8.C: 212: {
  1538                           ;LCD T8.C: 213: ds1='0';
  1539  01D9  3030               	movlw	(030h)
  1540  01DA  00F6               	movwf	(_ds1)
  1541                           	line	214
  1542                           ;LCD T8.C: 214: ds2='0';
  1543  01DB  3030               	movlw	(030h)
  1544  01DC  00F7               	movwf	(_ds2)
  1545                           	line	215
  1546                           ;LCD T8.C: 215: ds3='0';
  1547  01DD  3030               	movlw	(030h)
  1548  01DE  00C3               	movwf	(_ds3)
  1549                           	line	216
  1550                           ;LCD T8.C: 216: ds4='0';
  1551  01DF  3030               	movlw	(030h)
  1552  01E0  00F8               	movwf	(_ds4)
  1553  01E1  29E2               	goto	l39
  1554                           	
  1555  01E2                     l41:	
  1556                           	
  1557  01E2                     l39:	
  1558  01E2  0008               	return
  1559                           	opt stack 0
  1560                           GLOBAL	__end_of_incrementd
  1561  01E3                     	__end_of_incrementd:
  1562                           ; =============== function _incrementd ends ============
  1563                           
  1564                           psect	text104,local,class=CODE,delta=2
  1565                           global __ptext104
  1566  00B1                     __ptext104:
  1567                           	line	225
  1568                           	signat	_incrementd,88
  1569                           	global	_init_lcd
  1570                           
  1571                           ; *************** function _init_lcd *****************
  1572                           ; Defined at:
  1573                           ;		line 237 in file "D:\ABHISHEK JOSHI\PIC\LCD\T8\LCD T8.C"
  1574                           ; Parameters:    Size  Location     Type
  1575                           ;		None
  1576                           ; Auto vars:     Size  Location     Type
  1577                           ;		None
  1578                           ; Return value:  Size  Location     Type
  1579                           ;		None               void
  1580                           ; Registers used:
  1581                           ;		wreg, status,2, status,0, pclath, cstack
  1582                           ; Tracked objects:
  1583                           ;		On entry : 0/0
  1584                           ;		On exit  : 0/0
  1585                           ;		Unchanged: 0/0
  1586                           ; Data sizes:     COMMON   BANK0   BANK1   BANK3   BANK2
  1587                           ;      Locals:         0       0       0       0       0
  1588                           ;      Temp:     0
  1589                           ;      Total:    0
  1590                           ; This function calls:
  1591                           ;		_lcd_delay
  1592                           ;		_cmd_wr
  1593                           ; This function is called by:
  1594                           ;		_main
  1595                           ; This function uses a non-reentrant model
  1596                           ; 
  1597                           psect	text104
  1598                           	file	"D:\ABHISHEK JOSHI\PIC\LCD\T8\LCD T8.C"
  1599                           	line	237
  1600                           	global	__size_of_init_lcd
  1601  0097                     	__size_of_init_lcd	equ	__end_of_init_lcd-_init_lcd
  1602                           ;LCD T8.C: 236: void init_lcd()
  1603                           ;LCD T8.C: 237: {
  1604                           	
  1605  00B1                     _init_lcd:	
  1606                           	opt stack 5
  1607                           ; Regs used in _init_lcd: [wreg+status,2+status,0+pclath+cstack]
  1608                           	line	238
  1609                           	
  1610  00B1                     l30000566:	
  1611                           ;LCD T8.C: 238: lcd_delay (3);
  1612  00B1  3003               	movlw	low(03h)
  1613  00B2  00F3               	movwf	(?_lcd_delay)
  1614  00B3  3000               	movlw	high(03h)
  1615  00B4  00F4               	movwf	((?_lcd_delay))+1
  1616  00B5  120A  118A  21E3   	fcall	_lcd_delay
              120A  118A         
  1617                           	line	239
  1618                           ;LCD T8.C: 239: lcd_delay (3);
  1619  00BA  3003               	movlw	low(03h)
  1620  00BB  00F3               	movwf	(?_lcd_delay)
  1621  00BC  3000               	movlw	high(03h)
  1622  00BD  00F4               	movwf	((?_lcd_delay))+1
  1623  00BE  120A  118A  21E3   	fcall	_lcd_delay
              120A  118A         
  1624                           	line	240
  1625                           ;LCD T8.C: 240: lcd_delay (3);
  1626  00C3  3003               	movlw	low(03h)
  1627  00C4  00F3               	movwf	(?_lcd_delay)
  1628  00C5  3000               	movlw	high(03h)
  1629  00C6  00F4               	movwf	((?_lcd_delay))+1
  1630  00C7  120A  118A  21E3   	fcall	_lcd_delay
              120A  118A         
  1631                           	
  1632  00CC                     l30000567:	
  1633                           	line	242
  1634                           ;LCD T8.C: 242: cmd_data=0x03;
  1635  00CC  3003               	movlw	(03h)
  1636  00CD  00F9               	movwf	(_cmd_data)
  1637                           	
  1638  00CE                     l30000568:	
  1639                           	line	243
  1640                           ;LCD T8.C: 243: cmd_wr(cmd_data);
  1641  00CE  3003               	movlw	(03h)
  1642  00CF  120A  118A  2248   	fcall	_cmd_wr
              120A  118A         
  1643                           	
  1644  00D4                     l30000569:	
  1645                           	line	244
  1646                           ;LCD T8.C: 244: lcd_delay(3);
  1647  00D4  3003               	movlw	low(03h)
  1648  00D5  00F3               	movwf	(?_lcd_delay)
  1649  00D6  3000               	movlw	high(03h)
  1650  00D7  00F4               	movwf	((?_lcd_delay))+1
  1651  00D8  120A  118A  21E3   	fcall	_lcd_delay
              120A  118A         
  1652                           	
  1653  00DD                     l30000570:	
  1654                           	line	246
  1655                           ;LCD T8.C: 246: cmd_data=0x03;
  1656  00DD  3003               	movlw	(03h)
  1657  00DE  00F9               	movwf	(_cmd_data)
  1658                           	line	247
  1659                           ;LCD T8.C: 247: cmd_wr(cmd_data);
  1660  00DF  3003               	movlw	(03h)
  1661  00E0  120A  118A  2248   	fcall	_cmd_wr
              120A  118A         
  1662                           	line	248
  1663                           ;LCD T8.C: 248: lcd_delay(3);
  1664  00E5  3003               	movlw	low(03h)
  1665  00E6  00F3               	movwf	(?_lcd_delay)
  1666  00E7  3000               	movlw	high(03h)
  1667  00E8  00F4               	movwf	((?_lcd_delay))+1
  1668  00E9  120A  118A  21E3   	fcall	_lcd_delay
              120A  118A         
  1669                           	
  1670  00EE                     l30000571:	
  1671                           	line	250
  1672                           ;LCD T8.C: 250: cmd_data=0x03;
  1673  00EE  3003               	movlw	(03h)
  1674  00EF  00F9               	movwf	(_cmd_data)
  1675                           	
  1676  00F0                     l30000572:	
  1677                           	line	251
  1678                           ;LCD T8.C: 251: cmd_wr(cmd_data);
  1679  00F0  3003               	movlw	(03h)
  1680  00F1  120A  118A  2248   	fcall	_cmd_wr
              120A  118A         
  1681                           	
  1682  00F6                     l30000573:	
  1683                           	line	252
  1684                           ;LCD T8.C: 252: lcd_delay(3);
  1685  00F6  3003               	movlw	low(03h)
  1686  00F7  00F3               	movwf	(?_lcd_delay)
  1687  00F8  3000               	movlw	high(03h)
  1688  00F9  00F4               	movwf	((?_lcd_delay))+1
  1689  00FA  120A  118A  21E3   	fcall	_lcd_delay
              120A  118A         
  1690                           	
  1691  00FF                     l30000574:	
  1692                           	line	254
  1693                           ;LCD T8.C: 254: cmd_data=0x20;
  1694  00FF  3020               	movlw	(020h)
  1695  0100  00F9               	movwf	(_cmd_data)
  1696                           	line	255
  1697                           ;LCD T8.C: 255: cmd_wr(cmd_data);
  1698  0101  3020               	movlw	(020h)
  1699  0102  120A  118A  2248   	fcall	_cmd_wr
              120A  118A         
  1700                           	line	256
  1701                           ;LCD T8.C: 256: lcd_delay(3);
  1702  0107  3003               	movlw	low(03h)
  1703  0108  00F3               	movwf	(?_lcd_delay)
  1704  0109  3000               	movlw	high(03h)
  1705  010A  00F4               	movwf	((?_lcd_delay))+1
  1706  010B  120A  118A  21E3   	fcall	_lcd_delay
              120A  118A         
  1707                           	
  1708  0110                     l30000575:	
  1709                           	line	258
  1710                           ;LCD T8.C: 258: cmd_data=0x28;
  1711  0110  3028               	movlw	(028h)
  1712  0111  00F9               	movwf	(_cmd_data)
  1713                           	
  1714  0112                     l30000576:	
  1715                           	line	259
  1716                           ;LCD T8.C: 259: cmd_wr(cmd_data);
  1717  0112  3028               	movlw	(028h)
  1718  0113  120A  118A  2248   	fcall	_cmd_wr
              120A  118A         
  1719                           	
  1720  0118                     l30000577:	
  1721                           	line	260
  1722                           ;LCD T8.C: 260: lcd_delay(3);
  1723  0118  3003               	movlw	low(03h)
  1724  0119  00F3               	movwf	(?_lcd_delay)
  1725  011A  3000               	movlw	high(03h)
  1726  011B  00F4               	movwf	((?_lcd_delay))+1
  1727  011C  120A  118A  21E3   	fcall	_lcd_delay
              120A  118A         
  1728                           	
  1729  0121                     l30000578:	
  1730                           	line	262
  1731                           ;LCD T8.C: 262: cmd_data=0x06;
  1732  0121  3006               	movlw	(06h)
  1733  0122  00F9               	movwf	(_cmd_data)
  1734                           	line	263
  1735                           ;LCD T8.C: 263: cmd_wr(cmd_data);
  1736  0123  3006               	movlw	(06h)
  1737  0124  120A  118A  2248   	fcall	_cmd_wr
              120A  118A         
  1738                           	line	264
  1739                           ;LCD T8.C: 264: lcd_delay(3);
  1740  0129  3003               	movlw	low(03h)
  1741  012A  00F3               	movwf	(?_lcd_delay)
  1742  012B  3000               	movlw	high(03h)
  1743  012C  00F4               	movwf	((?_lcd_delay))+1
  1744  012D  120A  118A  21E3   	fcall	_lcd_delay
              120A  118A         
  1745                           	
  1746  0132                     l30000579:	
  1747                           	line	266
  1748                           ;LCD T8.C: 266: cmd_data=0x01;
  1749  0132  01F9               	clrf	(_cmd_data)
  1750  0133  1403               	bsf	status,0
  1751  0134  0DF9               	rlf	(_cmd_data),f
  1752                           	
  1753  0135                     l30000580:	
  1754                           	line	267
  1755                           ;LCD T8.C: 267: cmd_wr(cmd_data);
  1756  0135  3001               	movlw	(01h)
  1757  0136  120A  118A  2248   	fcall	_cmd_wr
              120A  118A         
  1758                           	
  1759  013B                     l30000581:	
  1760                           	line	268
  1761                           ;LCD T8.C: 268: lcd_delay(3);
  1762  013B  3003               	movlw	low(03h)
  1763  013C  00F3               	movwf	(?_lcd_delay)
  1764  013D  3000               	movlw	high(03h)
  1765  013E  00F4               	movwf	((?_lcd_delay))+1
  1766  013F  120A  118A  21E3   	fcall	_lcd_delay
              120A  118A         
  1767                           	
  1768  0144                     l30000582:	
  1769                           	line	270
  1770                           ;LCD T8.C: 270: RB0=0;
  1771  0144  1283               	bcf	status, 5	;RP0=0, select bank0
  1772  0145  1303               	bcf	status, 6	;RP1=0, select bank0
  1773  0146  1006               	bcf	(48/8),(48)&7
  1774                           	
  1775  0147                     l45:	
  1776  0147  0008               	return
  1777                           	opt stack 0
  1778                           GLOBAL	__end_of_init_lcd
  1779  0148                     	__end_of_init_lcd:
  1780                           ; =============== function _init_lcd ends ============
  1781                           
  1782                           psect	text105,local,class=CODE,delta=2
  1783                           global __ptext105
  1784  026F                     __ptext105:
  1785                           	line	271
  1786                           	signat	_init_lcd,88
  1787                           	global	_data_wr
  1788                           
  1789                           ; *************** function _data_wr *****************
  1790                           ; Defined at:
  1791                           ;		line 286 in file "D:\ABHISHEK JOSHI\PIC\LCD\T8\LCD T8.C"
  1792                           ; Parameters:    Size  Location     Type
  1793                           ;  var_data        1    wreg     unsigned char 
  1794                           ; Auto vars:     Size  Location     Type
  1795                           ;  var_data        1    3[COMMON] unsigned char 
  1796                           ; Return value:  Size  Location     Type
  1797                           ;		None               void
  1798                           ; Registers used:
  1799                           ;		wreg, status,2, status,0, pclath, cstack
  1800                           ; Tracked objects:
  1801                           ;		On entry : 0/0
  1802                           ;		On exit  : 0/0
  1803                           ;		Unchanged: 0/0
  1804                           ; Data sizes:     COMMON   BANK0   BANK1   BANK3   BANK2
  1805                           ;      Locals:         2       0       0       0       0
  1806                           ;      Temp:     1
  1807                           ;      Total:    2
  1808                           ; This function calls:
  1809                           ;		_data_mapping
  1810                           ;		_toggle
  1811                           ; This function is called by:
  1812                           ;		_main
  1813                           ;		_lcd_disp
  1814                           ; This function uses a non-reentrant model
  1815                           ; 
  1816                           psect	text105
  1817                           	file	"D:\ABHISHEK JOSHI\PIC\LCD\T8\LCD T8.C"
  1818                           	line	286
  1819                           	global	__size_of_data_wr
  1820  0027                     	__size_of_data_wr	equ	__end_of_data_wr-_data_wr
  1821                           ;LCD T8.C: 285: void data_wr(unsigned char var_data)
  1822                           ;LCD T8.C: 286: {
  1823                           	
  1824  026F                     _data_wr:	
  1825                           	opt stack 4
  1826                           ; Regs used in _data_wr: [wreg+status,2+status,0+pclath+cstack]
  1827                           ;data_wr@var_data stored from wreg
  1828  026F  00F3               	movwf	(data_wr@var_data)
  1829                           	
  1830  0270                     l30000515:	
  1831                           	line	287
  1832                           ;LCD T8.C: 287: RB1=1;
  1833  0270  1283               	bcf	status, 5	;RP0=0, select bank0
  1834  0271  1303               	bcf	status, 6	;RP1=0, select bank0
  1835  0272  1486               	bsf	(49/8),(49)&7
  1836                           	line	288
  1837                           ;LCD T8.C: 288: RB2=0;
  1838  0273  1106               	bcf	(50/8),(50)&7
  1839                           	
  1840  0274                     l30000516:	
  1841                           	line	289
  1842                           ;LCD T8.C: 289: data_mapping(var_data);
  1843  0274  0873               	movf	(data_wr@var_data),w
  1844  0275  120A  118A  2353   	fcall	_data_mapping
              120A  118A         
  1845                           	
  1846  027A                     l30000517:	
  1847                           	line	290
  1848                           ;LCD T8.C: 290: toggle();
  1849  027A  120A  118A  235E   	fcall	_toggle
              120A  118A         
  1850                           	
  1851  027F                     l30000518:	
  1852                           	line	291
  1853                           ;LCD T8.C: 291: var_data=var_data<<4;
  1854  027F  0873               	movf	(data_wr@var_data),w
  1855  0280  00F2               	movwf	(??_data_wr+0+0)
  1856  0281  3003               	movlw	(04h)-1
  1857  0282                     u185:
  1858  0282  1003               	clrc
  1859  0283  0DF2               	rlf	(??_data_wr+0+0),f
  1860  0284  3EFF               	addlw	-1
  1861  0285  1D03               	skipz
  1862  0286  2A82               	goto	u185
  1863  0287  1003               	clrc
  1864  0288  0D72               	rlf	(??_data_wr+0+0),w
  1865  0289  00F3               	movwf	(data_wr@var_data)
  1866                           	
  1867  028A                     l30000519:	
  1868                           	line	292
  1869                           ;LCD T8.C: 292: data_mapping(var_data);
  1870  028A  0873               	movf	(data_wr@var_data),w
  1871  028B  120A  118A  2353   	fcall	_data_mapping
              120A  118A         
  1872                           	
  1873  0290                     l30000520:	
  1874                           	line	293
  1875                           ;LCD T8.C: 293: toggle();
  1876  0290  120A  118A  235E   	fcall	_toggle
              120A  118A         
  1877                           	
  1878  0295                     l47:	
  1879  0295  0008               	return
  1880                           	opt stack 0
  1881                           GLOBAL	__end_of_data_wr
  1882  0296                     	__end_of_data_wr:
  1883                           ; =============== function _data_wr ends ============
  1884                           
  1885                           psect	text106,local,class=CODE,delta=2
  1886                           global __ptext106
  1887  0338                     __ptext106:
  1888                           	line	294
  1889                           	signat	_data_wr,4216
  1890                           	global	_init_timer
  1891                           
  1892                           ; *************** function _init_timer *****************
  1893                           ; Defined at:
  1894                           ;		line 80 in file "D:\ABHISHEK JOSHI\PIC\LCD\T8\LCD T8.C"
  1895                           ; Parameters:    Size  Location     Type
  1896                           ;		None
  1897                           ; Auto vars:     Size  Location     Type
  1898                           ;		None
  1899                           ; Return value:  Size  Location     Type
  1900                           ;		None               void
  1901                           ; Registers used:
  1902                           ;		wreg
  1903                           ; Tracked objects:
  1904                           ;		On entry : 0/0
  1905                           ;		On exit  : 0/0
  1906                           ;		Unchanged: 0/0
  1907                           ; Data sizes:     COMMON   BANK0   BANK1   BANK3   BANK2
  1908                           ;      Locals:         0       0       0       0       0
  1909                           ;      Temp:     0
  1910                           ;      Total:    0
  1911                           ; This function calls:
  1912                           ;		Nothing
  1913                           ; This function is called by:
  1914                           ;		_init
  1915                           ; This function uses a non-reentrant model
  1916                           ; 
  1917                           psect	text106
  1918                           	file	"D:\ABHISHEK JOSHI\PIC\LCD\T8\LCD T8.C"
  1919                           	line	80
  1920                           	global	__size_of_init_timer
  1921  000F                     	__size_of_init_timer	equ	__end_of_init_timer-_init_timer
  1922                           ;LCD T8.C: 79: void init_timer()
  1923                           ;LCD T8.C: 80: {
  1924                           	
  1925  0338                     _init_timer:	
  1926                           	opt stack 4
  1927                           ; Regs used in _init_timer: [wreg]
  1928                           	line	81
  1929                           	
  1930  0338                     l30000553:	
  1931                           ;LCD T8.C: 81: TMR1H=0xFC;
  1932  0338  30FC               	movlw	(0FCh)
  1933  0339  1283               	bcf	status, 5	;RP0=0, select bank0
  1934  033A  1303               	bcf	status, 6	;RP1=0, select bank0
  1935  033B  008F               	movwf	(15)	;volatile
  1936                           	line	82
  1937                           ;LCD T8.C: 82: TMR1L=0x18;
  1938  033C  3018               	movlw	(018h)
  1939  033D  008E               	movwf	(14)	;volatile
  1940                           	line	83
  1941                           ;LCD T8.C: 83: T1CON=0x01;
  1942  033E  3001               	movlw	(01h)
  1943  033F  0090               	movwf	(16)	;volatile
  1944                           	
  1945  0340                     l30000554:	
  1946                           	line	84
  1947                           ;LCD T8.C: 84: TMR1IE=1;
  1948  0340  1683               	bsf	status, 5	;RP0=1, select bank1
  1949  0341  1303               	bcf	status, 6	;RP1=0, select bank1
  1950  0342  140C               	bsf	(1120/8)^080h,(1120)&7
  1951                           	
  1952  0343                     l30000555:	
  1953                           	line	85
  1954                           ;LCD T8.C: 85: TMR1IF=0;
  1955  0343  1283               	bcf	status, 5	;RP0=0, select bank0
  1956  0344  1303               	bcf	status, 6	;RP1=0, select bank0
  1957  0345  100C               	bcf	(96/8),(96)&7
  1958                           	
  1959  0346                     l11:	
  1960  0346  0008               	return
  1961                           	opt stack 0
  1962                           GLOBAL	__end_of_init_timer
  1963  0347                     	__end_of_init_timer:
  1964                           ; =============== function _init_timer ends ============
  1965                           
  1966                           psect	text107,local,class=CODE,delta=2
  1967                           global __ptext107
  1968  0248                     __ptext107:
  1969                           	line	86
  1970                           	signat	_init_timer,88
  1971                           	global	_cmd_wr
  1972                           
  1973                           ; *************** function _cmd_wr *****************
  1974                           ; Defined at:
  1975                           ;		line 275 in file "D:\ABHISHEK JOSHI\PIC\LCD\T8\LCD T8.C"
  1976                           ; Parameters:    Size  Location     Type
  1977                           ;  var_data        1    wreg     unsigned char 
  1978                           ; Auto vars:     Size  Location     Type
  1979                           ;  var_data        1    3[COMMON] unsigned char 
  1980                           ; Return value:  Size  Location     Type
  1981                           ;		None               void
  1982                           ; Registers used:
  1983                           ;		wreg, status,2, status,0, pclath, cstack
  1984                           ; Tracked objects:
  1985                           ;		On entry : 0/0
  1986                           ;		On exit  : 0/0
  1987                           ;		Unchanged: 0/0
  1988                           ; Data sizes:     COMMON   BANK0   BANK1   BANK3   BANK2
  1989                           ;      Locals:         2       0       0       0       0
  1990                           ;      Temp:     1
  1991                           ;      Total:    2
  1992                           ; This function calls:
  1993                           ;		_data_mapping
  1994                           ;		_toggle
  1995                           ; This function is called by:
  1996                           ;		_main
  1997                           ;		_lcd_disp
  1998                           ;		_init_lcd
  1999                           ; This function uses a non-reentrant model
  2000                           ; 
  2001                           psect	text107
  2002                           	file	"D:\ABHISHEK JOSHI\PIC\LCD\T8\LCD T8.C"
  2003                           	line	275
  2004                           	global	__size_of_cmd_wr
  2005  0027                     	__size_of_cmd_wr	equ	__end_of_cmd_wr-_cmd_wr
  2006                           ;LCD T8.C: 274: void cmd_wr(unsigned char var_data)
  2007                           ;LCD T8.C: 275: {
  2008                           	
  2009  0248                     _cmd_wr:	
  2010                           	opt stack 4
  2011                           ; Regs used in _cmd_wr: [wreg+status,2+status,0+pclath+cstack]
  2012                           ;cmd_wr@var_data stored from wreg
  2013  0248  00F3               	movwf	(cmd_wr@var_data)
  2014                           	
  2015  0249                     l30000521:	
  2016                           	line	276
  2017                           ;LCD T8.C: 276: RB1=RB2=0;
  2018  0249  1283               	bcf	status, 5	;RP0=0, select bank0
  2019  024A  1303               	bcf	status, 6	;RP1=0, select bank0
  2020  024B  1106               	bcf	(50/8),(50)&7
  2021  024C  1086               	bcf	(49/8),(49)&7
  2022                           	
  2023  024D                     l30000522:	
  2024                           	line	277
  2025                           ;LCD T8.C: 277: data_mapping(var_data);
  2026  024D  0873               	movf	(cmd_wr@var_data),w
  2027  024E  120A  118A  2353   	fcall	_data_mapping
              120A  118A         
  2028                           	
  2029  0253                     l30000523:	
  2030                           	line	278
  2031                           ;LCD T8.C: 278: toggle();
  2032  0253  120A  118A  235E   	fcall	_toggle
              120A  118A         
  2033                           	
  2034  0258                     l30000524:	
  2035                           	line	279
  2036                           ;LCD T8.C: 279: var_data=var_data<<4;
  2037  0258  0873               	movf	(cmd_wr@var_data),w
  2038  0259  00F2               	movwf	(??_cmd_wr+0+0)
  2039  025A  3003               	movlw	(04h)-1
  2040  025B                     u195:
  2041  025B  1003               	clrc
  2042  025C  0DF2               	rlf	(??_cmd_wr+0+0),f
  2043  025D  3EFF               	addlw	-1
  2044  025E  1D03               	skipz
  2045  025F  2A5B               	goto	u195
  2046  0260  1003               	clrc
  2047  0261  0D72               	rlf	(??_cmd_wr+0+0),w
  2048  0262  00F3               	movwf	(cmd_wr@var_data)
  2049                           	
  2050  0263                     l30000525:	
  2051                           	line	280
  2052                           ;LCD T8.C: 280: data_mapping(var_data);
  2053  0263  0873               	movf	(cmd_wr@var_data),w
  2054  0264  120A  118A  2353   	fcall	_data_mapping
              120A  118A         
  2055                           	
  2056  0269                     l30000526:	
  2057                           	line	281
  2058                           ;LCD T8.C: 281: toggle();
  2059  0269  120A  118A  235E   	fcall	_toggle
              120A  118A         
  2060                           	
  2061  026E                     l46:	
  2062  026E  0008               	return
  2063                           	opt stack 0
  2064                           GLOBAL	__end_of_cmd_wr
  2065  026F                     	__end_of_cmd_wr:
  2066                           ; =============== function _cmd_wr ends ============
  2067                           
  2068                           psect	text108,local,class=CODE,delta=2
  2069                           global __ptext108
  2070  01E3                     __ptext108:
  2071                           	line	282
  2072                           	signat	_cmd_wr,4216
  2073                           	global	_lcd_delay
  2074                           
  2075                           ; *************** function _lcd_delay *****************
  2076                           ; Defined at:
  2077                           ;		line 314 in file "D:\ABHISHEK JOSHI\PIC\LCD\T8\LCD T8.C"
  2078                           ; Parameters:    Size  Location     Type
  2079                           ;  x               2    3[COMMON] unsigned int 
  2080                           ; Auto vars:     Size  Location     Type
  2081                           ;  j               2    2[BANK0 ] unsigned int 
  2082                           ;  i               2    0[BANK0 ] unsigned int 
  2083                           ; Return value:  Size  Location     Type
  2084                           ;		None               void
  2085                           ; Registers used:
  2086                           ;		wreg
  2087                           ; Tracked objects:
  2088                           ;		On entry : 0/0
  2089                           ;		On exit  : 0/0
  2090                           ;		Unchanged: 0/0
  2091                           ; Data sizes:     COMMON   BANK0   BANK1   BANK3   BANK2
  2092                           ;      Locals:         5       4       0       0       0
  2093                           ;      Temp:     3
  2094                           ;      Total:    9
  2095                           ; This function calls:
  2096                           ;		Nothing
  2097                           ; This function is called by:
  2098                           ;		_init_lcd
  2099                           ; This function uses a non-reentrant model
  2100                           ; 
  2101                           psect	text108
  2102                           	file	"D:\ABHISHEK JOSHI\PIC\LCD\T8\LCD T8.C"
  2103                           	line	314
  2104                           	global	__size_of_lcd_delay
  2105  0036                     	__size_of_lcd_delay	equ	__end_of_lcd_delay-_lcd_delay
  2106                           ;LCD T8.C: 313: void lcd_delay(unsigned int x)
  2107                           ;LCD T8.C: 314: {
  2108                           	
  2109  01E3                     _lcd_delay:	
  2110                           	opt stack 4
  2111                           ; Regs used in _lcd_delay: [wreg]
  2112                           	line	317
  2113                           	
  2114  01E3                     l30000561:	
  2115                           ;LCD T8.C: 315: unsigned int i,j;
  2116                           ;LCD T8.C: 317: for (i=0;i<=2*x;i++)
  2117  01E3  3000               	movlw	low(0)
  2118  01E4  1283               	bcf	status, 5	;RP0=0, select bank0
  2119  01E5  1303               	bcf	status, 6	;RP1=0, select bank0
  2120  01E6  00C4               	movwf	(lcd_delay@i)
  2121  01E7  3000               	movlw	high(0)
  2122  01E8  00C5               	movwf	((lcd_delay@i))+1
  2123  01E9  2A03               	goto	l54
  2124                           	
  2125  01EA                     l30000562:	
  2126                           	line	319
  2127                           ;LCD T8.C: 318: {
  2128                           ;LCD T8.C: 319: for (j=0;j<=120;j++);
  2129  01EA  3000               	movlw	low(0)
  2130  01EB  00C6               	movwf	(lcd_delay@j)
  2131  01EC  3000               	movlw	high(0)
  2132  01ED  00C7               	movwf	((lcd_delay@j))+1
  2133                           	
  2134  01EE                     l30000564:	
  2135  01EE  3001               	movlw	low(01h)
  2136  01EF  07C6               	addwf	(lcd_delay@j),f
  2137  01F0  1803               	skipnc
  2138  01F1  0AC7               	incf	(lcd_delay@j+1),f
  2139  01F2  3000               	movlw	high(01h)
  2140  01F3  07C7               	addwf	(lcd_delay@j+1),f
  2141  01F4  3000               	movlw	high(079h)
  2142  01F5  0247               	subwf	(lcd_delay@j+1),w
  2143  01F6  3079               	movlw	low(079h)
  2144  01F7  1903               	skipnz
  2145  01F8  0246               	subwf	(lcd_delay@j),w
  2146  01F9  1C03               	skipc
  2147  01FA  29FC               	goto	u251
  2148  01FB  29FD               	goto	u250
  2149  01FC                     u251:
  2150  01FC  29EE               	goto	l30000564
  2151  01FD                     u250:
  2152                           	
  2153  01FD                     l30000565:	
  2154                           	line	317
  2155  01FD  3001               	movlw	low(01h)
  2156  01FE  07C4               	addwf	(lcd_delay@i),f
  2157  01FF  1803               	skipnc
  2158  0200  0AC5               	incf	(lcd_delay@i+1),f
  2159  0201  3000               	movlw	high(01h)
  2160  0202  07C5               	addwf	(lcd_delay@i+1),f
  2161                           	
  2162  0203                     l54:	
  2163  0203  0874               	movf	(lcd_delay@x+1),w
  2164  0204  00F1               	movwf	(??_lcd_delay+0+0+1)
  2165  0205  0873               	movf	(lcd_delay@x),w
  2166  0206  00F0               	movwf	(??_lcd_delay+0+0)
  2167  0207  3001               	movlw	01h
  2168  0208  00F2               	movwf	(??_lcd_delay+2+0)
  2169  0209                     u265:
  2170  0209  1003               	clrc
  2171  020A  0DF0               	rlf	(??_lcd_delay+0+0),f
  2172  020B  0DF1               	rlf	(??_lcd_delay+0+1),f
  2173  020C  0BF2               	decfsz	(??_lcd_delay+2+0),f
  2174  020D  2A09               	goto	u265
  2175  020E  0845               	movf	(lcd_delay@i+1),w
  2176  020F  0271               	subwf	1+(??_lcd_delay+0+0),w
  2177  0210  1D03               	skipz
  2178  0211  2A14               	goto	u275
  2179  0212  0844               	movf	(lcd_delay@i),w
  2180  0213  0270               	subwf	0+(??_lcd_delay+0+0),w
  2181  0214                     u275:
  2182  0214  1803               	skipnc
  2183  0215  2A17               	goto	u271
  2184  0216  2A18               	goto	u270
  2185  0217                     u271:
  2186  0217  29EA               	goto	l30000562
  2187  0218                     u270:
  2188                           	
  2189  0218                     l50:	
  2190  0218  0008               	return
  2191                           	opt stack 0
  2192                           GLOBAL	__end_of_lcd_delay
  2193  0219                     	__end_of_lcd_delay:
  2194                           ; =============== function _lcd_delay ends ============
  2195                           
  2196                           psect	text109,local,class=CODE,delta=2
  2197                           global __ptext109
  2198  0353                     __ptext109:
  2199                           	line	321
  2200                           	signat	_lcd_delay,4216
  2201                           	global	_data_mapping
  2202                           
  2203                           ; *************** function _data_mapping *****************
  2204                           ; Defined at:
  2205                           ;		line 298 in file "D:\ABHISHEK JOSHI\PIC\LCD\T8\LCD T8.C"
  2206                           ; Parameters:    Size  Location     Type
  2207                           ;  var_data1       1    wreg     unsigned char 
  2208                           ; Auto vars:     Size  Location     Type
  2209                           ;  var_data1       1    1[COMMON] unsigned char 
  2210                           ; Return value:  Size  Location     Type
  2211                           ;		None               void
  2212                           ; Registers used:
  2213                           ;		wreg, status,2, status,0
  2214                           ; Tracked objects:
  2215                           ;		On entry : 0/0
  2216                           ;		On exit  : 0/0
  2217                           ;		Unchanged: 0/0
  2218                           ; Data sizes:     COMMON   BANK0   BANK1   BANK3   BANK2
  2219                           ;      Locals:         2       0       0       0       0
  2220                           ;      Temp:     1
  2221                           ;      Total:    2
  2222                           ; This function calls:
  2223                           ;		Nothing
  2224                           ; This function is called by:
  2225                           ;		_cmd_wr
  2226                           ;		_data_wr
  2227                           ; This function uses a non-reentrant model
  2228                           ; 
  2229                           psect	text109
  2230                           	file	"D:\ABHISHEK JOSHI\PIC\LCD\T8\LCD T8.C"
  2231                           	line	298
  2232                           	global	__size_of_data_mapping
  2233  000B                     	__size_of_data_mapping	equ	__end_of_data_mapping-_data_mapping
  2234                           ;LCD T8.C: 297: void data_mapping(unsigned char var_data1)
  2235                           ;LCD T8.C: 298: {
  2236                           	
  2237  0353                     _data_mapping:	
  2238                           	opt stack 3
  2239                           ; Regs used in _data_mapping: [wreg+status,2+status,0]
  2240                           ;data_mapping@var_data1 stored from wreg
  2241  0353  00F1               	movwf	(data_mapping@var_data1)
  2242                           	
  2243  0354                     l30000545:	
  2244                           	line	299
  2245                           ;LCD T8.C: 299: PORTB=(var_data1&0xf0)|(PORTB&0x0f);
  2246  0354  1283               	bcf	status, 5	;RP0=0, select bank0
  2247  0355  1303               	bcf	status, 6	;RP1=0, select bank0
  2248  0356  0806               	movf	(6),w	;volatile
  2249  0357  390F               	andlw	0Fh
  2250  0358  00F0               	movwf	(??_data_mapping+0+0)
  2251  0359  0871               	movf	(data_mapping@var_data1),w
  2252  035A  39F0               	andlw	0F0h
  2253  035B  0470               	iorwf	(??_data_mapping+0+0),w
  2254  035C  0086               	movwf	(6)	;volatile
  2255                           	
  2256  035D                     l48:	
  2257  035D  0008               	return
  2258                           	opt stack 0
  2259                           GLOBAL	__end_of_data_mapping
  2260  035E                     	__end_of_data_mapping:
  2261                           ; =============== function _data_mapping ends ============
  2262                           
  2263                           psect	text110,local,class=CODE,delta=2
  2264                           global __ptext110
  2265  035E                     __ptext110:
  2266                           	line	300
  2267                           	signat	_data_mapping,4216
  2268                           	global	_toggle
  2269                           
  2270                           ; *************** function _toggle *****************
  2271                           ; Defined at:
  2272                           ;		line 303 in file "D:\ABHISHEK JOSHI\PIC\LCD\T8\LCD T8.C"
  2273                           ; Parameters:    Size  Location     Type
  2274                           ;		None
  2275                           ; Auto vars:     Size  Location     Type
  2276                           ;		None
  2277                           ; Return value:  Size  Location     Type
  2278                           ;		None               void
  2279                           ; Registers used:
  2280                           ;		None
  2281                           ; Tracked objects:
  2282                           ;		On entry : 0/0
  2283                           ;		On exit  : 0/0
  2284                           ;		Unchanged: 0/0
  2285                           ; Data sizes:     COMMON   BANK0   BANK1   BANK3   BANK2
  2286                           ;      Locals:         0       0       0       0       0
  2287                           ;      Temp:     0
  2288                           ;      Total:    0
  2289                           ; This function calls:
  2290                           ;		Nothing
  2291                           ; This function is called by:
  2292                           ;		_cmd_wr
  2293                           ;		_data_wr
  2294                           ; This function uses a non-reentrant model
  2295                           ; 
  2296                           psect	text110
  2297                           	file	"D:\ABHISHEK JOSHI\PIC\LCD\T8\LCD T8.C"
  2298                           	line	303
  2299                           	global	__size_of_toggle
  2300  0005                     	__size_of_toggle	equ	__end_of_toggle-_toggle
  2301                           ;LCD T8.C: 302: void toggle()
  2302                           ;LCD T8.C: 303: {
  2303                           	
  2304  035E                     _toggle:	
  2305                           	opt stack 3
  2306                           ; Regs used in _toggle: []
  2307                           	line	304
  2308                           	
  2309  035E                     l30000544:	
  2310                           ;LCD T8.C: 304: RB3=1;
  2311  035E  1283               	bcf	status, 5	;RP0=0, select bank0
  2312  035F  1303               	bcf	status, 6	;RP1=0, select bank0
  2313  0360  1586               	bsf	(51/8),(51)&7
  2314                           	line	310
  2315                           ;LCD T8.C: 305: ;
  2316                           ;LCD T8.C: 306: ;
  2317                           ;LCD T8.C: 307: ;
  2318                           ;LCD T8.C: 308: ;
  2319                           ;LCD T8.C: 309: ;
  2320                           ;LCD T8.C: 310: RB3=0;
  2321  0361  1186               	bcf	(51/8),(51)&7
  2322                           	
  2323  0362                     l49:	
  2324  0362  0008               	return
  2325                           	opt stack 0
  2326                           GLOBAL	__end_of_toggle
  2327  0363                     	__end_of_toggle:
  2328                           ; =============== function _toggle ends ============
  2329                           
  2330                           psect	text111,local,class=CODE,delta=2
  2331                           global __ptext111
  2332  0301                     __ptext111:
  2333                           	line	311
  2334                           	signat	_toggle,88
  2335                           	global	_isr_t0
  2336                           
  2337                           ; *************** function _isr_t0 *****************
  2338                           ; Defined at:
  2339                           ;		line 43 in file "D:\ABHISHEK JOSHI\PIC\LCD\T8\LCD T8.C"
  2340                           ; Parameters:    Size  Location     Type
  2341                           ;		None
  2342                           ; Auto vars:     Size  Location     Type
  2343                           ;		None
  2344                           ; Return value:  Size  Location     Type
  2345                           ;		None               void
  2346                           ; Registers used:
  2347                           ;		wreg, fsr0l, fsr0h, status,2, status,0, pclath, cstack
  2348                           ; Tracked objects:
  2349                           ;		On entry : 0/0
  2350                           ;		On exit  : 0/0
  2351                           ;		Unchanged: 0/0
  2352                           ; Data sizes:     COMMON   BANK0   BANK1   BANK3   BANK2
  2353                           ;      Locals:         0       4       0       0       0
  2354                           ;      Temp:     4
  2355                           ;      Total:    4
  2356                           ; This function calls:
  2357                           ;		i1_init_timer
  2358                           ;		_scanner
  2359                           ; This function is called by:
  2360                           ;		Interrupt level 1
  2361                           ; This function uses a non-reentrant model
  2362                           ; 
  2363                           psect	text111
  2364                           	file	"D:\ABHISHEK JOSHI\PIC\LCD\T8\LCD T8.C"
  2365                           	line	43
  2366                           	global	__size_of_isr_t0
  2367  0017                     	__size_of_isr_t0	equ	__end_of_isr_t0-_isr_t0
  2368                           ;pic168xa.h: 19: volatile unsigned char INDF @ 0x00;
  2369                           ;pic168xa.h: 20: volatile unsigned char TMR0 @ 0x01;
  2370                           ;pic168xa.h: 21: volatile unsigned char PCL @ 0x02;
  2371                           ;pic168xa.h: 22: volatile unsigned char STATUS @ 0x03;
  2372                           ;pic168xa.h: 23: unsigned char FSR @ 0x04;
  2373                           ;pic168xa.h: 24: volatile unsigned char PORTA @ 0x05;
  2374                           ;pic168xa.h: 25: volatile unsigned char PORTB @ 0x06;
  2375                           ;pic168xa.h: 26: volatile unsigned char PORTC @ 0x07;
  2376                           ;pic168xa.h: 31: unsigned char PCLATH @ 0x0A;
  2377                           ;pic168xa.h: 32: volatile unsigned char INTCON @ 0x0B;
  2378                           	
  2379  0301                     _isr_t0:	
  2380                           	opt stack 5
  2381                           ; Regs used in _isr_t0: [wreg-fsr0h+status,2+status,0+pclath+cstack]
  2382                           psect	intentry,class=CODE,delta=2
  2383                           global __pintentry
  2384  0004                     __pintentry:
  2385                           global interrupt_function
  2386  0004                     interrupt_function:
  2387                           	global saved_w
  2388  007F                     	saved_w	set	btemp+1
  2389  0004  00FF               	movwf	saved_w
  2390  0005  0803               	movf	status,w
  2391  0006  1283               	bcf	status, 5	;RP0=0, select bank0
  2392  0007  1303               	bcf	status, 6	;RP1=0, select bank0
  2393  0008  00C8               	movwf	(??_isr_t0+0)
  2394  0009  0804               	movf	fsr0,w
  2395  000A  00C9               	movwf	(??_isr_t0+1)
  2396  000B  080A               	movf	pclath,w
  2397  000C  00CA               	movwf	(??_isr_t0+2)
  2398  000D  087E               	movf	btemp+0,w
  2399  000E  00CB               	movwf	(??_isr_t0+3)
  2400  000F  120A  118A  2B01   	ljmp	_isr_t0
  2401                           psect	text111
  2402                           	line	44
  2403                           	
  2404  0301                     i1l30000482:	
  2405                           ;LCD T8.C: 44: init_timer();
  2406  0301  120A  118A  2329   	fcall	i1_init_timer
              120A  118A         
  2407                           	
  2408  0306                     i1l30000483:	
  2409                           	line	45
  2410                           ;LCD T8.C: 45: scanner();
  2411  0306  120A  118A  2015   	fcall	_scanner
              120A  118A         
  2412                           	
  2413  030B                     i1l2:	
  2414  030B  1283               	bcf	status, 5	;RP0=0, select bank0
  2415  030C  1303               	bcf	status, 6	;RP1=0, select bank0
  2416  030D  084B               	movf	(??_isr_t0+3),w
  2417  030E  00FE               	movwf	btemp+0
  2418  030F  084A               	movf	(??_isr_t0+2),w
  2419  0310  008A               	movwf	pclath
  2420  0311  0849               	movf	(??_isr_t0+1),w
  2421  0312  0084               	movwf	fsr0
  2422  0313  0848               	movf	(??_isr_t0+0),w
  2423  0314  0083               	movwf	status
  2424  0315  0EFF               	swapf	saved_w,f
  2425  0316  0E7F               	swapf	saved_w,w
  2426  0317  0009               	retfie
  2427                           	opt stack 0
  2428                           GLOBAL	__end_of_isr_t0
  2429  0318                     	__end_of_isr_t0:
  2430                           ; =============== function _isr_t0 ends ============
  2431                           
  2432                           psect	text112,local,class=CODE,delta=2
  2433                           global __ptext112
  2434  0015                     __ptext112:
  2435                           	line	46
  2436                           	signat	_isr_t0,88
  2437                           	global	_scanner
  2438                           
  2439                           ; *************** function _scanner *****************
  2440                           ; Defined at:
  2441                           ;		line 89 in file "D:\ABHISHEK JOSHI\PIC\LCD\T8\LCD T8.C"
  2442                           ; Parameters:    Size  Location     Type
  2443                           ;		None
  2444                           ; Auto vars:     Size  Location     Type
  2445                           ;		None
  2446                           ; Return value:  Size  Location     Type
  2447                           ;		None               void
  2448                           ; Registers used:
  2449                           ;		wreg, fsr0l, fsr0h, status,2, status,0
  2450                           ; Tracked objects:
  2451                           ;		On entry : 0/0
  2452                           ;		On exit  : 0/0
  2453                           ;		Unchanged: 0/0
  2454                           ; Data sizes:     COMMON   BANK0   BANK1   BANK3   BANK2
  2455                           ;      Locals:         0       0       0       0       0
  2456                           ;      Temp:     0
  2457                           ;      Total:    0
  2458                           ; This function calls:
  2459                           ;		Nothing
  2460                           ; This function is called by:
  2461                           ;		_isr_t0
  2462                           ; This function uses a non-reentrant model
  2463                           ; 
  2464                           psect	text112
  2465                           	file	"D:\ABHISHEK JOSHI\PIC\LCD\T8\LCD T8.C"
  2466                           	line	89
  2467                           	global	__size_of_scanner
  2468  009C                     	__size_of_scanner	equ	__end_of_scanner-_scanner
  2469                           ;LCD T8.C: 88: void scanner()
  2470                           ;LCD T8.C: 89: {
  2471                           	
  2472  0015                     _scanner:	
  2473                           	opt stack 4
  2474                           ; Regs used in _scanner: [wreg-fsr0h+status,2+status,0]
  2475                           	
  2476  0015                     i1l30000463:	
  2477  0015  2876               	goto	i1l30000481
  2478                           	
  2479  0016                     i1l15:	
  2480                           	line	93
  2481                           ;LCD T8.C: 93: RA1=0;
  2482  0016  1085               	bcf	(41/8),(41)&7
  2483                           	line	94
  2484                           ;LCD T8.C: 94: RC0=1;
  2485  0017  1407               	bsf	(56/8),(56)&7
  2486                           	line	95
  2487                           ;LCD T8.C: 95: RC1=1;
  2488  0018  1487               	bsf	(57/8),(57)&7
  2489                           	line	96
  2490                           ;LCD T8.C: 96: RC2=1;
  2491  0019  1507               	bsf	(58/8),(58)&7
  2492                           	
  2493  001A                     i1l30000464:	
  2494                           	line	98
  2495                           ;LCD T8.C: 98: scan_no=1;
  2496  001A  3001               	movlw	low(01h)
  2497  001B  00D0               	movwf	(_scan_no)
  2498  001C  3000               	movlw	high(01h)
  2499  001D  00D1               	movwf	((_scan_no))+1
  2500  001E  28B0               	goto	i1l12
  2501                           	
  2502  001F                     i1l30000465:	
  2503                           	line	102
  2504                           ;LCD T8.C: 102: scan_no=2;
  2505  001F  3002               	movlw	low(02h)
  2506  0020  00D0               	movwf	(_scan_no)
  2507  0021  3000               	movlw	high(02h)
  2508  0022  00D1               	movwf	((_scan_no))+1
  2509  0023  28B0               	goto	i1l12
  2510                           	
  2511  0024                     i1l30000466:	
  2512                           	line	106
  2513                           ;LCD T8.C: 106: scan_no=3;
  2514  0024  3003               	movlw	low(03h)
  2515  0025  00D0               	movwf	(_scan_no)
  2516  0026  3000               	movlw	high(03h)
  2517  0027  00D1               	movwf	((_scan_no))+1
  2518  0028  28B0               	goto	i1l12
  2519                           	
  2520  0029                     i1l30000467:	
  2521                           	line	111
  2522                           ;LCD T8.C: 111: scan_no=4;
  2523  0029  3004               	movlw	low(04h)
  2524  002A  00D0               	movwf	(_scan_no)
  2525  002B  3000               	movlw	high(04h)
  2526  002C  00D1               	movwf	((_scan_no))+1
  2527  002D  28B0               	goto	i1l12
  2528                           	
  2529  002E                     i1l19:	
  2530                           	line	115
  2531                           ;LCD T8.C: 115: RA1=1;
  2532  002E  1485               	bsf	(41/8),(41)&7
  2533                           	line	116
  2534                           ;LCD T8.C: 116: RC0=0;
  2535  002F  1007               	bcf	(56/8),(56)&7
  2536                           	line	117
  2537                           ;LCD T8.C: 117: RC1=1;
  2538  0030  1487               	bsf	(57/8),(57)&7
  2539                           	line	118
  2540                           ;LCD T8.C: 118: RC2=1;
  2541  0031  1507               	bsf	(58/8),(58)&7
  2542                           	
  2543  0032                     i1l30000468:	
  2544                           	line	120
  2545                           ;LCD T8.C: 120: scan_no=5;
  2546  0032  3005               	movlw	low(05h)
  2547  0033  00D0               	movwf	(_scan_no)
  2548  0034  3000               	movlw	high(05h)
  2549  0035  00D1               	movwf	((_scan_no))+1
  2550  0036  28B0               	goto	i1l12
  2551                           	
  2552  0037                     i1l30000469:	
  2553                           	line	124
  2554                           ;LCD T8.C: 124: scan_no=6;
  2555  0037  3006               	movlw	low(06h)
  2556  0038  00D0               	movwf	(_scan_no)
  2557  0039  3000               	movlw	high(06h)
  2558  003A  00D1               	movwf	((_scan_no))+1
  2559  003B  28B0               	goto	i1l12
  2560                           	
  2561  003C                     i1l30000470:	
  2562                           	line	128
  2563                           ;LCD T8.C: 128: scan_no=7;
  2564  003C  3007               	movlw	low(07h)
  2565  003D  00D0               	movwf	(_scan_no)
  2566  003E  3000               	movlw	high(07h)
  2567  003F  00D1               	movwf	((_scan_no))+1
  2568  0040  28B0               	goto	i1l12
  2569                           	
  2570  0041                     i1l30000471:	
  2571                           	line	133
  2572                           ;LCD T8.C: 133: scan_no=8;
  2573  0041  3008               	movlw	low(08h)
  2574  0042  00D0               	movwf	(_scan_no)
  2575  0043  3000               	movlw	high(08h)
  2576  0044  00D1               	movwf	((_scan_no))+1
  2577  0045  28B0               	goto	i1l12
  2578                           	
  2579  0046                     i1l23:	
  2580                           	line	137
  2581                           ;LCD T8.C: 137: RA1=1;
  2582  0046  1485               	bsf	(41/8),(41)&7
  2583                           	line	138
  2584                           ;LCD T8.C: 138: RC0=1;
  2585  0047  1407               	bsf	(56/8),(56)&7
  2586                           	line	139
  2587                           ;LCD T8.C: 139: RC1=0;
  2588  0048  1087               	bcf	(57/8),(57)&7
  2589                           	line	140
  2590                           ;LCD T8.C: 140: RC2=1;
  2591  0049  1507               	bsf	(58/8),(58)&7
  2592                           	
  2593  004A                     i1l30000472:	
  2594                           	line	142
  2595                           ;LCD T8.C: 142: scan_no=9;
  2596  004A  3009               	movlw	low(09h)
  2597  004B  00D0               	movwf	(_scan_no)
  2598  004C  3000               	movlw	high(09h)
  2599  004D  00D1               	movwf	((_scan_no))+1
  2600  004E  28B0               	goto	i1l12
  2601                           	
  2602  004F                     i1l30000473:	
  2603                           	line	146
  2604                           ;LCD T8.C: 146: scan_no=10;
  2605  004F  300A               	movlw	low(0Ah)
  2606  0050  00D0               	movwf	(_scan_no)
  2607  0051  3000               	movlw	high(0Ah)
  2608  0052  00D1               	movwf	((_scan_no))+1
  2609  0053  28B0               	goto	i1l12
  2610                           	
  2611  0054                     i1l30000474:	
  2612                           	line	150
  2613                           ;LCD T8.C: 150: scan_no=11;
  2614  0054  300B               	movlw	low(0Bh)
  2615  0055  00D0               	movwf	(_scan_no)
  2616  0056  3000               	movlw	high(0Bh)
  2617  0057  00D1               	movwf	((_scan_no))+1
  2618  0058  28B0               	goto	i1l12
  2619                           	
  2620  0059                     i1l30000475:	
  2621                           	line	155
  2622                           ;LCD T8.C: 155: scan_no=12;
  2623  0059  300C               	movlw	low(0Ch)
  2624  005A  00D0               	movwf	(_scan_no)
  2625  005B  3000               	movlw	high(0Ch)
  2626  005C  00D1               	movwf	((_scan_no))+1
  2627  005D  28B0               	goto	i1l12
  2628                           	
  2629  005E                     i1l27:	
  2630                           	line	159
  2631                           ;LCD T8.C: 159: RA1=1;
  2632  005E  1485               	bsf	(41/8),(41)&7
  2633                           	line	160
  2634                           ;LCD T8.C: 160: RC0=1;
  2635  005F  1407               	bsf	(56/8),(56)&7
  2636                           	line	161
  2637                           ;LCD T8.C: 161: RC1=1;
  2638  0060  1487               	bsf	(57/8),(57)&7
  2639                           	line	162
  2640                           ;LCD T8.C: 162: RC2=0;
  2641  0061  1107               	bcf	(58/8),(58)&7
  2642                           	
  2643  0062                     i1l30000476:	
  2644                           	line	164
  2645                           ;LCD T8.C: 164: scan_no=13;
  2646  0062  300D               	movlw	low(0Dh)
  2647  0063  00D0               	movwf	(_scan_no)
  2648  0064  3000               	movlw	high(0Dh)
  2649  0065  00D1               	movwf	((_scan_no))+1
  2650  0066  28B0               	goto	i1l12
  2651                           	
  2652  0067                     i1l30000477:	
  2653                           	line	168
  2654                           ;LCD T8.C: 168: scan_no=14;
  2655  0067  300E               	movlw	low(0Eh)
  2656  0068  00D0               	movwf	(_scan_no)
  2657  0069  3000               	movlw	high(0Eh)
  2658  006A  00D1               	movwf	((_scan_no))+1
  2659  006B  28B0               	goto	i1l12
  2660                           	
  2661  006C                     i1l30000478:	
  2662                           	line	172
  2663                           ;LCD T8.C: 172: scan_no=15;
  2664  006C  300F               	movlw	low(0Fh)
  2665  006D  00D0               	movwf	(_scan_no)
  2666  006E  3000               	movlw	high(0Fh)
  2667  006F  00D1               	movwf	((_scan_no))+1
  2668  0070  28B0               	goto	i1l12
  2669                           	
  2670  0071                     i1l30000479:	
  2671                           	line	177
  2672                           ;LCD T8.C: 177: scan_no=0;
  2673  0071  3000               	movlw	low(0)
  2674  0072  00D0               	movwf	(_scan_no)
  2675  0073  3000               	movlw	high(0)
  2676  0074  00D1               	movwf	((_scan_no))+1
  2677  0075  28B0               	goto	i1l12
  2678                           	
  2679  0076                     i1l30000481:	
  2680                           	line	90
  2681  0076  28AB               		goto	i1l30015
  2682  0077                     i1l30016:
  2683  0077  1283               	bcf	status, 5	;RP0=0, select bank0
  2684  0078  1303               	bcf	status, 6	;RP1=0, select bank0
  2685  0079  0850               	movf (_scan_no),w
  2686  007A  3A00               	xorlw	0^0
  2687  007B  1903               	skipnz
  2688  007C  2816               	goto	i1l15
  2689  007D  3A01               	xorlw	1^0
  2690  007E  1903               	skipnz
  2691  007F  281F               	goto	i1l30000465
  2692  0080  3A03               	xorlw	2^1
  2693  0081  1903               	skipnz
  2694  0082  2824               	goto	i1l30000466
  2695  0083  3A01               	xorlw	3^2
  2696  0084  1903               	skipnz
  2697  0085  2829               	goto	i1l30000467
  2698  0086  3A07               	xorlw	4^3
  2699  0087  1903               	skipnz
  2700  0088  282E               	goto	i1l19
  2701  0089  3A01               	xorlw	5^4
  2702  008A  1903               	skipnz
  2703  008B  2837               	goto	i1l30000469
  2704  008C  3A03               	xorlw	6^5
  2705  008D  1903               	skipnz
  2706  008E  283C               	goto	i1l30000470
  2707  008F  3A01               	xorlw	7^6
  2708  0090  1903               	skipnz
  2709  0091  2841               	goto	i1l30000471
  2710  0092  3A0F               	xorlw	8^7
  2711  0093  1903               	skipnz
  2712  0094  2846               	goto	i1l23
  2713  0095  3A01               	xorlw	9^8
  2714  0096  1903               	skipnz
  2715  0097  284F               	goto	i1l30000473
  2716  0098  3A03               	xorlw	10^9
  2717  0099  1903               	skipnz
  2718  009A  2854               	goto	i1l30000474
  2719  009B  3A01               	xorlw	11^10
  2720  009C  1903               	skipnz
  2721  009D  2859               	goto	i1l30000475
  2722  009E  3A07               	xorlw	12^11
  2723  009F  1903               	skipnz
  2724  00A0  285E               	goto	i1l27
  2725  00A1  3A01               	xorlw	13^12
  2726  00A2  1903               	skipnz
  2727  00A3  2867               	goto	i1l30000477
  2728  00A4  3A03               	xorlw	14^13
  2729  00A5  1903               	skipnz
  2730  00A6  286C               	goto	i1l30000478
  2731  00A7  3A01               	xorlw	15^14
  2732  00A8  1903               	skipnz
  2733  00A9  2871               	goto	i1l30000479
  2734  00AA  28B0               	goto	i1l12
  2735                           
  2736  00AB                     i1l30015:
  2737  00AB  0851               	movf (_scan_no+1),w
  2738  00AC  3A00               	xorlw	0^0
  2739  00AD  1903               	skipnz
  2740  00AE  2877               	goto	i1l30016
  2741  00AF  28B0               	goto	i1l12
  2742                           
  2743                           	
  2744  00B0                     i1l12:	
  2745  00B0  0008               	return
  2746                           	opt stack 0
  2747                           GLOBAL	__end_of_scanner
  2748  00B1                     	__end_of_scanner:
  2749                           ; =============== function _scanner ends ============
  2750                           
  2751                           psect	text113,local,class=CODE,delta=2
  2752                           global __ptext113
  2753  0329                     __ptext113:
  2754                           	line	180
  2755                           	signat	_scanner,88
  2756                           	global	i1_init_timer
  2757                           
  2758                           ; *************** function i1_init_timer *****************
  2759                           ; Defined at:
  2760                           ;		line 80 in file "D:\ABHISHEK JOSHI\PIC\LCD\T8\LCD T8.C"
  2761                           ; Parameters:    Size  Location     Type
  2762                           ;		None
  2763                           ; Auto vars:     Size  Location     Type
  2764                           ;		None
  2765                           ; Return value:  Size  Location     Type
  2766                           ;		None               void
  2767                           ; Registers used:
  2768                           ;		wreg
  2769                           ; Tracked objects:
  2770                           ;		On entry : 0/0
  2771                           ;		On exit  : 0/0
  2772                           ;		Unchanged: 0/0
  2773                           ; Data sizes:     COMMON   BANK0   BANK1   BANK3   BANK2
  2774                           ;      Locals:         0       0       0       0       0
  2775                           ;      Temp:     0
  2776                           ;      Total:    0
  2777                           ; This function calls:
  2778                           ;		Nothing
  2779                           ; This function is called by:
  2780                           ;		_isr_t0
  2781                           ; This function uses a non-reentrant model
  2782                           ; 
  2783                           psect	text113
  2784                           	file	"D:\ABHISHEK JOSHI\PIC\LCD\T8\LCD T8.C"
  2785                           	line	80
  2786                           	global	__size_ofi1_init_timer
  2787  000F                     	__size_ofi1_init_timer	equ	__end_ofi1_init_timer-i1_init_timer
  2788                           ;LCD T8.C: 79: void init_timer()
  2789                           ;LCD T8.C: 80: {
  2790                           	
  2791  0329                     i1_init_timer:	
  2792                           	opt stack 4
  2793                           ; Regs used in i1_init_timer: [wreg]
  2794                           	line	81
  2795                           	
  2796  0329                     i1l30000484:	
  2797                           ;LCD T8.C: 81: TMR1H=0xFC;
  2798  0329  30FC               	movlw	(0FCh)
  2799  032A  1283               	bcf	status, 5	;RP0=0, select bank0
  2800  032B  1303               	bcf	status, 6	;RP1=0, select bank0
  2801  032C  008F               	movwf	(15)	;volatile
  2802                           	line	82
  2803                           ;LCD T8.C: 82: TMR1L=0x18;
  2804  032D  3018               	movlw	(018h)
  2805  032E  008E               	movwf	(14)	;volatile
  2806                           	line	83
  2807                           ;LCD T8.C: 83: T1CON=0x01;
  2808  032F  3001               	movlw	(01h)
  2809  0330  0090               	movwf	(16)	;volatile
  2810                           	
  2811  0331                     i1l30000485:	
  2812                           	line	84
  2813                           ;LCD T8.C: 84: TMR1IE=1;
  2814  0331  1683               	bsf	status, 5	;RP0=1, select bank1
  2815  0332  1303               	bcf	status, 6	;RP1=0, select bank1
  2816  0333  140C               	bsf	(1120/8)^080h,(1120)&7
  2817                           	
  2818  0334                     i1l30000486:	
  2819                           	line	85
  2820                           ;LCD T8.C: 85: TMR1IF=0;
  2821  0334  1283               	bcf	status, 5	;RP0=0, select bank0
  2822  0335  1303               	bcf	status, 6	;RP1=0, select bank0
  2823  0336  100C               	bcf	(96/8),(96)&7
  2824                           	
  2825  0337                     i1l11:	
  2826  0337  0008               	return
  2827                           	opt stack 0
  2828                           GLOBAL	__end_ofi1_init_timer
  2829  0338                     	__end_ofi1_init_timer:
  2830                           ; =============== function i1_init_timer ends ============
  2831                           
  2832                           psect	text114,local,class=CODE,delta=2
  2833                           global __ptext114
  2834  0366                     __ptext114:
  2835                           	line	86
  2836                           	signat	i1_init_timer,88
  2837                           	global	btemp
  2838  007E                     	btemp set 07Eh


HI-TECH Software PICC Macro Assembler V9.70 build 5239 
Symbol Table                                                                                   Wed Jan 02 17:19:51 2002

                    _i 004C                      _k 004E                      pc 0002         __size_of_delay 002F  
                   l10 0352                     l11 0346                     _DA 04A5                     _BF 04A0  
                   l31 0247                     _DC 0019                     l41 01E2                     l50 0218  
                   l35 023B                     l44 0300                     l45 0147                     l54 0203  
                   l46 026E                     l47 0295                     l39 01E2                     l48 035D  
                   l49 0362                     _PD 001B                     _RD 0C60                     _UA 04A1  
                   _TO 001C                     _RW 04A2                     _WR 0C61                     fsr 0004  
         ??_incrementd 0070            __pbssCOMMON 0079           i1_init_timer 0329        __size_of_cmd_wr 0027  
                  _CM0 04E0                    _CM1 04E1                    _CM2 04E2                    _CKE 04A6  
                  _CIS 04E3                    _CKP 00A4                    _GIE 005F                    _BOR 0470  
                  _RA0 0028                    _RA1 0029                    _RB0 0030                    _RA2 002A  
                  _RB1 0031                    _RA3 002B                    _RC0 0038                    _RB2 0032  
                  _RA4 002C                    _RC1 0039                    _RB3 0033                    _RA5 002D  
                  _RC2 003A                    _RB4 0034                    _RC3 003B                    _RB5 0035  
                  _RC4 003C                    _RB6 0036                    _RC5 003D                    _RB7 0037  
                  _RC6 003E                    _RC7 003F                    u130 01B6                    u131 01B5  
                  u140 01C1                    u300 0247                    u141 01C0                    u301 0246  
                  u150 01CE                    u151 01CD                    u160 01D9                    _FSR 0004  
                  u161 01D8                    u305 0243                    u250 01FD                    _PCL 0002  
                  u251 01FC                    u270 0218                    _PS0 0408                    _PR2 0092  
                  u271 0217                    _PS1 0409                    u280 0194                    _PS2 040A  
                  _PEN 048A                    _RP0 001D                    _IRP 001F                    u265 0209  
                  u185 0282                    u281 0193                    _RP1 001E                    u290 0235  
                  u275 0214                    u195 025B                    u291 0234                    u285 0190  
                  i1l2 030B                    u295 0231                    _SEN 0488                    _PSA 040B  
                  _POR 0471                    _RX9 00C6                    _SMP 04A7                    _TX9 04C6  
      __size_of_isr_t0 0017                    _ds1 0076                    _ds2 0077                    _ds3 0043  
                  _ds4 0078                    _cnt 0039                    fsr0 0004                    indf 0000  
 __end_ofi1_init_timer 0338           ??_init_timer 0070        __size_of_toggle 0005       __size_of_data_wr 0027  
             _cmd_data 0079                ??_delay 0070                   _ADIE 0466                   _ADIF 0066  
                 _ADFM 04FF                   _ADGO 00FA                   _ADON 00F8                   _CHS0 00FB  
                 _CHS1 00FC                   _CHS2 00FD                   _EEIE 046C                   _EEIF 006C  
                 _GCEN 048F                   _CMIE 046E                   _CMIF 006E                   _BRGH 04C2  
                 _T0IE 005D                   _T0IF 005A                   _CREN 00C4                   _T0CS 040D  
                 _FERR 00C2                   _CVR0 04E8                   _CVR1 04E9                   _CVR2 04EA  
                 _CVR3 04EB                   _T0SE 040C                   _CSRC 04C7                   _INDF 0000  
                 _PIE1 008C                   _PIE2 008D                   _CVRR 04ED                   i1l11 0337  
                 _PEIE 005E                   i1l12 00B0                   _INTE 005C                   _INTF 0059  
                 i1l23 0046                   i1l15 0016                   _RBIE 005B                   _RBIF 0058  
                 i1l27 005E                   i1l19 002E                   _RCIE 0465                   _RCEN 048B  
                 _RCIF 0065                   _PCON 008E                   _PIR1 000C                   _PIR2 000D  
                 _OERR 00C1                   _RBPU 040F           __pidataBANK0 02BC                   _RX9D 00C0  
                 _TMR0 0001                   _TMR2 0011                   _WCOL 00A7                   _SPEN 00C7  
                 _RSEN 0489                   _TX9D 04C0                   _SREN 00C5                   _TRMT 04C1  
                 _STOP 04A4                   _TXIE 0464                   _ZERO 001A               _lcd_disp 02E0  
                 _WREN 0C62                   _TXEN 04C5                   _TXIF 0064                   _SYNC 04C4  
            ?_lcd_disp 0074       __size_of_scanner 009C                   _disp 0020           _data_mapping 0353  
                 _main 0148                   _init 0347                   btemp 007E                   start 0012  
             _init_lcd 00B1             ??_lcd_disp 0072               delay@del 0044   __end_of_data_mapping 035E  
            ?_init_lcd 0075      interrupt_function 0004             lcd_delay@i 0044             lcd_delay@j 0046  
           lcd_delay@x 0073    start_initialization 0296             ??_init_lcd 0073                ?_cmd_wr 0074  
             ??_cmd_wr 0072                _CCP1CON 0017                _CCP2CON 001D                _ACKSTAT 048E  
              ?_isr_t0 004C          ?i1_init_timer 0048                  _C1INV 04E4               ??_isr_t0 0048  
                _C2INV 04E5        __end_of_data_wr 0296                  _C1OUT 04E6                  _C2OUT 04E7  
    __size_of_lcd_disp 0021                  _ADCS0 00FE                  _ADCS1 00FF                  _ADCS2 04FE  
                _ADDEN 00C3                  ?_main 0076                  _ACKEN 048C              __ptext100 0219  
            __ptext101 0347              __ptext110 035E              __ptext102 02E0                  _ACKDT 048D  
            __ptext111 0301              __ptext103 01AD              __ptext112 0015              __ptext104 00B1  
            __ptext113 0329              __ptext105 026F              __ptext114 0366              __ptext106 0338  
            __ptext107 0248              __ptext108 01E3                  ?_init 0070              __ptext109 0353  
                _BCLIE 046B                  _BCLIF 006B                  _CCP1X 00BD                  _CCP1Y 00BC  
                _CCP2X 00ED                  _CCP2Y 00EC                  _EEADR 010D                ?_toggle 0070  
        __end_of_delay 0248                  _CARRY 0018                  _EEPGD 0C67                  _CMCON 009C  
                _T1CON 0010                  _T2CON 0012                _T1CKPS0 0084                _T1CKPS1 0085  
             ??_toggle 0070                  _PCFG0 04F8                  _PCFG1 04F9                  _PCFG2 04FA  
                _PCFG3 04FB                _T2CKPS0 0090                _T2CKPS1 0091                  _CVREN 04EF  
                _CVROE 04EE                  _RCREG 001A                  _RCSTA 0018                  _TMR1H 000F  
                _TMR1L 000E                  _SPBRG 0099                  _PORTA 0005                  _PORTB 0006  
              _T1OSCEN 0083                  _PORTC 0007                  _START 04A3              _lcd_delay 01E3  
                _SSPM0 00A0                  _SSPM1 00A1                  _SSPM2 00A2                  _SSPM3 00A3  
                _TRISA 0085                  _TRISB 0086                  _TRISC 0087                  _SSPIE 0463  
                _SSPIF 0063                  _SSPEN 00A5                i1l30015 00AB                i1l30016 0077  
                _SSPOV 00A6                  _WRERR 0C63                  _TXREG 0019      __end_of_lcd_delay 0219  
                _TXSTA 0098          __pidataCOMMON 0363      __size_of_init_lcd 0097  data_mapping@var_data1 0071  
      __end_of_scanner 00B1             ?_lcd_delay 0073         __pcstackCOMMON 0070                  _delay 0219  
              _SSPCON2 0091  __size_ofi1_init_timer 000F                _SSPSTAT 0094                _TOUTPS0 0093  
              _TOUTPS1 0094                _TOUTPS2 0095                _TOUTPS3 0096                  pclath 000A  
             intlevel1 0004            ??_lcd_delay 0070    __size_of_incrementd 0036                  status 0003  
        ?_data_mapping 0072    __size_of_init_timer 000F          __size_of_main 0065             __pbssBANK0 004C  
        __size_of_init 000C               l30000520 0290               l30000521 0249               l30000601 0222  
             l30000522 024D               l30000514 02E0               l30000602 0235               l30000523 0253  
             l30000515 0270               l30000524 0258               l30000516 0274               l30000525 0263  
             l30000517 027A               l30000526 0269               l30000518 027F               l30000519 028A  
             l30000551 0347               l30000544 035E               l30000552 034D               l30000545 0354  
             l30000561 01E3               l30000553 0338               l30000562 01EA               l30000554 0340  
             l30000570 00DD               l30000490 01B8               l30000555 0343               l30000571 00EE  
             l30000491 01BB               l30000564 01EE               l30000580 0135               l30000572 00F0  
             l30000492 01C1               l30000565 01FD               l30000581 013B               l30000573 00F6  
             l30000493 01C3               l30000582 0144               l30000574 00FF               l30000566 00B1  
             l30000494 01C8               l30000575 0110               l30000567 00CC               l30000495 01CE  
             l30000487 01AD               l30000583 0148               l30000576 0112               l30000568 00CE  
             l30000496 01D0               l30000488 01B0               l30000592 0173               l30000584 0159  
             l30000577 0118               l30000569 00D4               l30000497 01D3               l30000489 01B6  
             l30000593 017F               l30000585 015E               l30000578 0121               l30000498 01D9  
             l30000594 0187               l30000586 0163               l30000579 0132               l30000595 0194  
             l30000587 0166               l30000596 0199               l30000588 0167               l30000597 01A4  
             l30000589 016D               l30000598 0219               l30000599 021E        data_wr@var_data 0073  
__size_of_data_mapping 000B                _data_wr 026F                 ??_main 0075               ?_data_wr 0074  
               ??_init 0070              ??_data_wr 0072             __pmaintext 0148                delay@d1 0071  
              delay@d2 0073                _scan_no 0050                _scanner 0015               ?_scanner 0048  
           __pintentry 0004                 ?_delay 0044     __size_of_lcd_delay 0036              ??_scanner 0048  
               _ADCON0 001F                 _ADCON1 009F                 _CCP1M0 00B8                 _CCP1M1 00B9  
               _CCP1M2 00BA                 _CCP1M3 00BB                 _CCP2M0 00E8                 _CCP2M1 00E9  
               _CCP2M2 00EA                 _CCP2M3 00EB                 _CCP1IE 0462                 _CCP1IF 0062  
               _CCP2IE 0468                 _CCP2IF 0068                 _ADRESH 001E                 _EEADRH 010F  
               _ADRESL 009E                 _EEADRL 010D                 _EEDATA 010C                 _CCPR1H 0016  
               _EEDATH 010E                 _CCPR2H 001C                 _CCPR1L 0015                 _CCPR2L 001B  
               _EECON1 018C                 _EECON2 018D         __end_of_cmd_wr 026F           __end_of_main 01AD  
         __end_of_init 0353                 _GODONE 00FA   end_of_initialization 02B8                 _CVRCON 009D  
               _T1SYNC 0082       __end_of_lcd_disp 0301                 _INTEDG 040E                 _PCLATH 000A  
               _INTCON 000B          __pcstackBANK0 0044         __end_of_isr_t0 0318                 _TMR0IE 005D  
               _TMR0IF 005A                 _TMR1IE 0460                 _TMR1IF 0060                 _TMR1CS 0081  
               _TMR2IE 0461                 _TMR2IF 0061                 _OPTION 0081                 _TMR1ON 0080  
               _TMR2ON 0092         __end_of_toggle 0363                 _SSPADD 0093                 _TRISA0 0428  
               _TRISA1 0429                 _TRISB0 0430                 _TRISA2 042A                 _TRISB1 0431  
               _TRISA3 042B                 _TRISC0 0438                 _TRISB2 0432                 _TRISA4 042C  
               _TRISC1 0439                 _TRISB3 0433                 _TRISA5 042D                 _TRISC2 043A  
               _TRISB4 0434                 _TRISC3 043B                 _TRISB5 0435                 _TRISC4 043C  
               _TRISB6 0436                 _TRISC5 043D                 _TRISB7 0437                 _TRISC6 043E  
               _TRISC7 043F                 _STATUS 0003                 _SSPCON 0014                 _SSPBUF 0013  
              init_ram 031C       __end_of_init_lcd 0148                 _cmd_wr 0248                 _isr_t0 0301  
           i1l30000470 003C             i1l30000471 0041             i1l30000463 0015             i1l30000472 004A  
           i1l30000464 001A             i1l30000473 004F             i1l30000465 001F             i1l30000481 0076  
           i1l30000474 0054             i1l30000466 0024             i1l30000482 0301             i1l30000475 0059  
           i1l30000467 0029             i1l30000483 0306             i1l30000484 0329             i1l30000476 0062  
           i1l30000468 0032             i1l30000485 0331             i1l30000477 0067             i1l30000469 0037  
           i1l30000486 0334             i1l30000478 006C             i1l30000479 0071              init_fetch 0318  
               _toggle 035E         ??i1_init_timer 0048             _incrementd 01AD                 saved_w 007F  
   __end_of_incrementd 01E3             _init_timer 0338     __end_of_init_timer 0347            ?_incrementd 0070  
       ??_data_mapping 0070         cmd_wr@var_data 0073            ?_init_timer 0070            __pdataBANK0 0020  
         __pdataCOMMON 0076  
