opt subtitle "HI-TECH Software Omniscient Code Generator (Lite mode) build 5239"

opt pagewidth 120

	opt lm

	processor	16F876A
clrc	macro
	bcf	3,0
	endm
clrz	macro
	bcf	3,2
	endm
setc	macro
	bsf	3,0
	endm
setz	macro
	bsf	3,2
	endm
skipc	macro
	btfss	3,0
	endm
skipz	macro
	btfss	3,2
	endm
skipnc	macro
	btfsc	3,0
	endm
skipnz	macro
	btfsc	3,2
	endm
indf	equ	0
indf0	equ	0
pc	equ	2
pcl	equ	2
status	equ	3
fsr	equ	4
fsr0	equ	4
c	equ	1
z	equ	0
pclath	equ	10
	FNCALL	_main,_init_lcd
	FNCALL	_main,_init
	FNCALL	_main,_cmd_wr
	FNCALL	_main,_data_wr
	FNCALL	_main,_key_release
	FNCALL	_main,_lcd_disp
	FNCALL	_lcd_disp,_cmd_wr
	FNCALL	_lcd_disp,_data_wr
	FNCALL	_init,_init_keypad
	FNCALL	_init,_init_timer
	FNCALL	_init_lcd,_lcd_delay
	FNCALL	_init_lcd,_cmd_wr
	FNCALL	_data_wr,_data_mapping
	FNCALL	_data_wr,_toggle
	FNCALL	_cmd_wr,_data_mapping
	FNCALL	_cmd_wr,_toggle
	FNROOT	_main
	FNCALL	_isr_t0,i1_init_timer
	FNCALL	_isr_t0,_buzzer
	FNCALL	_isr_t0,_scanner
	FNCALL	_scanner,_k1
	FNCALL	intlevel1,_isr_t0
	global	intlevel1
	FNROOT	intlevel1
	global	_ascii_tab
	global	_ds2
	global	_ds3
	global	_ds4
	global	_ds1
	global	_cnt
	global	_disp
psect	idataBANK0,class=CODE,space=0,delta=2
global __pidataBANK0
__pidataBANK0:
	file	"D:\ABHISHEK JOSHI\PIC\LCD\T9\LCD T9.C"
	line	22

;initializer for _ascii_tab
	retlw	030h
	retlw	031h
	retlw	032h
	retlw	033h
	retlw	034h
	retlw	035h
	retlw	036h
	retlw	037h
	retlw	038h
	retlw	039h
	retlw	041h
	retlw	042h
	retlw	043h
	retlw	044h
	retlw	045h
	retlw	046h
	retlw	0
	retlw	0
	retlw	0
	retlw	0
	retlw	0
	retlw	0
	retlw	0
	retlw	0
	retlw	0
	line	23

;initializer for _ds2
	retlw	030h

;initializer for _ds3
	retlw	030h

;initializer for _ds4
	retlw	030h

;initializer for _ds1
psect	idataCOMMON,class=CODE,space=0,delta=2
global __pidataCOMMON
__pidataCOMMON:
	retlw	031h
psect	idataBANK1,class=CODE,space=0,delta=2
global __pidataBANK1
__pidataBANK1:
	line	20

;initializer for _cnt
	retlw	050h
	retlw	052h
	retlw	045h
	retlw	053h
	retlw	053h
	retlw	020h
	retlw	041h
	retlw	04Eh
	retlw	059h
	retlw	020h
	retlw	04Bh
	retlw	045h
	retlw	059h
	retlw	0
	retlw	0
	retlw	0
	retlw	0
	retlw	0
	retlw	0
	retlw	0
	retlw	0
	retlw	0
	retlw	0
	retlw	0
	retlw	0
	line	21

;initializer for _disp
	retlw	0FCh
	retlw	060h
	retlw	0DAh
	retlw	0F2h
	retlw	066h
	retlw	0B6h
	retlw	0BEh
	retlw	0E0h
	retlw	0FEh
	retlw	0F6h
	retlw	0FFh
	retlw	0FFh
	retlw	0FFh
	retlw	0FFh
	retlw	0FFh
	retlw	0FFh
	retlw	0FFh
	retlw	0EEh
	retlw	03Eh
	retlw	09Ch
	retlw	07Ah
	retlw	09Eh
	retlw	08Eh
	retlw	0
	retlw	0
	global	_a
	global	_c
	global	_i
	global	_k
	global	_key_code
	global	_key_ready
	global	_krcount
	global	_nkp
	global	_scan_no
	global	_start_buzzer
	global	_tb
	global	_disp_data
	global	_dcount
	global	_cmd_data
	global	_ADCON0
_ADCON0  equ     31
	global	_ADRESH
_ADRESH  equ     30
	global	_CCP1CON
_CCP1CON  equ     23
	global	_CCP2CON
_CCP2CON  equ     29
	global	_CCPR1H
_CCPR1H  equ     22
	global	_CCPR1L
_CCPR1L  equ     21
	global	_CCPR2H
_CCPR2H  equ     28
	global	_CCPR2L
_CCPR2L  equ     27
	global	_FSR
_FSR  equ     4
	global	_INDF
_INDF  equ     0
	global	_INTCON
_INTCON  equ     11
	global	_PCL
_PCL  equ     2
	global	_PCLATH
_PCLATH  equ     10
	global	_PIR1
_PIR1  equ     12
	global	_PIR2
_PIR2  equ     13
	global	_PORTA
_PORTA  equ     5
	global	_PORTB
_PORTB  equ     6
	global	_PORTC
_PORTC  equ     7
	global	_RCREG
_RCREG  equ     26
	global	_RCSTA
_RCSTA  equ     24
	global	_SSPBUF
_SSPBUF  equ     19
	global	_SSPCON
_SSPCON  equ     20
	global	_STATUS
_STATUS  equ     3
	global	_T1CON
_T1CON  equ     16
	global	_T2CON
_T2CON  equ     18
	global	_TMR0
_TMR0  equ     1
	global	_TMR1H
_TMR1H  equ     15
	global	_TMR1L
_TMR1L  equ     14
	global	_TMR2
_TMR2  equ     17
	global	_TXREG
_TXREG  equ     25
	global	_ADCS0
_ADCS0  equ     254
	global	_ADCS1
_ADCS1  equ     255
	global	_ADDEN
_ADDEN  equ     195
	global	_ADGO
_ADGO  equ     250
	global	_ADIF
_ADIF  equ     102
	global	_ADON
_ADON  equ     248
	global	_BCLIF
_BCLIF  equ     107
	global	_CARRY
_CARRY  equ     24
	global	_CCP1IF
_CCP1IF  equ     98
	global	_CCP1M0
_CCP1M0  equ     184
	global	_CCP1M1
_CCP1M1  equ     185
	global	_CCP1M2
_CCP1M2  equ     186
	global	_CCP1M3
_CCP1M3  equ     187
	global	_CCP1X
_CCP1X  equ     189
	global	_CCP1Y
_CCP1Y  equ     188
	global	_CCP2IF
_CCP2IF  equ     104
	global	_CCP2M0
_CCP2M0  equ     232
	global	_CCP2M1
_CCP2M1  equ     233
	global	_CCP2M2
_CCP2M2  equ     234
	global	_CCP2M3
_CCP2M3  equ     235
	global	_CCP2X
_CCP2X  equ     237
	global	_CCP2Y
_CCP2Y  equ     236
	global	_CHS0
_CHS0  equ     251
	global	_CHS1
_CHS1  equ     252
	global	_CHS2
_CHS2  equ     253
	global	_CKP
_CKP  equ     164
	global	_CMIF
_CMIF  equ     110
	global	_CREN
_CREN  equ     196
	global	_DC
_DC  equ     25
	global	_EEIF
_EEIF  equ     108
	global	_FERR
_FERR  equ     194
	global	_GIE
_GIE  equ     95
	global	_GODONE
_GODONE  equ     250
	global	_INTE
_INTE  equ     92
	global	_INTF
_INTF  equ     89
	global	_IRP
_IRP  equ     31
	global	_OERR
_OERR  equ     193
	global	_PD
_PD  equ     27
	global	_PEIE
_PEIE  equ     94
	global	_RA0
_RA0  equ     40
	global	_RA1
_RA1  equ     41
	global	_RA2
_RA2  equ     42
	global	_RA3
_RA3  equ     43
	global	_RA4
_RA4  equ     44
	global	_RA5
_RA5  equ     45
	global	_RB0
_RB0  equ     48
	global	_RB1
_RB1  equ     49
	global	_RB2
_RB2  equ     50
	global	_RB3
_RB3  equ     51
	global	_RB4
_RB4  equ     52
	global	_RB5
_RB5  equ     53
	global	_RB6
_RB6  equ     54
	global	_RB7
_RB7  equ     55
	global	_RBIE
_RBIE  equ     91
	global	_RBIF
_RBIF  equ     88
	global	_RC0
_RC0  equ     56
	global	_RC1
_RC1  equ     57
	global	_RC2
_RC2  equ     58
	global	_RC3
_RC3  equ     59
	global	_RC4
_RC4  equ     60
	global	_RC5
_RC5  equ     61
	global	_RC6
_RC6  equ     62
	global	_RC7
_RC7  equ     63
	global	_RCIF
_RCIF  equ     101
	global	_RP0
_RP0  equ     29
	global	_RP1
_RP1  equ     30
	global	_RX9
_RX9  equ     198
	global	_RX9D
_RX9D  equ     192
	global	_SPEN
_SPEN  equ     199
	global	_SREN
_SREN  equ     197
	global	_SSPEN
_SSPEN  equ     165
	global	_SSPIF
_SSPIF  equ     99
	global	_SSPM0
_SSPM0  equ     160
	global	_SSPM1
_SSPM1  equ     161
	global	_SSPM2
_SSPM2  equ     162
	global	_SSPM3
_SSPM3  equ     163
	global	_SSPOV
_SSPOV  equ     166
	global	_T0IE
_T0IE  equ     93
	global	_T0IF
_T0IF  equ     90
	global	_T1CKPS0
_T1CKPS0  equ     132
	global	_T1CKPS1
_T1CKPS1  equ     133
	global	_T1OSCEN
_T1OSCEN  equ     131
	global	_T1SYNC
_T1SYNC  equ     130
	global	_T2CKPS0
_T2CKPS0  equ     144
	global	_T2CKPS1
_T2CKPS1  equ     145
	global	_TMR0IE
_TMR0IE  equ     93
	global	_TMR0IF
_TMR0IF  equ     90
	global	_TMR1CS
_TMR1CS  equ     129
	global	_TMR1IF
_TMR1IF  equ     96
	global	_TMR1ON
_TMR1ON  equ     128
	global	_TMR2IF
_TMR2IF  equ     97
	global	_TMR2ON
_TMR2ON  equ     146
	global	_TO
_TO  equ     28
	global	_TOUTPS0
_TOUTPS0  equ     147
	global	_TOUTPS1
_TOUTPS1  equ     148
	global	_TOUTPS2
_TOUTPS2  equ     149
	global	_TOUTPS3
_TOUTPS3  equ     150
	global	_TXIF
_TXIF  equ     100
	global	_WCOL
_WCOL  equ     167
	global	_ZERO
_ZERO  equ     26
	global	_ADCON1
_ADCON1  equ     159
	global	_ADRESL
_ADRESL  equ     158
	global	_CMCON
_CMCON  equ     156
	global	_CVRCON
_CVRCON  equ     157
	global	_OPTION
_OPTION  equ     129
	global	_PCON
_PCON  equ     142
	global	_PIE1
_PIE1  equ     140
	global	_PIE2
_PIE2  equ     141
	global	_PR2
_PR2  equ     146
	global	_SPBRG
_SPBRG  equ     153
	global	_SSPADD
_SSPADD  equ     147
	global	_SSPCON2
_SSPCON2  equ     145
	global	_SSPSTAT
_SSPSTAT  equ     148
	global	_TRISA
_TRISA  equ     133
	global	_TRISB
_TRISB  equ     134
	global	_TRISC
_TRISC  equ     135
	global	_TXSTA
_TXSTA  equ     152
	global	_ACKDT
_ACKDT  equ     1165
	global	_ACKEN
_ACKEN  equ     1164
	global	_ACKSTAT
_ACKSTAT  equ     1166
	global	_ADCS2
_ADCS2  equ     1278
	global	_ADFM
_ADFM  equ     1279
	global	_ADIE
_ADIE  equ     1126
	global	_BCLIE
_BCLIE  equ     1131
	global	_BF
_BF  equ     1184
	global	_BOR
_BOR  equ     1136
	global	_BRGH
_BRGH  equ     1218
	global	_C1INV
_C1INV  equ     1252
	global	_C1OUT
_C1OUT  equ     1254
	global	_C2INV
_C2INV  equ     1253
	global	_C2OUT
_C2OUT  equ     1255
	global	_CCP1IE
_CCP1IE  equ     1122
	global	_CCP2IE
_CCP2IE  equ     1128
	global	_CIS
_CIS  equ     1251
	global	_CKE
_CKE  equ     1190
	global	_CM0
_CM0  equ     1248
	global	_CM1
_CM1  equ     1249
	global	_CM2
_CM2  equ     1250
	global	_CMIE
_CMIE  equ     1134
	global	_CSRC
_CSRC  equ     1223
	global	_CVR0
_CVR0  equ     1256
	global	_CVR1
_CVR1  equ     1257
	global	_CVR2
_CVR2  equ     1258
	global	_CVR3
_CVR3  equ     1259
	global	_CVREN
_CVREN  equ     1263
	global	_CVROE
_CVROE  equ     1262
	global	_CVRR
_CVRR  equ     1261
	global	_DA
_DA  equ     1189
	global	_EEIE
_EEIE  equ     1132
	global	_GCEN
_GCEN  equ     1167
	global	_INTEDG
_INTEDG  equ     1038
	global	_PCFG0
_PCFG0  equ     1272
	global	_PCFG1
_PCFG1  equ     1273
	global	_PCFG2
_PCFG2  equ     1274
	global	_PCFG3
_PCFG3  equ     1275
	global	_PEN
_PEN  equ     1162
	global	_POR
_POR  equ     1137
	global	_PS0
_PS0  equ     1032
	global	_PS1
_PS1  equ     1033
	global	_PS2
_PS2  equ     1034
	global	_PSA
_PSA  equ     1035
	global	_RBPU
_RBPU  equ     1039
	global	_RCEN
_RCEN  equ     1163
	global	_RCIE
_RCIE  equ     1125
	global	_RSEN
_RSEN  equ     1161
	global	_RW
_RW  equ     1186
	global	_SEN
_SEN  equ     1160
	global	_SMP
_SMP  equ     1191
	global	_SSPIE
_SSPIE  equ     1123
	global	_START
_START  equ     1187
	global	_STOP
_STOP  equ     1188
	global	_SYNC
_SYNC  equ     1220
	global	_T0CS
_T0CS  equ     1037
	global	_T0SE
_T0SE  equ     1036
	global	_TMR1IE
_TMR1IE  equ     1120
	global	_TMR2IE
_TMR2IE  equ     1121
	global	_TRISA0
_TRISA0  equ     1064
	global	_TRISA1
_TRISA1  equ     1065
	global	_TRISA2
_TRISA2  equ     1066
	global	_TRISA3
_TRISA3  equ     1067
	global	_TRISA4
_TRISA4  equ     1068
	global	_TRISA5
_TRISA5  equ     1069
	global	_TRISB0
_TRISB0  equ     1072
	global	_TRISB1
_TRISB1  equ     1073
	global	_TRISB2
_TRISB2  equ     1074
	global	_TRISB3
_TRISB3  equ     1075
	global	_TRISB4
_TRISB4  equ     1076
	global	_TRISB5
_TRISB5  equ     1077
	global	_TRISB6
_TRISB6  equ     1078
	global	_TRISB7
_TRISB7  equ     1079
	global	_TRISC0
_TRISC0  equ     1080
	global	_TRISC1
_TRISC1  equ     1081
	global	_TRISC2
_TRISC2  equ     1082
	global	_TRISC3
_TRISC3  equ     1083
	global	_TRISC4
_TRISC4  equ     1084
	global	_TRISC5
_TRISC5  equ     1085
	global	_TRISC6
_TRISC6  equ     1086
	global	_TRISC7
_TRISC7  equ     1087
	global	_TRMT
_TRMT  equ     1217
	global	_TX9
_TX9  equ     1222
	global	_TX9D
_TX9D  equ     1216
	global	_TXEN
_TXEN  equ     1221
	global	_TXIE
_TXIE  equ     1124
	global	_UA
_UA  equ     1185
	global	_EEADR
_EEADR  equ     269
	global	_EEADRH
_EEADRH  equ     271
	global	_EEADRL
_EEADRL  equ     269
	global	_EEDATA
_EEDATA  equ     268
	global	_EEDATH
_EEDATH  equ     270
	global	_EECON1
_EECON1  equ     396
	global	_EECON2
_EECON2  equ     397
	global	_EEPGD
_EEPGD  equ     3175
	global	_RD
_RD  equ     3168
	global	_WR
_WR  equ     3169
	global	_WREN
_WREN  equ     3170
	global	_WRERR
_WRERR  equ     3171
	file	"LCD T9.C.as"
	line	#
psect cinit,class=CODE,delta=2
global start_initialization
start_initialization:

psect	bssCOMMON,class=COMMON,space=1
global __pbssCOMMON
__pbssCOMMON:
_dcount:
       ds      2

_cmd_data:
       ds      1

psect	dataCOMMON,class=COMMON,space=1
global __pdataCOMMON
__pdataCOMMON:
	file	"D:\ABHISHEK JOSHI\PIC\LCD\T9\LCD T9.C"
	line	23
_ds1:
       ds      1

psect	bssBANK0,class=BANK0,space=1
global __pbssBANK0
__pbssBANK0:
_a:
       ds      2

_c:
       ds      2

_i:
       ds      2

_k:
       ds      2

_key_code:
       ds      2

_key_ready:
       ds      2

_krcount:
       ds      2

_nkp:
       ds      2

_scan_no:
       ds      2

_start_buzzer:
       ds      2

_tb:
       ds      2

_disp_data:
       ds      1

psect	dataBANK0,class=BANK0,space=1
global __pdataBANK0
__pdataBANK0:
	file	"D:\ABHISHEK JOSHI\PIC\LCD\T9\LCD T9.C"
	line	22
_ascii_tab:
       ds      25

psect	dataBANK0
	file	"D:\ABHISHEK JOSHI\PIC\LCD\T9\LCD T9.C"
	line	23
_ds2:
       ds      1

psect	dataBANK0
	file	"D:\ABHISHEK JOSHI\PIC\LCD\T9\LCD T9.C"
	line	23
_ds3:
       ds      1

psect	dataBANK0
	file	"D:\ABHISHEK JOSHI\PIC\LCD\T9\LCD T9.C"
	line	23
_ds4:
       ds      1

psect	dataBANK1,class=BANK1,space=1
global __pdataBANK1
__pdataBANK1:
	file	"D:\ABHISHEK JOSHI\PIC\LCD\T9\LCD T9.C"
	line	20
_cnt:
       ds      25

psect	dataBANK1
	file	"D:\ABHISHEK JOSHI\PIC\LCD\T9\LCD T9.C"
	line	21
_disp:
       ds      25

psect clrtext,class=CODE,delta=2
global clear_ram
;	Called with FSR containing the base address, and
;	W with the last address+1
clear_ram:
	clrwdt			;clear the watchdog before getting into this loop
clrloop:
	clrf	indf		;clear RAM location pointed to by FSR
	incf	fsr,f		;increment pointer
	xorwf	fsr,w		;XOR with final address
	btfsc	status,2	;have we reached the end yet?
	retlw	0		;all done for this memory range, return
	xorwf	fsr,w		;XOR again to restore value
	goto	clrloop		;do the next byte

; Clear objects allocated to COMMON
psect cinit,class=CODE,delta=2
	clrf	((__pbssCOMMON)+0)&07Fh
	clrf	((__pbssCOMMON)+1)&07Fh
	clrf	((__pbssCOMMON)+2)&07Fh
; Clear objects allocated to BANK0
psect cinit,class=CODE,delta=2
	bcf	status, 7	;select IRP bank0
	movlw	low(__pbssBANK0)
	movwf	fsr
	movlw	low((__pbssBANK0)+017h)
	fcall	clear_ram
global btemp
psect inittext,class=CODE,delta=2
global init_fetch,btemp
;	Called with low address in FSR and high address in W
init_fetch:
	movf btemp,w
	movwf pclath
	movf btemp+1,w
	movwf pc
global init_ram
;Called with:
;	high address of idata address in btemp 
;	low address of idata address in btemp+1 
;	low address of data in FSR
;	high address + 1 of data in btemp-1
init_ram:
	fcall init_fetch
	movwf indf,f
	incf fsr,f
	movf fsr,w
	xorwf btemp-1,w
	btfsc status,2
	retlw 0
	incf btemp+1,f
	btfsc status,2
	incf btemp,f
	goto init_ram
; Initialize objects allocated to COMMON
	global __pidataCOMMON
psect cinit,class=CODE,delta=2
	fcall	__pidataCOMMON+0		;fetch initializer
	movwf	__pdataCOMMON+0&07fh		
; Initialize objects allocated to BANK0
psect cinit,class=CODE,delta=2
global init_ram, __pidataBANK0
	movlw low(__pdataBANK0+28)
	movwf btemp-1,f
	movlw high(__pidataBANK0)
	movwf btemp,f
	movlw low(__pidataBANK0)
	movwf btemp+1,f
	movlw low(__pdataBANK0)
	movwf fsr,f
	fcall init_ram
; Initialize objects allocated to BANK1
psect cinit,class=CODE,delta=2
global init_ram, __pidataBANK1
	movlw low(__pdataBANK1+50)
	movwf btemp-1,f
	movlw high(__pidataBANK1)
	movwf btemp,f
	movlw low(__pidataBANK1)
	movwf btemp+1,f
	movlw low(__pdataBANK1)
	movwf fsr,f
	fcall init_ram
psect cinit,class=CODE,delta=2
global end_of_initialization

;End of C runtime variable initationation code

end_of_initialization:
clrf status
ljmp _main	;jump to C main() function
psect	cstackCOMMON,class=COMMON,space=1
global __pcstackCOMMON
__pcstackCOMMON:
	global	??_init_timer
??_init_timer: ;@ 0x0
	global	?_init_timer
?_init_timer: ;@ 0x0
	global	??_init
??_init: ;@ 0x0
	global	??_lcd_delay
??_lcd_delay: ;@ 0x0
	global	??_init_keypad
??_init_keypad: ;@ 0x0
	global	?_init_keypad
?_init_keypad: ;@ 0x0
	global	?_init
?_init: ;@ 0x0
	global	?_key_release
?_key_release: ;@ 0x0
	global	??_data_mapping
??_data_mapping: ;@ 0x0
	global	?_toggle
?_toggle: ;@ 0x0
	global	??_key_release
??_key_release: ;@ 0x0
	global	??_toggle
??_toggle: ;@ 0x0
	ds	1
	global	data_mapping@var_data1
data_mapping@var_data1:	; 1 bytes @ 0x1
	ds	1
	global	?_data_mapping
?_data_mapping: ;@ 0x2
	global	??_cmd_wr
??_cmd_wr: ;@ 0x2
	global	??_lcd_disp
??_lcd_disp: ;@ 0x2
	global	??_data_wr
??_data_wr: ;@ 0x2
	ds	1
	global	?_lcd_delay
?_lcd_delay: ;@ 0x3
	global	??_init_lcd
??_init_lcd: ;@ 0x3
	global	data_wr@var_data
data_wr@var_data:	; 1 bytes @ 0x3
	global	cmd_wr@var_data
cmd_wr@var_data:	; 1 bytes @ 0x3
	global	lcd_delay@x
lcd_delay@x:	; 2 bytes @ 0x3
	ds	1
	global	?_data_wr
?_data_wr: ;@ 0x4
	global	?_cmd_wr
?_cmd_wr: ;@ 0x4
	global	?_lcd_disp
?_lcd_disp: ;@ 0x4
	ds	1
	global	?_init_lcd
?_init_lcd: ;@ 0x5
	global	??_main
??_main: ;@ 0x5
	ds	1
	global	?_main
?_main: ;@ 0x6
psect	cstackBANK0,class=BANK0,space=1
global __pcstackBANK0
__pcstackBANK0:
	global	lcd_delay@i
lcd_delay@i:	; 2 bytes @ 0x0
	ds	2
	global	lcd_delay@j
lcd_delay@j:	; 2 bytes @ 0x2
	ds	2
	global	?i1_init_timer
?i1_init_timer: ;@ 0x4
	global	??_buzzer
??_buzzer: ;@ 0x4
	global	?_k1
?_k1: ;@ 0x4
	global	??i1_init_timer
??i1_init_timer: ;@ 0x4
	global	?_buzzer
?_buzzer: ;@ 0x4
	global	??_k1
??_k1: ;@ 0x4
	global	??_scanner
??_scanner: ;@ 0x4
	ds	2
	global	??_isr_t0
??_isr_t0: ;@ 0x6
	global	?_scanner
?_scanner: ;@ 0x6
	ds	4
	global	?_isr_t0
?_isr_t0: ;@ 0xA
;Data sizes: Strings 0, constant 0, data 79, bss 26, persistent 0 stack 0
;Auto spaces:   Size  Autos    Used
; COMMON          14      6      10
; BANK0           80     10      61
; BANK1           80      0      50
; BANK3           96      0       0
; BANK2           96      0       0


;Pointer list with targets:



;Main: autosize = 0, tempsize = 1, incstack = 0, save=0


;Call graph:                      Base Space Used Autos Args Refs Density
;_main                                                1    0  433   0.00
;                                    5 COMMO    1
;           _init_lcd
;               _init
;             _cmd_wr
;            _data_wr
;        _key_release
;           _lcd_disp
;  _lcd_disp                                          0    0  130   0.00
;             _cmd_wr
;            _data_wr
;  _key_release                                       0    0    0   0.00
;  _init                                              0    0    0   0.00
;        _init_keypad
;         _init_timer
;  _init_lcd                                          0    0  173   0.00
;          _lcd_delay
;             _cmd_wr
;    _init_timer                                      0    0    0   0.00
;    _data_wr                                         2    0   65   0.00
;                                    2 COMMO    2
;       _data_mapping
;             _toggle
;    _init_keypad                                     0    0    0   0.00
;    _lcd_delay                                       7    2  108   0.00
;                                    0 COMMO    5
;                                    0 BANK0    4
;    _cmd_wr                                          2    0   65   0.00
;                                    2 COMMO    2
;       _data_mapping
;             _toggle
;      _data_mapping                                  2    0   16   0.00
;                                    0 COMMO    2
;      _toggle                                        0    0    0   0.00
; Estimated maximum call depth 3
;_isr_t0                                              4    0    0   0.00
;                                    6 BANK0    4
;       i1_init_timer
;             _buzzer
;            _scanner
;  _scanner                                           2    0    0   0.00
;                                    4 BANK0    2
;                 _k1
;  _buzzer                                            0    0    0   0.00
;  i1_init_timer                                      0    0    0   0.00
;    _k1                                              0    0    0   0.00
; Estimated maximum call depth 2
; Address spaces:

;Name               Size   Autos  Total    Cost      Usage
;BITCOMMON            E      0       0       0        0.0%
;CODE                 0      0       0       0        0.0%
;NULL                 0      0       0       0        0.0%
;COMMON               E      6       A       1       71.4%
;SFR0                 0      0       0       1        0.0%
;BITSFR0              0      0       0       1        0.0%
;BITSFR1              0      0       0       2        0.0%
;SFR1                 0      0       0       2        0.0%
;ABS                  0      0      79       2        0.0%
;STACK                0      0       0       3        0.0%
;BITBANK0            50      0       0       4        0.0%
;SFR3                 0      0       0       4        0.0%
;BITSFR3              0      0       0       4        0.0%
;BANK0               50      A      3D       5       76.3%
;BITSFR2              0      0       0       5        0.0%
;SFR2                 0      0       0       5        0.0%
;BITBANK1            50      0       0       6        0.0%
;BANK1               50      0      32       7       62.5%
;BITBANK3            60      0       0       8        0.0%
;BANK3               60      0       0       9        0.0%
;BITBANK2            60      0       0      10        0.0%
;BANK2               60      0       0      11        0.0%
;DATA                 0      0      79      12        0.0%
;EEDATA             100      0       0    1000        0.0%

	global	_main
psect	maintext,local,class=CODE,delta=2
global __pmaintext
__pmaintext:

; *************** function _main *****************
; Defined at:
;		line 63 in file "D:\ABHISHEK JOSHI\PIC\LCD\T9\LCD T9.C"
; Parameters:    Size  Location     Type
;		None
; Auto vars:     Size  Location     Type
;		None
; Return value:  Size  Location     Type
;		None               void
; Registers used:
;		wreg, fsr0l, fsr0h, fsr1l, fsr1h, status,2, status,0, btemp+0, btemp+1, btemp+2, btemp+3, pclath, cstack
; Tracked objects:
;		On entry : 17F/0
;		On exit  : 0/0
;		Unchanged: 0/0
; Data sizes:     COMMON   BANK0   BANK1   BANK3   BANK2
;      Locals:         1       0       0       0       0
;      Temp:     1
;      Total:    1
; This function calls:
;		_init_lcd
;		_init
;		_cmd_wr
;		_data_wr
;		_key_release
;		_lcd_disp
; This function is called by:
;		Startup code after reset
; This function uses a non-reentrant model
; 
psect	maintext
	file	"D:\ABHISHEK JOSHI\PIC\LCD\T9\LCD T9.C"
	line	63
	global	__size_of_main
	__size_of_main	equ	__end_of_main-_main
;LCD T9.C: 62: void main()
;LCD T9.C: 63: {
	
_main:	
	opt stack 5
; Regs used in _main: [allreg]
	line	64
	
l30000685:	
;LCD T9.C: 64: TRISB=0x00;
	clrc
	movlw	0
	btfsc	status,0
	movlw	1
	bsf	status, 5	;RP0=1, select bank1
	bcf	status, 6	;RP1=0, select bank1
	movwf	(134)^080h	;volatile
	
l30000686:	
	line	65
;LCD T9.C: 65: TRISA=0x3C;
	movlw	(03Ch)
	movwf	(133)^080h	;volatile
	
l30000687:	
	line	66
;LCD T9.C: 66: TRISC=0x00;
	clrc
	movlw	0
	btfsc	status,0
	movlw	1
	movwf	(135)^080h	;volatile
	line	67
;LCD T9.C: 67: ADCON1=0x06;
	movlw	(06h)
	movwf	(159)^080h	;volatile
	
l30000688:	
	line	68
;LCD T9.C: 68: init_lcd();
	fcall	_init_lcd
	
l30000689:	
	line	69
;LCD T9.C: 69: init();
	fcall	_init
	
l30000690:	
	line	70
;LCD T9.C: 70: GIE=1;
	bcf	status, 5	;RP0=0, select bank0
	bcf	status, 6	;RP1=0, select bank0
	bsf	(95/8),(95)&7
	
l30000691:	
	line	71
;LCD T9.C: 71: PEIE=1;
	bsf	(94/8),(94)&7
	
l30000692:	
	line	74
;LCD T9.C: 74: cmd_wr(0x80);
	movlw	(080h)
	fcall	_cmd_wr
	
l30000693:	
	line	75
;LCD T9.C: 75: for(i=0;i<=12;i++)
	movlw	low(0)
	bcf	status, 5	;RP0=0, select bank0
	bcf	status, 6	;RP1=0, select bank0
	movwf	(_i)
	movlw	high(0)
	movwf	((_i))+1
	
l30000696:	
	line	77
;LCD T9.C: 76: {
;LCD T9.C: 77: data_wr(cnt[i]);
	bcf	status, 5	;RP0=0, select bank0
	bcf	status, 6	;RP1=0, select bank0
	movf	(_i),w
	addlw	(_cnt)&0ffh
	movwf	fsr0
	bcf	status, 7	;select IRP bank1
	movf	indf,w
	fcall	_data_wr
	
l30000697:	
	line	75
	movlw	low(01h)
	bcf	status, 5	;RP0=0, select bank0
	bcf	status, 6	;RP1=0, select bank0
	addwf	(_i),f
	skipnc
	incf	(_i+1),f
	movlw	high(01h)
	addwf	(_i+1),f
	
l30000698:	
	movf	(_i+1),w
	xorlw	80h
	movwf	(??_main+0+0)
	movlw	(high(0Dh))^80h
	subwf	(??_main+0+0),w
	skipz
	goto	u365
	movlw	low(0Dh)
	subwf	(_i),w
u365:

	skipc
	goto	u361
	goto	u360
u361:
	goto	l30000696
u360:
	
l30000699:	
	line	82
	movlw	01h
	bcf	status, 5	;RP0=0, select bank0
	bcf	status, 6	;RP1=0, select bank0
	xorwf	(_key_ready),w
	iorwf	(_key_ready+1),w
	skipz
	goto	u371
	goto	u370
u371:
	goto	l30000699
u370:
	
l30000700:	
	line	83
;LCD T9.C: 83: a=key_code;
	movf	(_key_code+1),w
	clrf	(_a+1)
	addwf	(_a+1)
	movf	(_key_code),w
	clrf	(_a)
	addwf	(_a)

	
l30000701:	
	line	84
;LCD T9.C: 84: ds1=ascii_tab[a];
	movf	(_a),w
	addlw	(_ascii_tab)&0ffh
	movwf	fsr0
	bcf	status, 7	;select IRP bank0
	movf	indf,w
	movwf	(_ds1)
	
l30000702:	
	line	85
;LCD T9.C: 85: key_release();
	fcall	_key_release
	
l30000703:	
	line	86
;LCD T9.C: 86: lcd_disp();
	fcall	_lcd_disp
	goto	l30000699
	global	start
	ljmp	start
	opt stack 0
GLOBAL	__end_of_main
	__end_of_main:
; =============== function _main ends ============

psect	maintext
	line	88
	signat	_main,88
	global	_lcd_disp
psect	text111,local,class=CODE,delta=2
global __ptext111
__ptext111:

; *************** function _lcd_disp *****************
; Defined at:
;		line 360 in file "D:\ABHISHEK JOSHI\PIC\LCD\T9\LCD T9.C"
; Parameters:    Size  Location     Type
;		None
; Auto vars:     Size  Location     Type
;		None
; Return value:  Size  Location     Type
;		None               void
; Registers used:
;		wreg, fsr0l, fsr0h, fsr1l, fsr1h, status,2, status,0, btemp+0, btemp+1, btemp+2, btemp+3, pclath, cstack
; Tracked objects:
;		On entry : 0/0
;		On exit  : 0/0
;		Unchanged: 0/0
; Data sizes:     COMMON   BANK0   BANK1   BANK3   BANK2
;      Locals:         0       0       0       0       0
;      Temp:     0
;      Total:    0
; This function calls:
;		_cmd_wr
;		_data_wr
; This function is called by:
;		_main
; This function uses a non-reentrant model
; 
psect	text111
	file	"D:\ABHISHEK JOSHI\PIC\LCD\T9\LCD T9.C"
	line	360
	global	__size_of_lcd_disp
	__size_of_lcd_disp	equ	__end_of_lcd_disp-_lcd_disp
;LCD T9.C: 359: void lcd_disp()
;LCD T9.C: 360: {
	
_lcd_disp:	
	opt stack 4
; Regs used in _lcd_disp: [allreg]
	line	362
	
l30000614:	
;LCD T9.C: 362: cmd_wr(0xc0);
	movlw	(0C0h)
	fcall	_cmd_wr
	line	363
;LCD T9.C: 363: data_wr(ds1);
	movf	(_ds1),w
	fcall	_data_wr
	
l67:	
	return
	opt stack 0
GLOBAL	__end_of_lcd_disp
	__end_of_lcd_disp:
; =============== function _lcd_disp ends ============

psect	text112,local,class=CODE,delta=2
global __ptext112
__ptext112:
	line	365
	signat	_lcd_disp,88
	global	_key_release

; *************** function _key_release *****************
; Defined at:
;		line 347 in file "D:\ABHISHEK JOSHI\PIC\LCD\T9\LCD T9.C"
; Parameters:    Size  Location     Type
;		None
; Auto vars:     Size  Location     Type
;		None
; Return value:  Size  Location     Type
;		None               void
; Registers used:
;		wreg
; Tracked objects:
;		On entry : 0/0
;		On exit  : 0/0
;		Unchanged: 0/0
; Data sizes:     COMMON   BANK0   BANK1   BANK3   BANK2
;      Locals:         0       0       0       0       0
;      Temp:     0
;      Total:    0
; This function calls:
;		Nothing
; This function is called by:
;		_main
; This function uses a non-reentrant model
; 
psect	text112
	file	"D:\ABHISHEK JOSHI\PIC\LCD\T9\LCD T9.C"
	line	347
	global	__size_of_key_release
	__size_of_key_release	equ	__end_of_key_release-_key_release
;LCD T9.C: 346: void key_release()
;LCD T9.C: 347: {
	
_key_release:	
	opt stack 4
; Regs used in _key_release: [wreg]
	
l30000615:	
	
l30000616:	
	line	348
	movlw	01h
	bcf	status, 5	;RP0=0, select bank0
	bcf	status, 6	;RP1=0, select bank0
	xorwf	(_nkp),w
	iorwf	(_nkp+1),w
	skipz
	goto	u271
	goto	u270
u271:
	goto	l30000616
u270:
	
l30000617:	
	line	349
;LCD T9.C: 349: key_ready=0;
	movlw	low(0)
	movwf	(_key_ready)
	movlw	high(0)
	movwf	((_key_ready))+1
	line	350
;LCD T9.C: 350: nkp=0;
	movlw	low(0)
	movwf	(_nkp)
	movlw	high(0)
	movwf	((_nkp))+1
	
l61:	
	return
	opt stack 0
GLOBAL	__end_of_key_release
	__end_of_key_release:
; =============== function _key_release ends ============

psect	text113,local,class=CODE,delta=2
global __ptext113
__ptext113:
	line	351
	signat	_key_release,88
	global	_init

; *************** function _init *****************
; Defined at:
;		line 91 in file "D:\ABHISHEK JOSHI\PIC\LCD\T9\LCD T9.C"
; Parameters:    Size  Location     Type
;		None
; Auto vars:     Size  Location     Type
;		None
; Return value:  Size  Location     Type
;		None               void
; Registers used:
;		wreg, status,2, status,0, pclath, cstack
; Tracked objects:
;		On entry : 0/0
;		On exit  : 0/0
;		Unchanged: 0/0
; Data sizes:     COMMON   BANK0   BANK1   BANK3   BANK2
;      Locals:         0       0       0       0       0
;      Temp:     0
;      Total:    0
; This function calls:
;		_init_keypad
;		_init_timer
; This function is called by:
;		_main
; This function uses a non-reentrant model
; 
psect	text113
	file	"D:\ABHISHEK JOSHI\PIC\LCD\T9\LCD T9.C"
	line	91
	global	__size_of_init
	__size_of_init	equ	__end_of_init-_init
;LCD T9.C: 90: void init()
;LCD T9.C: 91: {
	
_init:	
	opt stack 4
; Regs used in _init: [wreg+status,2+status,0+pclath+cstack]
	line	93
	
l30000618:	
;LCD T9.C: 93: init_keypad();
	fcall	_init_keypad
	line	94
;LCD T9.C: 94: init_timer();
	fcall	_init_timer
	
l13:	
	return
	opt stack 0
GLOBAL	__end_of_init
	__end_of_init:
; =============== function _init ends ============

psect	text114,local,class=CODE,delta=2
global __ptext114
__ptext114:
	line	95
	signat	_init,88
	global	_init_lcd

; *************** function _init_lcd *****************
; Defined at:
;		line 368 in file "D:\ABHISHEK JOSHI\PIC\LCD\T9\LCD T9.C"
; Parameters:    Size  Location     Type
;		None
; Auto vars:     Size  Location     Type
;		None
; Return value:  Size  Location     Type
;		None               void
; Registers used:
;		wreg, status,2, status,0, pclath, cstack
; Tracked objects:
;		On entry : 0/0
;		On exit  : 0/0
;		Unchanged: 0/0
; Data sizes:     COMMON   BANK0   BANK1   BANK3   BANK2
;      Locals:         0       0       0       0       0
;      Temp:     0
;      Total:    0
; This function calls:
;		_lcd_delay
;		_cmd_wr
; This function is called by:
;		_main
; This function uses a non-reentrant model
; 
psect	text114
	file	"D:\ABHISHEK JOSHI\PIC\LCD\T9\LCD T9.C"
	line	368
	global	__size_of_init_lcd
	__size_of_init_lcd	equ	__end_of_init_lcd-_init_lcd
;LCD T9.C: 367: void init_lcd()
;LCD T9.C: 368: {
	
_init_lcd:	
	opt stack 4
; Regs used in _init_lcd: [wreg+status,2+status,0+pclath+cstack]
	line	369
	
l30000668:	
;LCD T9.C: 369: lcd_delay (3);
	movlw	low(03h)
	movwf	(?_lcd_delay)
	movlw	high(03h)
	movwf	((?_lcd_delay))+1
	fcall	_lcd_delay
	line	370
;LCD T9.C: 370: lcd_delay (3);
	movlw	low(03h)
	movwf	(?_lcd_delay)
	movlw	high(03h)
	movwf	((?_lcd_delay))+1
	fcall	_lcd_delay
	line	371
;LCD T9.C: 371: lcd_delay (3);
	movlw	low(03h)
	movwf	(?_lcd_delay)
	movlw	high(03h)
	movwf	((?_lcd_delay))+1
	fcall	_lcd_delay
	
l30000669:	
	line	373
;LCD T9.C: 373: cmd_data=0x03;
	movlw	(03h)
	movwf	(_cmd_data)
	
l30000670:	
	line	374
;LCD T9.C: 374: cmd_wr(cmd_data);
	movlw	(03h)
	fcall	_cmd_wr
	
l30000671:	
	line	375
;LCD T9.C: 375: lcd_delay(3);
	movlw	low(03h)
	movwf	(?_lcd_delay)
	movlw	high(03h)
	movwf	((?_lcd_delay))+1
	fcall	_lcd_delay
	
l30000672:	
	line	377
;LCD T9.C: 377: cmd_data=0x03;
	movlw	(03h)
	movwf	(_cmd_data)
	line	378
;LCD T9.C: 378: cmd_wr(cmd_data);
	movlw	(03h)
	fcall	_cmd_wr
	line	379
;LCD T9.C: 379: lcd_delay(3);
	movlw	low(03h)
	movwf	(?_lcd_delay)
	movlw	high(03h)
	movwf	((?_lcd_delay))+1
	fcall	_lcd_delay
	
l30000673:	
	line	381
;LCD T9.C: 381: cmd_data=0x03;
	movlw	(03h)
	movwf	(_cmd_data)
	
l30000674:	
	line	382
;LCD T9.C: 382: cmd_wr(cmd_data);
	movlw	(03h)
	fcall	_cmd_wr
	
l30000675:	
	line	383
;LCD T9.C: 383: lcd_delay(3);
	movlw	low(03h)
	movwf	(?_lcd_delay)
	movlw	high(03h)
	movwf	((?_lcd_delay))+1
	fcall	_lcd_delay
	
l30000676:	
	line	385
;LCD T9.C: 385: cmd_data=0x20;
	movlw	(020h)
	movwf	(_cmd_data)
	line	386
;LCD T9.C: 386: cmd_wr(cmd_data);
	movlw	(020h)
	fcall	_cmd_wr
	line	387
;LCD T9.C: 387: lcd_delay(3);
	movlw	low(03h)
	movwf	(?_lcd_delay)
	movlw	high(03h)
	movwf	((?_lcd_delay))+1
	fcall	_lcd_delay
	
l30000677:	
	line	389
;LCD T9.C: 389: cmd_data=0x28;
	movlw	(028h)
	movwf	(_cmd_data)
	
l30000678:	
	line	390
;LCD T9.C: 390: cmd_wr(cmd_data);
	movlw	(028h)
	fcall	_cmd_wr
	
l30000679:	
	line	391
;LCD T9.C: 391: lcd_delay(3);
	movlw	low(03h)
	movwf	(?_lcd_delay)
	movlw	high(03h)
	movwf	((?_lcd_delay))+1
	fcall	_lcd_delay
	
l30000680:	
	line	393
;LCD T9.C: 393: cmd_data=0x06;
	movlw	(06h)
	movwf	(_cmd_data)
	line	394
;LCD T9.C: 394: cmd_wr(cmd_data);
	movlw	(06h)
	fcall	_cmd_wr
	line	395
;LCD T9.C: 395: lcd_delay(3);
	movlw	low(03h)
	movwf	(?_lcd_delay)
	movlw	high(03h)
	movwf	((?_lcd_delay))+1
	fcall	_lcd_delay
	
l30000681:	
	line	397
;LCD T9.C: 397: cmd_data=0x01;
	clrf	(_cmd_data)
	bsf	status,0
	rlf	(_cmd_data),f
	
l30000682:	
	line	398
;LCD T9.C: 398: cmd_wr(cmd_data);
	movlw	(01h)
	fcall	_cmd_wr
	
l30000683:	
	line	399
;LCD T9.C: 399: lcd_delay(3);
	movlw	low(03h)
	movwf	(?_lcd_delay)
	movlw	high(03h)
	movwf	((?_lcd_delay))+1
	fcall	_lcd_delay
	
l30000684:	
	line	401
;LCD T9.C: 401: RB0=0;
	bcf	status, 5	;RP0=0, select bank0
	bcf	status, 6	;RP1=0, select bank0
	bcf	(48/8),(48)&7
	
l68:	
	return
	opt stack 0
GLOBAL	__end_of_init_lcd
	__end_of_init_lcd:
; =============== function _init_lcd ends ============

psect	text115,local,class=CODE,delta=2
global __ptext115
__ptext115:
	line	402
	signat	_init_lcd,88
	global	_init_timer

; *************** function _init_timer *****************
; Defined at:
;		line 98 in file "D:\ABHISHEK JOSHI\PIC\LCD\T9\LCD T9.C"
; Parameters:    Size  Location     Type
;		None
; Auto vars:     Size  Location     Type
;		None
; Return value:  Size  Location     Type
;		None               void
; Registers used:
;		wreg
; Tracked objects:
;		On entry : 0/0
;		On exit  : 0/0
;		Unchanged: 0/0
; Data sizes:     COMMON   BANK0   BANK1   BANK3   BANK2
;      Locals:         0       0       0       0       0
;      Temp:     0
;      Total:    0
; This function calls:
;		Nothing
; This function is called by:
;		_init
; This function uses a non-reentrant model
; 
psect	text115
	file	"D:\ABHISHEK JOSHI\PIC\LCD\T9\LCD T9.C"
	line	98
	global	__size_of_init_timer
	__size_of_init_timer	equ	__end_of_init_timer-_init_timer
;LCD T9.C: 97: void init_timer()
;LCD T9.C: 98: {
	
_init_timer:	
	opt stack 3
; Regs used in _init_timer: [wreg]
	line	99
	
l30000639:	
;LCD T9.C: 99: TMR1H=0xFC;
	movlw	(0FCh)
	bcf	status, 5	;RP0=0, select bank0
	bcf	status, 6	;RP1=0, select bank0
	movwf	(15)	;volatile
	line	100
;LCD T9.C: 100: TMR1L=0x18;
	movlw	(018h)
	movwf	(14)	;volatile
	line	101
;LCD T9.C: 101: T1CON=0x01;
	movlw	(01h)
	movwf	(16)	;volatile
	
l30000640:	
	line	102
;LCD T9.C: 102: TMR1IE=1;
	bsf	status, 5	;RP0=1, select bank1
	bcf	status, 6	;RP1=0, select bank1
	bsf	(1120/8)^080h,(1120)&7
	
l30000641:	
	line	103
;LCD T9.C: 103: TMR1IF=0;
	bcf	status, 5	;RP0=0, select bank0
	bcf	status, 6	;RP1=0, select bank0
	bcf	(96/8),(96)&7
	
l14:	
	return
	opt stack 0
GLOBAL	__end_of_init_timer
	__end_of_init_timer:
; =============== function _init_timer ends ============

psect	text116,local,class=CODE,delta=2
global __ptext116
__ptext116:
	line	104
	signat	_init_timer,88
	global	_data_wr

; *************** function _data_wr *****************
; Defined at:
;		line 417 in file "D:\ABHISHEK JOSHI\PIC\LCD\T9\LCD T9.C"
; Parameters:    Size  Location     Type
;  var_data        1    wreg     unsigned char 
; Auto vars:     Size  Location     Type
;  var_data        1    3[COMMON] unsigned char 
; Return value:  Size  Location     Type
;		None               void
; Registers used:
;		wreg, status,2, status,0, pclath, cstack
; Tracked objects:
;		On entry : 0/0
;		On exit  : 0/0
;		Unchanged: 0/0
; Data sizes:     COMMON   BANK0   BANK1   BANK3   BANK2
;      Locals:         2       0       0       0       0
;      Temp:     1
;      Total:    2
; This function calls:
;		_data_mapping
;		_toggle
; This function is called by:
;		_main
;		_lcd_disp
; This function uses a non-reentrant model
; 
psect	text116
	file	"D:\ABHISHEK JOSHI\PIC\LCD\T9\LCD T9.C"
	line	417
	global	__size_of_data_wr
	__size_of_data_wr	equ	__end_of_data_wr-_data_wr
;LCD T9.C: 416: void data_wr(unsigned char var_data)
;LCD T9.C: 417: {
	
_data_wr:	
	opt stack 3
; Regs used in _data_wr: [wreg+status,2+status,0+pclath+cstack]
;data_wr@var_data stored from wreg
	movwf	(data_wr@var_data)
	
l30000642:	
	line	418
;LCD T9.C: 418: RB1=1;
	bcf	status, 5	;RP0=0, select bank0
	bcf	status, 6	;RP1=0, select bank0
	bsf	(49/8),(49)&7
	line	419
;LCD T9.C: 419: RB2=0;
	bcf	(50/8),(50)&7
	
l30000643:	
	line	420
;LCD T9.C: 420: data_mapping(var_data);
	movf	(data_wr@var_data),w
	fcall	_data_mapping
	
l30000644:	
	line	421
;LCD T9.C: 421: toggle();
	fcall	_toggle
	
l30000645:	
	line	422
;LCD T9.C: 422: var_data=var_data<<4;
	movf	(data_wr@var_data),w
	movwf	(??_data_wr+0+0)
	movlw	(04h)-1
u285:
	clrc
	rlf	(??_data_wr+0+0),f
	addlw	-1
	skipz
	goto	u285
	clrc
	rlf	(??_data_wr+0+0),w
	movwf	(data_wr@var_data)
	
l30000646:	
	line	423
;LCD T9.C: 423: data_mapping(var_data);
	movf	(data_wr@var_data),w
	fcall	_data_mapping
	
l30000647:	
	line	424
;LCD T9.C: 424: toggle();
	fcall	_toggle
	
l70:	
	return
	opt stack 0
GLOBAL	__end_of_data_wr
	__end_of_data_wr:
; =============== function _data_wr ends ============

psect	text117,local,class=CODE,delta=2
global __ptext117
__ptext117:
	line	425
	signat	_data_wr,4216
	global	_init_keypad

; *************** function _init_keypad *****************
; Defined at:
;		line 115 in file "D:\ABHISHEK JOSHI\PIC\LCD\T9\LCD T9.C"
; Parameters:    Size  Location     Type
;		None
; Auto vars:     Size  Location     Type
;		None
; Return value:  Size  Location     Type
;		None               void
; Registers used:
;		wreg
; Tracked objects:
;		On entry : 0/0
;		On exit  : 0/0
;		Unchanged: 0/0
; Data sizes:     COMMON   BANK0   BANK1   BANK3   BANK2
;      Locals:         0       0       0       0       0
;      Temp:     0
;      Total:    0
; This function calls:
;		Nothing
; This function is called by:
;		_init
; This function uses a non-reentrant model
; 
psect	text117
	file	"D:\ABHISHEK JOSHI\PIC\LCD\T9\LCD T9.C"
	line	115
	global	__size_of_init_keypad
	__size_of_init_keypad	equ	__end_of_init_keypad-_init_keypad
;LCD T9.C: 114: void init_keypad()
;LCD T9.C: 115: {
	
_init_keypad:	
	opt stack 3
; Regs used in _init_keypad: [wreg]
	line	116
	
l30000648:	
;LCD T9.C: 116: RA2=1;
	bcf	status, 5	;RP0=0, select bank0
	bcf	status, 6	;RP1=0, select bank0
	bsf	(42/8),(42)&7
	line	117
;LCD T9.C: 117: RA3=1;
	bsf	(43/8),(43)&7
	line	118
;LCD T9.C: 118: RA4=1;
	bsf	(44/8),(44)&7
	line	119
;LCD T9.C: 119: RA5=1;
	bsf	(45/8),(45)&7
	
l30000649:	
	line	120
;LCD T9.C: 120: scan_no=0;
	movlw	low(0)
	movwf	(_scan_no)
	movlw	high(0)
	movwf	((_scan_no))+1
	line	121
;LCD T9.C: 121: dcount=33;
	movlw	low(021h)
	movwf	(_dcount)
	movlw	high(021h)
	movwf	((_dcount))+1
	line	122
;LCD T9.C: 122: krcount=32;
	movlw	low(020h)
	movwf	(_krcount)
	movlw	high(020h)
	movwf	((_krcount))+1
	line	123
;LCD T9.C: 123: key_ready=0;
	movlw	low(0)
	movwf	(_key_ready)
	movlw	high(0)
	movwf	((_key_ready))+1
	line	124
;LCD T9.C: 124: nkp=0;
	movlw	low(0)
	movwf	(_nkp)
	movlw	high(0)
	movwf	((_nkp))+1
	line	125
;LCD T9.C: 125: start_buzzer=0;
	movlw	low(0)
	movwf	(_start_buzzer)
	movlw	high(0)
	movwf	((_start_buzzer))+1
	
l16:	
	return
	opt stack 0
GLOBAL	__end_of_init_keypad
	__end_of_init_keypad:
; =============== function _init_keypad ends ============

psect	text118,local,class=CODE,delta=2
global __ptext118
__ptext118:
	line	126
	signat	_init_keypad,88
	global	_lcd_delay

; *************** function _lcd_delay *****************
; Defined at:
;		line 445 in file "D:\ABHISHEK JOSHI\PIC\LCD\T9\LCD T9.C"
; Parameters:    Size  Location     Type
;  x               2    3[COMMON] unsigned int 
; Auto vars:     Size  Location     Type
;  j               2    2[BANK0 ] unsigned int 
;  i               2    0[BANK0 ] unsigned int 
; Return value:  Size  Location     Type
;		None               void
; Registers used:
;		wreg
; Tracked objects:
;		On entry : 0/0
;		On exit  : 0/0
;		Unchanged: 0/0
; Data sizes:     COMMON   BANK0   BANK1   BANK3   BANK2
;      Locals:         5       4       0       0       0
;      Temp:     3
;      Total:    9
; This function calls:
;		Nothing
; This function is called by:
;		_init_lcd
; This function uses a non-reentrant model
; 
psect	text118
	file	"D:\ABHISHEK JOSHI\PIC\LCD\T9\LCD T9.C"
	line	445
	global	__size_of_lcd_delay
	__size_of_lcd_delay	equ	__end_of_lcd_delay-_lcd_delay
;LCD T9.C: 444: void lcd_delay(unsigned int x)
;LCD T9.C: 445: {
	
_lcd_delay:	
	opt stack 3
; Regs used in _lcd_delay: [wreg]
	line	448
	
l30000663:	
;LCD T9.C: 446: unsigned int i,j;
;LCD T9.C: 448: for (i=0;i<=2*x;i++)
	movlw	low(0)
	bcf	status, 5	;RP0=0, select bank0
	bcf	status, 6	;RP1=0, select bank0
	movwf	(lcd_delay@i)
	movlw	high(0)
	movwf	((lcd_delay@i))+1
	goto	l77
	
l30000664:	
	line	450
;LCD T9.C: 449: {
;LCD T9.C: 450: for (j=0;j<=120;j++);
	movlw	low(0)
	movwf	(lcd_delay@j)
	movlw	high(0)
	movwf	((lcd_delay@j))+1
	
l30000666:	
	movlw	low(01h)
	addwf	(lcd_delay@j),f
	skipnc
	incf	(lcd_delay@j+1),f
	movlw	high(01h)
	addwf	(lcd_delay@j+1),f
	movlw	high(079h)
	subwf	(lcd_delay@j+1),w
	movlw	low(079h)
	skipnz
	subwf	(lcd_delay@j),w
	skipc
	goto	u331
	goto	u330
u331:
	goto	l30000666
u330:
	
l30000667:	
	line	448
	movlw	low(01h)
	addwf	(lcd_delay@i),f
	skipnc
	incf	(lcd_delay@i+1),f
	movlw	high(01h)
	addwf	(lcd_delay@i+1),f
	
l77:	
	movf	(lcd_delay@x+1),w
	movwf	(??_lcd_delay+0+0+1)
	movf	(lcd_delay@x),w
	movwf	(??_lcd_delay+0+0)
	movlw	01h
	movwf	(??_lcd_delay+2+0)
u345:
	clrc
	rlf	(??_lcd_delay+0+0),f
	rlf	(??_lcd_delay+0+1),f
	decfsz	(??_lcd_delay+2+0),f
	goto	u345
	movf	(lcd_delay@i+1),w
	subwf	1+(??_lcd_delay+0+0),w
	skipz
	goto	u355
	movf	(lcd_delay@i),w
	subwf	0+(??_lcd_delay+0+0),w
u355:
	skipnc
	goto	u351
	goto	u350
u351:
	goto	l30000664
u350:
	
l73:	
	return
	opt stack 0
GLOBAL	__end_of_lcd_delay
	__end_of_lcd_delay:
; =============== function _lcd_delay ends ============

psect	text119,local,class=CODE,delta=2
global __ptext119
__ptext119:
	line	452
	signat	_lcd_delay,4216
	global	_cmd_wr

; *************** function _cmd_wr *****************
; Defined at:
;		line 406 in file "D:\ABHISHEK JOSHI\PIC\LCD\T9\LCD T9.C"
; Parameters:    Size  Location     Type
;  var_data        1    wreg     unsigned char 
; Auto vars:     Size  Location     Type
;  var_data        1    3[COMMON] unsigned char 
; Return value:  Size  Location     Type
;		None               void
; Registers used:
;		wreg, status,2, status,0, pclath, cstack
; Tracked objects:
;		On entry : 0/0
;		On exit  : 0/0
;		Unchanged: 0/0
; Data sizes:     COMMON   BANK0   BANK1   BANK3   BANK2
;      Locals:         2       0       0       0       0
;      Temp:     1
;      Total:    2
; This function calls:
;		_data_mapping
;		_toggle
; This function is called by:
;		_main
;		_lcd_disp
;		_init_lcd
; This function uses a non-reentrant model
; 
psect	text119
	file	"D:\ABHISHEK JOSHI\PIC\LCD\T9\LCD T9.C"
	line	406
	global	__size_of_cmd_wr
	__size_of_cmd_wr	equ	__end_of_cmd_wr-_cmd_wr
;LCD T9.C: 405: void cmd_wr(unsigned char var_data)
;LCD T9.C: 406: {
	
_cmd_wr:	
	opt stack 3
; Regs used in _cmd_wr: [wreg+status,2+status,0+pclath+cstack]
;cmd_wr@var_data stored from wreg
	movwf	(cmd_wr@var_data)
	
l30000655:	
	line	407
;LCD T9.C: 407: RB1=RB2=0;
	bcf	status, 5	;RP0=0, select bank0
	bcf	status, 6	;RP1=0, select bank0
	bcf	(50/8),(50)&7
	bcf	(49/8),(49)&7
	
l30000656:	
	line	408
;LCD T9.C: 408: data_mapping(var_data);
	movf	(cmd_wr@var_data),w
	fcall	_data_mapping
	
l30000657:	
	line	409
;LCD T9.C: 409: toggle();
	fcall	_toggle
	
l30000658:	
	line	410
;LCD T9.C: 410: var_data=var_data<<4;
	movf	(cmd_wr@var_data),w
	movwf	(??_cmd_wr+0+0)
	movlw	(04h)-1
u325:
	clrc
	rlf	(??_cmd_wr+0+0),f
	addlw	-1
	skipz
	goto	u325
	clrc
	rlf	(??_cmd_wr+0+0),w
	movwf	(cmd_wr@var_data)
	
l30000659:	
	line	411
;LCD T9.C: 411: data_mapping(var_data);
	movf	(cmd_wr@var_data),w
	fcall	_data_mapping
	
l30000660:	
	line	412
;LCD T9.C: 412: toggle();
	fcall	_toggle
	
l69:	
	return
	opt stack 0
GLOBAL	__end_of_cmd_wr
	__end_of_cmd_wr:
; =============== function _cmd_wr ends ============

psect	text120,local,class=CODE,delta=2
global __ptext120
__ptext120:
	line	413
	signat	_cmd_wr,4216
	global	_data_mapping

; *************** function _data_mapping *****************
; Defined at:
;		line 429 in file "D:\ABHISHEK JOSHI\PIC\LCD\T9\LCD T9.C"
; Parameters:    Size  Location     Type
;  var_data1       1    wreg     unsigned char 
; Auto vars:     Size  Location     Type
;  var_data1       1    1[COMMON] unsigned char 
; Return value:  Size  Location     Type
;		None               void
; Registers used:
;		wreg, status,2, status,0
; Tracked objects:
;		On entry : 0/0
;		On exit  : 0/0
;		Unchanged: 0/0
; Data sizes:     COMMON   BANK0   BANK1   BANK3   BANK2
;      Locals:         2       0       0       0       0
;      Temp:     1
;      Total:    2
; This function calls:
;		Nothing
; This function is called by:
;		_cmd_wr
;		_data_wr
; This function uses a non-reentrant model
; 
psect	text120
	file	"D:\ABHISHEK JOSHI\PIC\LCD\T9\LCD T9.C"
	line	429
	global	__size_of_data_mapping
	__size_of_data_mapping	equ	__end_of_data_mapping-_data_mapping
;LCD T9.C: 428: void data_mapping(unsigned char var_data1)
;LCD T9.C: 429: {
	
_data_mapping:	
	opt stack 2
; Regs used in _data_mapping: [wreg+status,2+status,0]
;data_mapping@var_data1 stored from wreg
	movwf	(data_mapping@var_data1)
	
l30000661:	
	line	430
;LCD T9.C: 430: PORTB=(var_data1&0xf0)|(PORTB&0x0f);
	bcf	status, 5	;RP0=0, select bank0
	bcf	status, 6	;RP1=0, select bank0
	movf	(6),w	;volatile
	andlw	0Fh
	movwf	(??_data_mapping+0+0)
	movf	(data_mapping@var_data1),w
	andlw	0F0h
	iorwf	(??_data_mapping+0+0),w
	movwf	(6)	;volatile
	
l71:	
	return
	opt stack 0
GLOBAL	__end_of_data_mapping
	__end_of_data_mapping:
; =============== function _data_mapping ends ============

psect	text121,local,class=CODE,delta=2
global __ptext121
__ptext121:
	line	431
	signat	_data_mapping,4216
	global	_toggle

; *************** function _toggle *****************
; Defined at:
;		line 434 in file "D:\ABHISHEK JOSHI\PIC\LCD\T9\LCD T9.C"
; Parameters:    Size  Location     Type
;		None
; Auto vars:     Size  Location     Type
;		None
; Return value:  Size  Location     Type
;		None               void
; Registers used:
;		None
; Tracked objects:
;		On entry : 0/0
;		On exit  : 0/0
;		Unchanged: 0/0
; Data sizes:     COMMON   BANK0   BANK1   BANK3   BANK2
;      Locals:         0       0       0       0       0
;      Temp:     0
;      Total:    0
; This function calls:
;		Nothing
; This function is called by:
;		_cmd_wr
;		_data_wr
; This function uses a non-reentrant model
; 
psect	text121
	file	"D:\ABHISHEK JOSHI\PIC\LCD\T9\LCD T9.C"
	line	434
	global	__size_of_toggle
	__size_of_toggle	equ	__end_of_toggle-_toggle
;LCD T9.C: 433: void toggle()
;LCD T9.C: 434: {
	
_toggle:	
	opt stack 2
; Regs used in _toggle: []
	line	435
	
l30000662:	
;LCD T9.C: 435: RB3=1;
	bcf	status, 5	;RP0=0, select bank0
	bcf	status, 6	;RP1=0, select bank0
	bsf	(51/8),(51)&7
	line	441
;LCD T9.C: 436: ;
;LCD T9.C: 437: ;
;LCD T9.C: 438: ;
;LCD T9.C: 439: ;
;LCD T9.C: 440: ;
;LCD T9.C: 441: RB3=0;
	bcf	(51/8),(51)&7
	
l72:	
	return
	opt stack 0
GLOBAL	__end_of_toggle
	__end_of_toggle:
; =============== function _toggle ends ============

psect	text122,local,class=CODE,delta=2
global __ptext122
__ptext122:
	line	442
	signat	_toggle,88
	global	_isr_t0

; *************** function _isr_t0 *****************
; Defined at:
;		line 56 in file "D:\ABHISHEK JOSHI\PIC\LCD\T9\LCD T9.C"
; Parameters:    Size  Location     Type
;		None
; Auto vars:     Size  Location     Type
;		None
; Return value:  Size  Location     Type
;		None               void
; Registers used:
;		wreg, fsr0l, fsr0h, status,2, status,0, pclath, cstack
; Tracked objects:
;		On entry : 0/0
;		On exit  : 0/0
;		Unchanged: 0/0
; Data sizes:     COMMON   BANK0   BANK1   BANK3   BANK2
;      Locals:         0       4       0       0       0
;      Temp:     4
;      Total:    4
; This function calls:
;		i1_init_timer
;		_buzzer
;		_scanner
; This function is called by:
;		Interrupt level 1
; This function uses a non-reentrant model
; 
psect	text122
	file	"D:\ABHISHEK JOSHI\PIC\LCD\T9\LCD T9.C"
	line	56
	global	__size_of_isr_t0
	__size_of_isr_t0	equ	__end_of_isr_t0-_isr_t0
;pic168xa.h: 19: volatile unsigned char INDF @ 0x00;
;pic168xa.h: 20: volatile unsigned char TMR0 @ 0x01;
;pic168xa.h: 21: volatile unsigned char PCL @ 0x02;
;pic168xa.h: 22: volatile unsigned char STATUS @ 0x03;
;pic168xa.h: 23: unsigned char FSR @ 0x04;
;pic168xa.h: 24: volatile unsigned char PORTA @ 0x05;
;pic168xa.h: 25: volatile unsigned char PORTB @ 0x06;
;pic168xa.h: 26: volatile unsigned char PORTC @ 0x07;
;pic168xa.h: 31: unsigned char PCLATH @ 0x0A;
;pic168xa.h: 32: volatile unsigned char INTCON @ 0x0B;
	
_isr_t0:	
	opt stack 5
; Regs used in _isr_t0: [wreg-fsr0h+status,2+status,0+pclath+cstack]
psect	intentry,class=CODE,delta=2
global __pintentry
__pintentry:
global interrupt_function
interrupt_function:
	global saved_w
	saved_w	set	btemp+1
	movwf	saved_w
	movf	status,w
	bcf	status, 5	;RP0=0, select bank0
	bcf	status, 6	;RP1=0, select bank0
	movwf	(??_isr_t0+0)
	movf	fsr0,w
	movwf	(??_isr_t0+1)
	movf	pclath,w
	movwf	(??_isr_t0+2)
	movf	btemp+0,w
	movwf	(??_isr_t0+3)
	ljmp	_isr_t0
psect	text122
	line	57
	
i1l30000588:	
;LCD T9.C: 57: init_timer();
	fcall	i1_init_timer
	line	58
;LCD T9.C: 58: buzzer();
	fcall	_buzzer
	
i1l30000589:	
	line	59
;LCD T9.C: 59: scanner();
	fcall	_scanner
	
i1l2:	
	bcf	status, 5	;RP0=0, select bank0
	bcf	status, 6	;RP1=0, select bank0
	movf	(??_isr_t0+3),w
	movwf	btemp+0
	movf	(??_isr_t0+2),w
	movwf	pclath
	movf	(??_isr_t0+1),w
	movwf	fsr0
	movf	(??_isr_t0+0),w
	movwf	status
	swapf	saved_w,f
	swapf	saved_w,w
	retfie
	opt stack 0
GLOBAL	__end_of_isr_t0
	__end_of_isr_t0:
; =============== function _isr_t0 ends ============

psect	text123,local,class=CODE,delta=2
global __ptext123
__ptext123:
	line	60
	signat	_isr_t0,88
	global	_scanner

; *************** function _scanner *****************
; Defined at:
;		line 129 in file "D:\ABHISHEK JOSHI\PIC\LCD\T9\LCD T9.C"
; Parameters:    Size  Location     Type
;		None
; Auto vars:     Size  Location     Type
;		None
; Return value:  Size  Location     Type
;		None               void
; Registers used:
;		wreg, fsr0l, fsr0h, status,2, status,0, pclath, cstack
; Tracked objects:
;		On entry : 0/0
;		On exit  : 0/0
;		Unchanged: 0/0
; Data sizes:     COMMON   BANK0   BANK1   BANK3   BANK2
;      Locals:         0       2       0       0       0
;      Temp:     2
;      Total:    2
; This function calls:
;		_k1
; This function is called by:
;		_isr_t0
; This function uses a non-reentrant model
; 
psect	text123
	file	"D:\ABHISHEK JOSHI\PIC\LCD\T9\LCD T9.C"
	line	129
	global	__size_of_scanner
	__size_of_scanner	equ	__end_of_scanner-_scanner
;LCD T9.C: 128: void scanner()
;LCD T9.C: 129: {
	
_scanner:	
	opt stack 4
; Regs used in _scanner: [wreg-fsr0h+status,2+status,0+pclath+cstack]
	
i1l30000537:	
	goto	i1l30000587
	
i1l20:	
	line	133
;LCD T9.C: 133: RA1=0;
	bcf	(41/8),(41)&7
	line	134
;LCD T9.C: 134: RC0=1;
	bsf	(56/8),(56)&7
	line	135
;LCD T9.C: 135: RC1=1;
	bsf	(57/8),(57)&7
	line	136
;LCD T9.C: 136: RC2=1;
	bsf	(58/8),(58)&7
	
i1l30000538:	
	line	138
;LCD T9.C: 138: c=RA2;
	clrc
	btfsc	(42/8),(42)&7
	setc
	movlw	0
	skipnc
	movlw	1

	movwf	(??_scanner+0+0)
	clrf	(??_scanner+0+0+1)
	movf	0+(??_scanner+0+0),w
	movwf	(_c)
	movf	1+(??_scanner+0+0),w
	movwf	(_c+1)
	
i1l30000539:	
	line	139
;LCD T9.C: 139: k1();
	fcall	_k1
	
i1l30000540:	
	line	140
;LCD T9.C: 140: scan_no=1;
	movlw	low(01h)
	bcf	status, 5	;RP0=0, select bank0
	bcf	status, 6	;RP1=0, select bank0
	movwf	(_scan_no)
	movlw	high(01h)
	movwf	((_scan_no))+1
	goto	i1l17
	
i1l30000541:	
	line	144
;LCD T9.C: 144: c=RA3;
	clrc
	btfsc	(43/8),(43)&7
	setc
	movlw	0
	skipnc
	movlw	1

	movwf	(??_scanner+0+0)
	clrf	(??_scanner+0+0+1)
	movf	0+(??_scanner+0+0),w
	movwf	(_c)
	movf	1+(??_scanner+0+0),w
	movwf	(_c+1)
	
i1l30000542:	
	line	145
;LCD T9.C: 145: k1();
	fcall	_k1
	
i1l30000543:	
	line	146
;LCD T9.C: 146: scan_no=2;
	movlw	low(02h)
	bcf	status, 5	;RP0=0, select bank0
	bcf	status, 6	;RP1=0, select bank0
	movwf	(_scan_no)
	movlw	high(02h)
	movwf	((_scan_no))+1
	goto	i1l17
	
i1l30000544:	
	line	150
;LCD T9.C: 150: c=RA4;
	clrc
	btfsc	(44/8),(44)&7
	setc
	movlw	0
	skipnc
	movlw	1

	movwf	(??_scanner+0+0)
	clrf	(??_scanner+0+0+1)
	movf	0+(??_scanner+0+0),w
	movwf	(_c)
	movf	1+(??_scanner+0+0),w
	movwf	(_c+1)
	
i1l30000545:	
	line	151
;LCD T9.C: 151: k1();
	fcall	_k1
	
i1l30000546:	
	line	152
;LCD T9.C: 152: scan_no=3;
	movlw	low(03h)
	bcf	status, 5	;RP0=0, select bank0
	bcf	status, 6	;RP1=0, select bank0
	movwf	(_scan_no)
	movlw	high(03h)
	movwf	((_scan_no))+1
	goto	i1l17
	
i1l30000547:	
	line	157
;LCD T9.C: 157: c=RA5;
	clrc
	btfsc	(45/8),(45)&7
	setc
	movlw	0
	skipnc
	movlw	1

	movwf	(??_scanner+0+0)
	clrf	(??_scanner+0+0+1)
	movf	0+(??_scanner+0+0),w
	movwf	(_c)
	movf	1+(??_scanner+0+0),w
	movwf	(_c+1)
	
i1l30000548:	
	line	158
;LCD T9.C: 158: k1();
	fcall	_k1
	
i1l30000549:	
	line	159
;LCD T9.C: 159: scan_no=4;
	movlw	low(04h)
	bcf	status, 5	;RP0=0, select bank0
	bcf	status, 6	;RP1=0, select bank0
	movwf	(_scan_no)
	movlw	high(04h)
	movwf	((_scan_no))+1
	goto	i1l17
	
i1l24:	
	line	163
;LCD T9.C: 163: RA1=1;
	bsf	(41/8),(41)&7
	line	164
;LCD T9.C: 164: RC0=0;
	bcf	(56/8),(56)&7
	line	165
;LCD T9.C: 165: RC1=1;
	bsf	(57/8),(57)&7
	line	166
;LCD T9.C: 166: RC2=1;
	bsf	(58/8),(58)&7
	
i1l30000550:	
	line	168
;LCD T9.C: 168: c=RA2;
	clrc
	btfsc	(42/8),(42)&7
	setc
	movlw	0
	skipnc
	movlw	1

	movwf	(??_scanner+0+0)
	clrf	(??_scanner+0+0+1)
	movf	0+(??_scanner+0+0),w
	movwf	(_c)
	movf	1+(??_scanner+0+0),w
	movwf	(_c+1)
	
i1l30000551:	
	line	169
;LCD T9.C: 169: k1();
	fcall	_k1
	
i1l30000552:	
	line	170
;LCD T9.C: 170: scan_no=5;
	movlw	low(05h)
	bcf	status, 5	;RP0=0, select bank0
	bcf	status, 6	;RP1=0, select bank0
	movwf	(_scan_no)
	movlw	high(05h)
	movwf	((_scan_no))+1
	goto	i1l17
	
i1l30000553:	
	line	174
;LCD T9.C: 174: c=RA3;
	clrc
	btfsc	(43/8),(43)&7
	setc
	movlw	0
	skipnc
	movlw	1

	movwf	(??_scanner+0+0)
	clrf	(??_scanner+0+0+1)
	movf	0+(??_scanner+0+0),w
	movwf	(_c)
	movf	1+(??_scanner+0+0),w
	movwf	(_c+1)
	
i1l30000554:	
	line	175
;LCD T9.C: 175: k1();
	fcall	_k1
	
i1l30000555:	
	line	176
;LCD T9.C: 176: scan_no=6;
	movlw	low(06h)
	bcf	status, 5	;RP0=0, select bank0
	bcf	status, 6	;RP1=0, select bank0
	movwf	(_scan_no)
	movlw	high(06h)
	movwf	((_scan_no))+1
	goto	i1l17
	
i1l30000556:	
	line	180
;LCD T9.C: 180: c=RA4;
	clrc
	btfsc	(44/8),(44)&7
	setc
	movlw	0
	skipnc
	movlw	1

	movwf	(??_scanner+0+0)
	clrf	(??_scanner+0+0+1)
	movf	0+(??_scanner+0+0),w
	movwf	(_c)
	movf	1+(??_scanner+0+0),w
	movwf	(_c+1)
	
i1l30000557:	
	line	181
;LCD T9.C: 181: k1();
	fcall	_k1
	
i1l30000558:	
	line	182
;LCD T9.C: 182: scan_no=7;
	movlw	low(07h)
	bcf	status, 5	;RP0=0, select bank0
	bcf	status, 6	;RP1=0, select bank0
	movwf	(_scan_no)
	movlw	high(07h)
	movwf	((_scan_no))+1
	goto	i1l17
	
i1l30000559:	
	line	187
;LCD T9.C: 187: c=RA5;
	clrc
	btfsc	(45/8),(45)&7
	setc
	movlw	0
	skipnc
	movlw	1

	movwf	(??_scanner+0+0)
	clrf	(??_scanner+0+0+1)
	movf	0+(??_scanner+0+0),w
	movwf	(_c)
	movf	1+(??_scanner+0+0),w
	movwf	(_c+1)
	
i1l30000560:	
	line	188
;LCD T9.C: 188: k1();
	fcall	_k1
	
i1l30000561:	
	line	189
;LCD T9.C: 189: scan_no=8;
	movlw	low(08h)
	bcf	status, 5	;RP0=0, select bank0
	bcf	status, 6	;RP1=0, select bank0
	movwf	(_scan_no)
	movlw	high(08h)
	movwf	((_scan_no))+1
	goto	i1l17
	
i1l28:	
	line	193
;LCD T9.C: 193: RA1=1;
	bsf	(41/8),(41)&7
	line	194
;LCD T9.C: 194: RC0=1;
	bsf	(56/8),(56)&7
	line	195
;LCD T9.C: 195: RC1=0;
	bcf	(57/8),(57)&7
	line	196
;LCD T9.C: 196: RC2=1;
	bsf	(58/8),(58)&7
	
i1l30000562:	
	line	198
;LCD T9.C: 198: c=RA2;
	clrc
	btfsc	(42/8),(42)&7
	setc
	movlw	0
	skipnc
	movlw	1

	movwf	(??_scanner+0+0)
	clrf	(??_scanner+0+0+1)
	movf	0+(??_scanner+0+0),w
	movwf	(_c)
	movf	1+(??_scanner+0+0),w
	movwf	(_c+1)
	
i1l30000563:	
	line	199
;LCD T9.C: 199: k1();
	fcall	_k1
	
i1l30000564:	
	line	200
;LCD T9.C: 200: scan_no=9;
	movlw	low(09h)
	bcf	status, 5	;RP0=0, select bank0
	bcf	status, 6	;RP1=0, select bank0
	movwf	(_scan_no)
	movlw	high(09h)
	movwf	((_scan_no))+1
	goto	i1l17
	
i1l30000565:	
	line	204
;LCD T9.C: 204: c=RA3;
	clrc
	btfsc	(43/8),(43)&7
	setc
	movlw	0
	skipnc
	movlw	1

	movwf	(??_scanner+0+0)
	clrf	(??_scanner+0+0+1)
	movf	0+(??_scanner+0+0),w
	movwf	(_c)
	movf	1+(??_scanner+0+0),w
	movwf	(_c+1)
	
i1l30000566:	
	line	205
;LCD T9.C: 205: k1();
	fcall	_k1
	
i1l30000567:	
	line	206
;LCD T9.C: 206: scan_no=10;
	movlw	low(0Ah)
	bcf	status, 5	;RP0=0, select bank0
	bcf	status, 6	;RP1=0, select bank0
	movwf	(_scan_no)
	movlw	high(0Ah)
	movwf	((_scan_no))+1
	goto	i1l17
	
i1l30000568:	
	line	210
;LCD T9.C: 210: c=RA4;
	clrc
	btfsc	(44/8),(44)&7
	setc
	movlw	0
	skipnc
	movlw	1

	movwf	(??_scanner+0+0)
	clrf	(??_scanner+0+0+1)
	movf	0+(??_scanner+0+0),w
	movwf	(_c)
	movf	1+(??_scanner+0+0),w
	movwf	(_c+1)
	
i1l30000569:	
	line	211
;LCD T9.C: 211: k1();
	fcall	_k1
	
i1l30000570:	
	line	212
;LCD T9.C: 212: scan_no=11;
	movlw	low(0Bh)
	bcf	status, 5	;RP0=0, select bank0
	bcf	status, 6	;RP1=0, select bank0
	movwf	(_scan_no)
	movlw	high(0Bh)
	movwf	((_scan_no))+1
	goto	i1l17
	
i1l30000571:	
	line	217
;LCD T9.C: 217: c=RA5;
	clrc
	btfsc	(45/8),(45)&7
	setc
	movlw	0
	skipnc
	movlw	1

	movwf	(??_scanner+0+0)
	clrf	(??_scanner+0+0+1)
	movf	0+(??_scanner+0+0),w
	movwf	(_c)
	movf	1+(??_scanner+0+0),w
	movwf	(_c+1)
	
i1l30000572:	
	line	218
;LCD T9.C: 218: k1();
	fcall	_k1
	
i1l30000573:	
	line	219
;LCD T9.C: 219: scan_no=12;
	movlw	low(0Ch)
	bcf	status, 5	;RP0=0, select bank0
	bcf	status, 6	;RP1=0, select bank0
	movwf	(_scan_no)
	movlw	high(0Ch)
	movwf	((_scan_no))+1
	goto	i1l17
	
i1l32:	
	line	223
;LCD T9.C: 223: RA1=1;
	bsf	(41/8),(41)&7
	line	224
;LCD T9.C: 224: RC0=1;
	bsf	(56/8),(56)&7
	line	225
;LCD T9.C: 225: RC1=1;
	bsf	(57/8),(57)&7
	line	226
;LCD T9.C: 226: RC2=0;
	bcf	(58/8),(58)&7
	
i1l30000574:	
	line	228
;LCD T9.C: 228: c=RA2;
	clrc
	btfsc	(42/8),(42)&7
	setc
	movlw	0
	skipnc
	movlw	1

	movwf	(??_scanner+0+0)
	clrf	(??_scanner+0+0+1)
	movf	0+(??_scanner+0+0),w
	movwf	(_c)
	movf	1+(??_scanner+0+0),w
	movwf	(_c+1)
	
i1l30000575:	
	line	229
;LCD T9.C: 229: k1();
	fcall	_k1
	
i1l30000576:	
	line	230
;LCD T9.C: 230: scan_no=13;
	movlw	low(0Dh)
	bcf	status, 5	;RP0=0, select bank0
	bcf	status, 6	;RP1=0, select bank0
	movwf	(_scan_no)
	movlw	high(0Dh)
	movwf	((_scan_no))+1
	goto	i1l17
	
i1l30000577:	
	line	234
;LCD T9.C: 234: c=RA3;
	clrc
	btfsc	(43/8),(43)&7
	setc
	movlw	0
	skipnc
	movlw	1

	movwf	(??_scanner+0+0)
	clrf	(??_scanner+0+0+1)
	movf	0+(??_scanner+0+0),w
	movwf	(_c)
	movf	1+(??_scanner+0+0),w
	movwf	(_c+1)
	
i1l30000578:	
	line	235
;LCD T9.C: 235: k1();
	fcall	_k1
	
i1l30000579:	
	line	236
;LCD T9.C: 236: scan_no=14;
	movlw	low(0Eh)
	bcf	status, 5	;RP0=0, select bank0
	bcf	status, 6	;RP1=0, select bank0
	movwf	(_scan_no)
	movlw	high(0Eh)
	movwf	((_scan_no))+1
	goto	i1l17
	
i1l30000580:	
	line	240
;LCD T9.C: 240: c=RA4;
	clrc
	btfsc	(44/8),(44)&7
	setc
	movlw	0
	skipnc
	movlw	1

	movwf	(??_scanner+0+0)
	clrf	(??_scanner+0+0+1)
	movf	0+(??_scanner+0+0),w
	movwf	(_c)
	movf	1+(??_scanner+0+0),w
	movwf	(_c+1)
	
i1l30000581:	
	line	241
;LCD T9.C: 241: k1();
	fcall	_k1
	
i1l30000582:	
	line	242
;LCD T9.C: 242: scan_no=15;
	movlw	low(0Fh)
	bcf	status, 5	;RP0=0, select bank0
	bcf	status, 6	;RP1=0, select bank0
	movwf	(_scan_no)
	movlw	high(0Fh)
	movwf	((_scan_no))+1
	goto	i1l17
	
i1l30000583:	
	line	246
;LCD T9.C: 246: c=RA5;
	clrc
	btfsc	(45/8),(45)&7
	setc
	movlw	0
	skipnc
	movlw	1

	movwf	(??_scanner+0+0)
	clrf	(??_scanner+0+0+1)
	movf	0+(??_scanner+0+0),w
	movwf	(_c)
	movf	1+(??_scanner+0+0),w
	movwf	(_c+1)
	
i1l30000584:	
	line	247
;LCD T9.C: 247: k1();
	fcall	_k1
	
i1l30000585:	
	line	249
;LCD T9.C: 249: scan_no=0;
	movlw	low(0)
	bcf	status, 5	;RP0=0, select bank0
	bcf	status, 6	;RP1=0, select bank0
	movwf	(_scan_no)
	movlw	high(0)
	movwf	((_scan_no))+1
	goto	i1l17
	
i1l30000587:	
	line	130
		goto	i1l30013
i1l30014:
	bcf	status, 5	;RP0=0, select bank0
	bcf	status, 6	;RP1=0, select bank0
	movf (_scan_no),w
	xorlw	0^0
	skipnz
	goto	i1l20
	xorlw	1^0
	skipnz
	goto	i1l30000541
	xorlw	2^1
	skipnz
	goto	i1l30000544
	xorlw	3^2
	skipnz
	goto	i1l30000547
	xorlw	4^3
	skipnz
	goto	i1l24
	xorlw	5^4
	skipnz
	goto	i1l30000553
	xorlw	6^5
	skipnz
	goto	i1l30000556
	xorlw	7^6
	skipnz
	goto	i1l30000559
	xorlw	8^7
	skipnz
	goto	i1l28
	xorlw	9^8
	skipnz
	goto	i1l30000565
	xorlw	10^9
	skipnz
	goto	i1l30000568
	xorlw	11^10
	skipnz
	goto	i1l30000571
	xorlw	12^11
	skipnz
	goto	i1l32
	xorlw	13^12
	skipnz
	goto	i1l30000577
	xorlw	14^13
	skipnz
	goto	i1l30000580
	xorlw	15^14
	skipnz
	goto	i1l30000583
	goto	i1l17

i1l30013:
	movf (_scan_no+1),w
	xorlw	0^0
	skipnz
	goto	i1l30014
	goto	i1l17

	
i1l17:	
	return
	opt stack 0
GLOBAL	__end_of_scanner
	__end_of_scanner:
; =============== function _scanner ends ============

psect	text124,local,class=CODE,delta=2
global __ptext124
__ptext124:
	line	252
	signat	_scanner,88
	global	_buzzer

; *************** function _buzzer *****************
; Defined at:
;		line 354 in file "D:\ABHISHEK JOSHI\PIC\LCD\T9\LCD T9.C"
; Parameters:    Size  Location     Type
;		None
; Auto vars:     Size  Location     Type
;		None
; Return value:  Size  Location     Type
;		None               void
; Registers used:
;		wreg
; Tracked objects:
;		On entry : 0/0
;		On exit  : 0/0
;		Unchanged: 0/0
; Data sizes:     COMMON   BANK0   BANK1   BANK3   BANK2
;      Locals:         0       0       0       0       0
;      Temp:     0
;      Total:    0
; This function calls:
;		Nothing
; This function is called by:
;		_isr_t0
; This function uses a non-reentrant model
; 
psect	text124
	file	"D:\ABHISHEK JOSHI\PIC\LCD\T9\LCD T9.C"
	line	354
	global	__size_of_buzzer
	__size_of_buzzer	equ	__end_of_buzzer-_buzzer
;LCD T9.C: 353: void buzzer()
;LCD T9.C: 354: {
	
_buzzer:	
	opt stack 4
; Regs used in _buzzer: [wreg]
	line	355
	
i1l30000590:	
;LCD T9.C: 355: if(start_buzzer==1)
	movlw	01h
	bcf	status, 5	;RP0=0, select bank0
	bcf	status, 6	;RP1=0, select bank0
	xorwf	(_start_buzzer),w
	iorwf	(_start_buzzer+1),w
	skipz
	goto	u24_21
	goto	u24_20
u24_21:
	goto	i1l65
u24_20:
	
i1l30000591:	
	line	356
;LCD T9.C: 356: RC5=~RC5;
	movlw	1<<((61)&7)
	xorwf	((61)/8),f
	
i1l65:	
	return
	opt stack 0
GLOBAL	__end_of_buzzer
	__end_of_buzzer:
; =============== function _buzzer ends ============

psect	text125,local,class=CODE,delta=2
global __ptext125
__ptext125:
	line	357
	signat	_buzzer,88
	global	i1_init_timer

; *************** function i1_init_timer *****************
; Defined at:
;		line 98 in file "D:\ABHISHEK JOSHI\PIC\LCD\T9\LCD T9.C"
; Parameters:    Size  Location     Type
;		None
; Auto vars:     Size  Location     Type
;		None
; Return value:  Size  Location     Type
;		None               void
; Registers used:
;		wreg
; Tracked objects:
;		On entry : 0/0
;		On exit  : 0/0
;		Unchanged: 0/0
; Data sizes:     COMMON   BANK0   BANK1   BANK3   BANK2
;      Locals:         0       0       0       0       0
;      Temp:     0
;      Total:    0
; This function calls:
;		Nothing
; This function is called by:
;		_isr_t0
; This function uses a non-reentrant model
; 
psect	text125
	file	"D:\ABHISHEK JOSHI\PIC\LCD\T9\LCD T9.C"
	line	98
	global	__size_ofi1_init_timer
	__size_ofi1_init_timer	equ	__end_ofi1_init_timer-i1_init_timer
;LCD T9.C: 97: void init_timer()
;LCD T9.C: 98: {
	
i1_init_timer:	
	opt stack 4
; Regs used in i1_init_timer: [wreg]
	line	99
	
i1l30000592:	
;LCD T9.C: 99: TMR1H=0xFC;
	movlw	(0FCh)
	bcf	status, 5	;RP0=0, select bank0
	bcf	status, 6	;RP1=0, select bank0
	movwf	(15)	;volatile
	line	100
;LCD T9.C: 100: TMR1L=0x18;
	movlw	(018h)
	movwf	(14)	;volatile
	line	101
;LCD T9.C: 101: T1CON=0x01;
	movlw	(01h)
	movwf	(16)	;volatile
	
i1l30000593:	
	line	102
;LCD T9.C: 102: TMR1IE=1;
	bsf	status, 5	;RP0=1, select bank1
	bcf	status, 6	;RP1=0, select bank1
	bsf	(1120/8)^080h,(1120)&7
	
i1l30000594:	
	line	103
;LCD T9.C: 103: TMR1IF=0;
	bcf	status, 5	;RP0=0, select bank0
	bcf	status, 6	;RP1=0, select bank0
	bcf	(96/8),(96)&7
	
i1l14:	
	return
	opt stack 0
GLOBAL	__end_ofi1_init_timer
	__end_ofi1_init_timer:
; =============== function i1_init_timer ends ============

psect	text126,local,class=CODE,delta=2
global __ptext126
__ptext126:
	line	104
	signat	i1_init_timer,88
	global	_k1

; *************** function _k1 *****************
; Defined at:
;		line 255 in file "D:\ABHISHEK JOSHI\PIC\LCD\T9\LCD T9.C"
; Parameters:    Size  Location     Type
;		None
; Auto vars:     Size  Location     Type
;		None
; Return value:  Size  Location     Type
;		None               void
; Registers used:
;		wreg, status,2, status,0
; Tracked objects:
;		On entry : 0/0
;		On exit  : 0/0
;		Unchanged: 0/0
; Data sizes:     COMMON   BANK0   BANK1   BANK3   BANK2
;      Locals:         0       0       0       0       0
;      Temp:     0
;      Total:    0
; This function calls:
;		Nothing
; This function is called by:
;		_scanner
; This function uses a non-reentrant model
; 
psect	text126
	file	"D:\ABHISHEK JOSHI\PIC\LCD\T9\LCD T9.C"
	line	255
	global	__size_of_k1
	__size_of_k1	equ	__end_of_k1-_k1
;LCD T9.C: 254: void k1()
;LCD T9.C: 255: {
	
_k1:	
	opt stack 3
; Regs used in _k1: [wreg+status,2+status,0]
	line	256
	
i1l30000523:	
;LCD T9.C: 256: if(key_ready==1)
	movlw	01h
	bcf	status, 5	;RP0=0, select bank0
	bcf	status, 6	;RP1=0, select bank0
	xorwf	(_key_ready),w
	iorwf	(_key_ready+1),w
	skipz
	goto	u17_21
	goto	u17_20
u17_21:
	goto	i1l30000529
u17_20:
	
i1l30000524:	
	line	258
;LCD T9.C: 257: {
;LCD T9.C: 258: if(c==0)
	movf	((_c+1)),w
	iorwf	((_c)),w
	skipz
	goto	u18_21
	goto	u18_20
u18_21:
	goto	i1l30000526
u18_20:
	
i1l30000525:	
	line	260
;LCD T9.C: 259: {
;LCD T9.C: 260: krcount=32;
	movlw	low(020h)
	movwf	(_krcount)
	movlw	high(020h)
	movwf	((_krcount))+1
	goto	i1l36
	
i1l30000526:	
	line	264
;LCD T9.C: 262: else
;LCD T9.C: 263: {
;LCD T9.C: 264: krcount=krcount-1;
	movf	(_krcount),w
	addlw	low(-1)
	movwf	(_krcount)
	movf	(_krcount+1),w
	skipnc
	addlw	1
	addlw	high(-1)
	movwf	1+(_krcount)
	
i1l30000527:	
	line	266
;LCD T9.C: 266: if(krcount==0)
	movf	((_krcount+1)),w
	iorwf	((_krcount)),w
	skipz
	goto	u19_21
	goto	u19_20
u19_21:
	goto	i1l36
u19_20:
	
i1l30000528:	
	line	268
;LCD T9.C: 267: {
;LCD T9.C: 268: nkp=1;
	movlw	low(01h)
	movwf	(_nkp)
	movlw	high(01h)
	movwf	((_nkp))+1
	line	269
;LCD T9.C: 269: start_buzzer=0;
	movlw	low(0)
	movwf	(_start_buzzer)
	movlw	high(0)
	movwf	((_start_buzzer))+1
	line	270
;LCD T9.C: 270: krcount=32;
	movlw	low(020h)
	movwf	(_krcount)
	movlw	high(020h)
	movwf	((_krcount))+1
	goto	i1l36
	
i1l30000529:	
	line	274
;LCD T9.C: 274: else if(dcount==33)
	movlw	021h
	xorwf	(_dcount),w
	iorwf	(_dcount+1),w
	skipz
	goto	u20_21
	goto	u20_20
u20_21:
	goto	i1l30000532
u20_20:
	
i1l30000530:	
	line	276
;LCD T9.C: 275: {
;LCD T9.C: 276: if(c==0)
	movf	((_c+1)),w
	iorwf	((_c)),w
	skipz
	goto	u21_21
	goto	u21_20
u21_21:
	goto	i1l36
u21_20:
	
i1l30000531:	
	line	278
;LCD T9.C: 277: {
;LCD T9.C: 278: dcount=dcount-1;
	movf	(_dcount),w
	addlw	low(-1)
	movwf	(_dcount)
	movf	(_dcount+1),w
	skipnc
	addlw	1
	addlw	high(-1)
	movwf	1+(_dcount)
	line	279
;LCD T9.C: 279: key_code=scan_no;
	movf	(_scan_no+1),w
	clrf	(_key_code+1)
	addwf	(_key_code+1)
	movf	(_scan_no),w
	clrf	(_key_code)
	addwf	(_key_code)

	goto	i1l36
	
i1l30000532:	
	line	286
;LCD T9.C: 284: else
;LCD T9.C: 285: {
;LCD T9.C: 286: dcount=dcount-1;
	movf	(_dcount),w
	addlw	low(-1)
	movwf	(_dcount)
	movf	(_dcount+1),w
	skipnc
	addlw	1
	addlw	high(-1)
	movwf	1+(_dcount)
	
i1l30000533:	
	line	287
;LCD T9.C: 287: if(dcount==0)
	movf	((_dcount+1)),w
	iorwf	((_dcount)),w
	skipz
	goto	u22_21
	goto	u22_20
u22_21:
	goto	i1l36
u22_20:
	
i1l30000534:	
	line	289
;LCD T9.C: 288: {
;LCD T9.C: 289: if(c==0)
	movf	((_c+1)),w
	iorwf	((_c)),w
	skipz
	goto	u23_21
	goto	u23_20
u23_21:
	goto	i1l30000536
u23_20:
	
i1l30000535:	
	line	291
;LCD T9.C: 290: {
;LCD T9.C: 291: key_ready=1;
	movlw	low(01h)
	movwf	(_key_ready)
	movlw	high(01h)
	movwf	((_key_ready))+1
	line	292
;LCD T9.C: 292: start_buzzer=1;
	movlw	low(01h)
	movwf	(_start_buzzer)
	movlw	high(01h)
	movwf	((_start_buzzer))+1
	line	293
;LCD T9.C: 293: dcount=33;
	movlw	low(021h)
	movwf	(_dcount)
	movlw	high(021h)
	movwf	((_dcount))+1
	goto	i1l36
	
i1l30000536:	
	line	295
;LCD T9.C: 295: else dcount=33;
	movlw	low(021h)
	movwf	(_dcount)
	movlw	high(021h)
	movwf	((_dcount))+1
	
i1l36:	
	return
	opt stack 0
GLOBAL	__end_of_k1
	__end_of_k1:
; =============== function _k1 ends ============

psect	text127,local,class=CODE,delta=2
global __ptext127
__ptext127:
	line	299
	signat	_k1,88
	global	btemp
	btemp set 07Eh

	DABS	1,126,2	;btemp
	end
