

HI-TECH Software PIC LITE Macro Assembler V9.70 build 5239 
                                                                                               Wed Jan 02 17:41:58 2002

HI-TECH Software Omniscient Code Generator (Lite mode) build 5239
     1  0000                     opt subtitle "HI-TECH Software Omniscient Code Generator (Lite mode) build 5239"
     2                           
     3                           opt pagewidth 120
     4                           
     5                           	opt lm
     6                           
     7                           	processor	16F876A
     8                           clrc	macro
     9                           	bcf	3,0
    10  0000                     	endm
    11                           clrz	macro
    12                           	bcf	3,2
    13  0000                     	endm
    14                           setc	macro
    15                           	bsf	3,0
    16  0000                     	endm
    17                           setz	macro
    18                           	bsf	3,2
    19  0000                     	endm
    20                           skipc	macro
    21                           	btfss	3,0
    22  0000                     	endm
    23                           skipz	macro
    24                           	btfss	3,2
    25  0000                     	endm
    26                           skipnc	macro
    27                           	btfsc	3,0
    28  0000                     	endm
    29                           skipnz	macro
    30                           	btfsc	3,2
    31  0000                     	endm
    32  0000                     indf	equ	0
    33  0000                     indf0	equ	0
    34  0002                     pc	equ	2
    35  0002                     pcl	equ	2
    36  0003                     status	equ	3
    37  0004                     fsr	equ	4
    38  0004                     fsr0	equ	4
    39  0001                     c	equ	1
    40  0000                     z	equ	0
    41  000A                     pclath	equ	10
    42                           	FNCALL	_main,_init_lcd
    43                           	FNCALL	_main,_init
    44                           	FNCALL	_main,_cmd_wr
    45                           	FNCALL	_main,_data_wr
    46                           	FNCALL	_main,_key_release
    47                           	FNCALL	_main,_lcd_disp
    48                           	FNCALL	_lcd_disp,_cmd_wr
    49                           	FNCALL	_lcd_disp,_data_wr
    50                           	FNCALL	_init,_init_keypad
    51                           	FNCALL	_init,_init_timer
    52                           	FNCALL	_init_lcd,_lcd_delay
    53                           	FNCALL	_init_lcd,_cmd_wr
    54                           	FNCALL	_data_wr,_data_mapping
    55                           	FNCALL	_data_wr,_toggle
    56                           	FNCALL	_cmd_wr,_data_mapping
    57                           	FNCALL	_cmd_wr,_toggle
    58                           	FNROOT	_main
    59                           	FNCALL	_isr_t0,i1_init_timer
    60                           	FNCALL	_isr_t0,_buzzer
    61                           	FNCALL	_isr_t0,_scanner
    62                           	FNCALL	_scanner,_k1
    63                           	FNCALL	intlevel1,_isr_t0
    64                           	global	intlevel1
    65                           	FNROOT	intlevel1
    66                           	global	_ascii_tab
    67                           	global	_ds2
    68                           	global	_ds3
    69                           	global	_ds4
    70                           	global	_ds1
    71                           	global	_cnt
    72                           	global	_disp
    73                           psect	idataBANK0,class=CODE,space=0,delta=2
    74                           global __pidataBANK0
    75  0478                     __pidataBANK0:
    76                           	file	"D:\ABHISHEK JOSHI\PIC\LCD\T9\LCD T9.C"
    77                           	line	22
    78                           
    79                           ;initializer for _ascii_tab
    80  0478  3430               	retlw	030h
    81  0479  3431               	retlw	031h
    82  047A  3432               	retlw	032h
    83  047B  3433               	retlw	033h
    84  047C  3434               	retlw	034h
    85  047D  3435               	retlw	035h
    86  047E  3436               	retlw	036h
    87  047F  3437               	retlw	037h
    88  0480  3438               	retlw	038h
    89  0481  3439               	retlw	039h
    90  0482  3441               	retlw	041h
    91  0483  3442               	retlw	042h
    92  0484  3443               	retlw	043h
    93  0485  3444               	retlw	044h
    94  0486  3445               	retlw	045h
    95  0487  3446               	retlw	046h
    96  0488  3400               	retlw	0
    97  0489  3400               	retlw	0
    98  048A  3400               	retlw	0
    99  048B  3400               	retlw	0
   100  048C  3400               	retlw	0
   101  048D  3400               	retlw	0
   102  048E  3400               	retlw	0
   103  048F  3400               	retlw	0
   104  0490  3400               	retlw	0
   105                           	line	23
   106                           
   107                           ;initializer for _ds2
   108  0491  3430               	retlw	030h
   109                           
   110                           ;initializer for _ds3
   111  0492  3430               	retlw	030h
   112                           
   113                           ;initializer for _ds4
   114  0493  3430               	retlw	030h
   115                           
   116                           ;initializer for _ds1
   117                           psect	idataCOMMON,class=CODE,space=0,delta=2
   118                           global __pidataCOMMON
   119  0511                     __pidataCOMMON:
   120  0511  3431               	retlw	031h
   121                           psect	idataBANK1,class=CODE,space=0,delta=2
   122                           global __pidataBANK1
   123  038D                     __pidataBANK1:
   124                           	line	20
   125                           
   126                           ;initializer for _cnt
   127  038D  3450               	retlw	050h
   128  038E  3452               	retlw	052h
   129  038F  3445               	retlw	045h
   130  0390  3453               	retlw	053h
   131  0391  3453               	retlw	053h
   132  0392  3420               	retlw	020h
   133  0393  3441               	retlw	041h
   134  0394  344E               	retlw	04Eh
   135  0395  3459               	retlw	059h
   136  0396  3420               	retlw	020h
   137  0397  344B               	retlw	04Bh
   138  0398  3445               	retlw	045h
   139  0399  3459               	retlw	059h
   140  039A  3400               	retlw	0
   141  039B  3400               	retlw	0
   142  039C  3400               	retlw	0
   143  039D  3400               	retlw	0
   144  039E  3400               	retlw	0
   145  039F  3400               	retlw	0
   146  03A0  3400               	retlw	0
   147  03A1  3400               	retlw	0
   148  03A2  3400               	retlw	0
   149  03A3  3400               	retlw	0
   150  03A4  3400               	retlw	0
   151  03A5  3400               	retlw	0
   152                           	line	21
   153                           
   154                           ;initializer for _disp
   155  03A6  34FC               	retlw	0FCh
   156  03A7  3460               	retlw	060h
   157  03A8  34DA               	retlw	0DAh
   158  03A9  34F2               	retlw	0F2h
   159  03AA  3466               	retlw	066h
   160  03AB  34B6               	retlw	0B6h
   161  03AC  34BE               	retlw	0BEh
   162  03AD  34E0               	retlw	0E0h
   163  03AE  34FE               	retlw	0FEh
   164  03AF  34F6               	retlw	0F6h
   165  03B0  34FF               	retlw	0FFh
   166  03B1  34FF               	retlw	0FFh
   167  03B2  34FF               	retlw	0FFh
   168  03B3  34FF               	retlw	0FFh
   169  03B4  34FF               	retlw	0FFh
   170  03B5  34FF               	retlw	0FFh
   171  03B6  34FF               	retlw	0FFh
   172  03B7  34EE               	retlw	0EEh
   173  03B8  343E               	retlw	03Eh
   174  03B9  349C               	retlw	09Ch
   175  03BA  347A               	retlw	07Ah
   176  03BB  349E               	retlw	09Eh
   177  03BC  348E               	retlw	08Eh
   178  03BD  3400               	retlw	0
   179+ 03BE  3400               	retlw	0
   180                           	global	_a
   181                           	global	_c
   182                           	global	_i
   183                           	global	_k
   184                           	global	_key_code
   185                           	global	_key_ready
   186                           	global	_krcount
   187                           	global	_nkp
   188                           	global	_scan_no
   189                           	global	_start_buzzer
   190                           	global	_tb
   191                           	global	_disp_data
   192                           	global	_dcount
   193                           	global	_cmd_data
   194                           	global	_ADCON0
   195  001F                     _ADCON0  equ     31
   196                           	global	_ADRESH
   197  001E                     _ADRESH  equ     30
   198+                          	global	_CCP1CON
   199+ 0017                     _CCP1CON  equ     23
   200+                          	global	_CCP2CON
   201+ 001D                     _CCP2CON  equ     29
   202                           	global	_CCPR1H
   203  0016                     _CCPR1H  equ     22
   204+                          	global	_CCPR1L
   205+ 0015                     _CCPR1L  equ     21
   206                           	global	_CCPR2H
   207  001C                     _CCPR2H  equ     28
   208+                          	global	_CCPR2L
   209+ 001B                     _CCPR2L  equ     27
   210                           	global	_FSR
   211  0004                     _FSR  equ     4
   212+                          	global	_INDF
   213+ 0000                     _INDF  equ     0
   214+                          	global	_INTCON
   215+ 000B                     _INTCON  equ     11
   216+                          	global	_PCL
   217+ 0002                     _PCL  equ     2
   218+                          	global	_PCLATH
   219+ 000A                     _PCLATH  equ     10
   220+                          	global	_PIR1
   221+ 000C                     _PIR1  equ     12
   222                           	global	_PIR2
   223  000D                     _PIR2  equ     13
   224                           	global	_PORTA
   225  0005                     _PORTA  equ     5
   226+                          	global	_PORTB
   227+ 0006                     _PORTB  equ     6
   228+                          	global	_PORTC
   229+ 0007                     _PORTC  equ     7
   230+                          	global	_RCREG
   231+ 001A                     _RCREG  equ     26
   232+                          	global	_RCSTA
   233+ 0018                     _RCSTA  equ     24
   234                           	global	_SSPBUF
   235  0013                     _SSPBUF  equ     19
   236+                          	global	_SSPCON
   237+ 0014                     _SSPCON  equ     20
   238                           	global	_STATUS
   239  0003                     _STATUS  equ     3
   240+                          	global	_T1CON
   241+ 0010                     _T1CON  equ     16
   242+                          	global	_T2CON
   243+ 0012                     _T2CON  equ     18
   244+                          	global	_TMR0
   245+ 0001                     _TMR0  equ     1
   246+                          	global	_TMR1H
   247+ 000F                     _TMR1H  equ     15
   248+                          	global	_TMR1L
   249+ 000E                     _TMR1L  equ     14
   250                           	global	_TMR2
   251  0011                     _TMR2  equ     17
   252+                          	global	_TXREG
   253+ 0019                     _TXREG  equ     25
   254+                          	global	_ADCS0
   255+ 00FE                     _ADCS0  equ     254
   256+                          	global	_ADCS1
   257+ 00FF                     _ADCS1  equ     255
   258+                          	global	_ADDEN
   259+ 00C3                     _ADDEN  equ     195
   260+                          	global	_ADGO
   261+ 00FA                     _ADGO  equ     250
   262                           	global	_ADIF
   263  0066                     _ADIF  equ     102
   264+                          	global	_ADON
   265+ 00F8                     _ADON  equ     248
   266                           	global	_BCLIF
   267  006B                     _BCLIF  equ     107
   268+                          	global	_CARRY
   269+ 0018                     _CARRY  equ     24
   270+                          	global	_CCP1IF
   271+ 0062                     _CCP1IF  equ     98
   272+                          	global	_CCP1M0
   273+ 00B8                     _CCP1M0  equ     184
   274+                          	global	_CCP1M1
   275+ 00B9                     _CCP1M1  equ     185
   276+                          	global	_CCP1M2
   277+ 00BA                     _CCP1M2  equ     186
   278                           	global	_CCP1M3
   279  00BB                     _CCP1M3  equ     187
   280+                          	global	_CCP1X
   281+ 00BD                     _CCP1X  equ     189
   282+                          	global	_CCP1Y
   283+ 00BC                     _CCP1Y  equ     188
   284+                          	global	_CCP2IF
   285+ 0068                     _CCP2IF  equ     104
   286+                          	global	_CCP2M0
   287+ 00E8                     _CCP2M0  equ     232
   288+                          	global	_CCP2M1
   289+ 00E9                     _CCP2M1  equ     233
   290                           	global	_CCP2M2
   291  00EA                     _CCP2M2  equ     234
   292+                          	global	_CCP2M3
   293+ 00EB                     _CCP2M3  equ     235
   294                           	global	_CCP2X
   295  00ED                     _CCP2X  equ     237
   296+                          	global	_CCP2Y
   297+ 00EC                     _CCP2Y  equ     236
   298+                          	global	_CHS0
   299+ 00FB                     _CHS0  equ     251
   300+                          	global	_CHS1
   301+ 00FC                     _CHS1  equ     252
   302+                          	global	_CHS2
   303+ 00FD                     _CHS2  equ     253
   304+                          	global	_CKP
   305+ 00A4                     _CKP  equ     164
   306                           	global	_CMIF
   307  006E                     _CMIF  equ     110
   308+                          	global	_CREN
   309+ 00C4                     _CREN  equ     196
   310+                          	global	_DC
   311+ 0019                     _DC  equ     25
   312+                          	global	_EEIF
   313+ 006C                     _EEIF  equ     108
   314+                          	global	_FERR
   315+ 00C2                     _FERR  equ     194
   316+                          	global	_GIE
   317+ 005F                     _GIE  equ     95
   318                           	global	_GODONE
   319  00FA                     _GODONE  equ     250
   320+                          	global	_INTE
   321+ 005C                     _INTE  equ     92
   322                           	global	_INTF
   323  0059                     _INTF  equ     89
   324+                          	global	_IRP
   325+ 001F                     _IRP  equ     31
   326+                          	global	_OERR
   327+ 00C1                     _OERR  equ     193
   328+                          	global	_PD
   329+ 001B                     _PD  equ     27
   330+                          	global	_PEIE
   331+ 005E                     _PEIE  equ     94
   332+                          	global	_RA0
   333+ 0028                     _RA0  equ     40
   334                           	global	_RA1
   335  0029                     _RA1  equ     41
   336+                          	global	_RA2
   337+ 002A                     _RA2  equ     42
   338+                          	global	_RA3
   339+ 002B                     _RA3  equ     43
   340+                          	global	_RA4
   341+ 002C                     _RA4  equ     44
   342                           	global	_RA5
   343  002D                     _RA5  equ     45
   344+                          	global	_RB0
   345+ 0030                     _RB0  equ     48
   346                           	global	_RB1
   347  0031                     _RB1  equ     49
   348+                          	global	_RB2
   349+ 0032                     _RB2  equ     50
   350                           	global	_RB3
   351  0033                     _RB3  equ     51
   352+                          	global	_RB4
   353+ 0034                     _RB4  equ     52
   354+                          	global	_RB5
   355+ 0035                     _RB5  equ     53
   356+                          	global	_RB6
   357+ 0036                     _RB6  equ     54
   358+                          	global	_RB7
   359+ 0037                     _RB7  equ     55
   360+                          	global	_RBIE
   361+ 005B                     _RBIE  equ     91
   362                           	global	_RBIF
   363  0058                     _RBIF  equ     88
   364+                          	global	_RC0
   365+ 0038                     _RC0  equ     56
   366+                          	global	_RC1
   367+ 0039                     _RC1  equ     57
   368+                          	global	_RC2
   369+ 003A                     _RC2  equ     58
   370+                          	global	_RC3
   371+ 003B                     _RC3  equ     59
   372+                          	global	_RC4
   373+ 003C                     _RC4  equ     60
   374                           	global	_RC5
   375  003D                     _RC5  equ     61
   376+                          	global	_RC6
   377+ 003E                     _RC6  equ     62
   378                           	global	_RC7
   379  003F                     _RC7  equ     63
   380+                          	global	_RCIF
   381+ 0065                     _RCIF  equ     101
   382+                          	global	_RP0
   383+ 001D                     _RP0  equ     29
   384+                          	global	_RP1
   385+ 001E                     _RP1  equ     30
   386+                          	global	_RX9
   387+ 00C6                     _RX9  equ     198
   388+                          	global	_RX9D
   389+ 00C0                     _RX9D  equ     192
   390                           	global	_SPEN
   391  00C7                     _SPEN  equ     199
   392+                          	global	_SREN
   393+ 00C5                     _SREN  equ     197
   394+                          	global	_SSPEN
   395+ 00A5                     _SSPEN  equ     165
   396+                          	global	_SSPIF
   397+ 0063                     _SSPIF  equ     99
   398                           	global	_SSPM0
   399  00A0                     _SSPM0  equ     160
   400+                          	global	_SSPM1
   401+ 00A1                     _SSPM1  equ     161
   402                           	global	_SSPM2
   403  00A2                     _SSPM2  equ     162
   404+                          	global	_SSPM3
   405+ 00A3                     _SSPM3  equ     163
   406+                          	global	_SSPOV
   407+ 00A6                     _SSPOV  equ     166
   408+                          	global	_T0IE
   409+ 005D                     _T0IE  equ     93
   410+                          	global	_T0IF
   411+ 005A                     _T0IF  equ     90
   412+                          	global	_T1CKPS0
   413+ 0084                     _T1CKPS0  equ     132
   414                           	global	_T1CKPS1
   415  0085                     _T1CKPS1  equ     133
   416+                          	global	_T1OSCEN
   417+ 0083                     _T1OSCEN  equ     131
   418+                          	global	_T1SYNC
   419+ 0082                     _T1SYNC  equ     130
   420+                          	global	_T2CKPS0
   421+ 0090                     _T2CKPS0  equ     144
   422+                          	global	_T2CKPS1
   423+ 0091                     _T2CKPS1  equ     145
   424+                          	global	_TMR0IE
   425+ 005D                     _TMR0IE  equ     93
   426                           	global	_TMR0IF
   427  005A                     _TMR0IF  equ     90
   428+                          	global	_TMR1CS
   429+ 0081                     _TMR1CS  equ     129
   430                           	global	_TMR1IF
   431  0060                     _TMR1IF  equ     96
   432+                          	global	_TMR1ON
   433+ 0080                     _TMR1ON  equ     128
   434+                          	global	_TMR2IF
   435+ 0061                     _TMR2IF  equ     97
   436+                          	global	_TMR2ON
   437+ 0092                     _TMR2ON  equ     146
   438+                          	global	_TO
   439+ 001C                     _TO  equ     28
   440+                          	global	_TOUTPS0
   441+ 0093                     _TOUTPS0  equ     147
   442                           	global	_TOUTPS1
   443  0094                     _TOUTPS1  equ     148
   444+                          	global	_TOUTPS2
   445+ 0095                     _TOUTPS2  equ     149
   446+                          	global	_TOUTPS3
   447+ 0096                     _TOUTPS3  equ     150
   448+                          	global	_TXIF
   449+ 0064                     _TXIF  equ     100
   450+                          	global	_WCOL
   451+ 00A7                     _WCOL  equ     167
   452+                          	global	_ZERO
   453+ 001A                     _ZERO  equ     26
   454                           	global	_ADCON1
   455  009F                     _ADCON1  equ     159
   456+                          	global	_ADRESL
   457+ 009E                     _ADRESL  equ     158
   458                           	global	_CMCON
   459  009C                     _CMCON  equ     156
   460+                          	global	_CVRCON
   461+ 009D                     _CVRCON  equ     157
   462+                          	global	_OPTION
   463+ 0081                     _OPTION  equ     129
   464+                          	global	_PCON
   465+ 008E                     _PCON  equ     142
   466+                          	global	_PIE1
   467+ 008C                     _PIE1  equ     140
   468+                          	global	_PIE2
   469+ 008D                     _PIE2  equ     141
   470                           	global	_PR2
   471  0092                     _PR2  equ     146
   472+                          	global	_SPBRG
   473+ 0099                     _SPBRG  equ     153
   474+                          	global	_SSPADD
   475+ 0093                     _SSPADD  equ     147
   476+                          	global	_SSPCON2
   477+ 0091                     _SSPCON2  equ     145
   478+                          	global	_SSPSTAT
   479+ 0094                     _SSPSTAT  equ     148
   480+                          	global	_TRISA
   481+ 0085                     _TRISA  equ     133
   482                           	global	_TRISB
   483  0086                     _TRISB  equ     134
   484+                          	global	_TRISC
   485+ 0087                     _TRISC  equ     135
   486                           	global	_TXSTA
   487  0098                     _TXSTA  equ     152
   488+                          	global	_ACKDT
   489+ 048D                     _ACKDT  equ     1165
   490+                          	global	_ACKEN
   491+ 048C                     _ACKEN  equ     1164
   492+                          	global	_ACKSTAT
   493+ 048E                     _ACKSTAT  equ     1166
   494+                          	global	_ADCS2
   495+ 04FE                     _ADCS2  equ     1278
   496+                          	global	_ADFM
   497+ 04FF                     _ADFM  equ     1279
   498                           	global	_ADIE
   499  0466                     _ADIE  equ     1126
   500                           	global	_BCLIE
   501  046B                     _BCLIE  equ     1131
   502+                          	global	_BF
   503+ 04A0                     _BF  equ     1184
   504+                          	global	_BOR
   505+ 0470                     _BOR  equ     1136
   506                           	global	_BRGH
   507  04C2                     _BRGH  equ     1218
   508+                          	global	_C1INV
   509+ 04E4                     _C1INV  equ     1252
   510                           	global	_C1OUT
   511  04E6                     _C1OUT  equ     1254
   512+                          	global	_C2INV
   513+ 04E5                     _C2INV  equ     1253
   514                           	global	_C2OUT
   515  04E7                     _C2OUT  equ     1255
   516+                          	global	_CCP1IE
   517+ 0462                     _CCP1IE  equ     1122
   518+                          	global	_CCP2IE
   519+ 0468                     _CCP2IE  equ     1128
   520+                          	global	_CIS
   521+ 04E3                     _CIS  equ     1251
   522+                          	global	_CKE
   523+ 04A6                     _CKE  equ     1190
   524+                          	global	_CM0
   525+ 04E0                     _CM0  equ     1248
   526                           	global	_CM1
   527  04E1                     _CM1  equ     1249
   528                           	global	_CM2
   529  04E2                     _CM2  equ     1250
   530+                          	global	_CMIE
   531+ 046E                     _CMIE  equ     1134
   532+                          	global	_CSRC
   533+ 04C7                     _CSRC  equ     1223
   534+                          	global	_CVR0
   535+ 04E8                     _CVR0  equ     1256
   536+                          	global	_CVR1
   537+ 04E9                     _CVR1  equ     1257
   538                           	global	_CVR2
   539  04EA                     _CVR2  equ     1258
   540+                          	global	_CVR3
   541+ 04EB                     _CVR3  equ     1259
   542                           	global	_CVREN
   543  04EF                     _CVREN  equ     1263
   544+                          	global	_CVROE
   545+ 04EE                     _CVROE  equ     1262
   546+                          	global	_CVRR
   547+ 04ED                     _CVRR  equ     1261
   548+                          	global	_DA
   549+ 04A5                     _DA  equ     1189
   550+                          	global	_EEIE
   551+ 046C                     _EEIE  equ     1132
   552+                          	global	_GCEN
   553+ 048F                     _GCEN  equ     1167
   554                           	global	_INTEDG
   555  040E                     _INTEDG  equ     1038
   556+                          	global	_PCFG0
   557+ 04F8                     _PCFG0  equ     1272
   558+                          	global	_PCFG1
   559+ 04F9                     _PCFG1  equ     1273
   560+                          	global	_PCFG2
   561+ 04FA                     _PCFG2  equ     1274
   562                           	global	_PCFG3
   563  04FB                     _PCFG3  equ     1275
   564+                          	global	_PEN
   565+ 048A                     _PEN  equ     1162
   566                           	global	_POR
   567  0471                     _POR  equ     1137
   568+                          	global	_PS0
   569+ 0408                     _PS0  equ     1032
   570+                          	global	_PS1
   571+ 0409                     _PS1  equ     1033
   572+                          	global	_PS2
   573+ 040A                     _PS2  equ     1034
   574+                          	global	_PSA
   575+ 040B                     _PSA  equ     1035
   576+                          	global	_RBPU
   577+ 040F                     _RBPU  equ     1039
   578+                          	global	_RCEN
   579+ 048B                     _RCEN  equ     1163
   580+                          	global	_RCIE
   581+ 0465                     _RCIE  equ     1125
   582                           	global	_RSEN
   583  0489                     _RSEN  equ     1161
   584+                          	global	_RW
   585+ 04A2                     _RW  equ     1186
   586+                          	global	_SEN
   587+ 0488                     _SEN  equ     1160
   588+                          	global	_SMP
   589+ 04A7                     _SMP  equ     1191
   590+                          	global	_SSPIE
   591+ 0463                     _SSPIE  equ     1123
   592                           	global	_START
   593  04A3                     _START  equ     1187
   594                           	global	_STOP
   595  04A4                     _STOP  equ     1188
   596                           	global	_SYNC
   597  04C4                     _SYNC  equ     1220
   598                           	global	_T0CS
   599  040D                     _T0CS  equ     1037
   600                           	global	_T0SE
   601  040C                     _T0SE  equ     1036
   602                           	global	_TMR1IE
   603  0460                     _TMR1IE  equ     1120
   604                           	global	_TMR2IE
   605  0461                     _TMR2IE  equ     1121
   606                           	global	_TRISA0
   607  0428                     _TRISA0  equ     1064
   608                           	global	_TRISA1
   609  0429                     _TRISA1  equ     1065
   610                           	global	_TRISA2
   611  042A                     _TRISA2  equ     1066
   612                           	global	_TRISA3
   613  042B                     _TRISA3  equ     1067
   614                           	global	_TRISA4
   615  042C                     _TRISA4  equ     1068
   616                           	global	_TRISA5
   617  042D                     _TRISA5  equ     1069
   618                           	global	_TRISB0
   619  0430                     _TRISB0  equ     1072
   620                           	global	_TRISB1
   621  0431                     _TRISB1  equ     1073
   622                           	global	_TRISB2
   623  0432                     _TRISB2  equ     1074
   624                           	global	_TRISB3
   625  0433                     _TRISB3  equ     1075
   626                           	global	_TRISB4
   627  0434                     _TRISB4  equ     1076
   628                           	global	_TRISB5
   629  0435                     _TRISB5  equ     1077
   630                           	global	_TRISB6
   631  0436                     _TRISB6  equ     1078
   632                           	global	_TRISB7
   633  0437                     _TRISB7  equ     1079
   634                           	global	_TRISC0
   635  0438                     _TRISC0  equ     1080
   636                           	global	_TRISC1
   637  0439                     _TRISC1  equ     1081
   638                           	global	_TRISC2
   639  043A                     _TRISC2  equ     1082
   640                           	global	_TRISC3
   641  043B                     _TRISC3  equ     1083
   642                           	global	_TRISC4
   643  043C                     _TRISC4  equ     1084
   644                           	global	_TRISC5
   645  043D                     _TRISC5  equ     1085
   646                           	global	_TRISC6
   647  043E                     _TRISC6  equ     1086
   648                           	global	_TRISC7
   649  043F                     _TRISC7  equ     1087
   650                           	global	_TRMT
   651  04C1                     _TRMT  equ     1217
   652                           	global	_TX9
   653  04C6                     _TX9  equ     1222
   654                           	global	_TX9D
   655  04C0                     _TX9D  equ     1216
   656                           	global	_TXEN
   657  04C5                     _TXEN  equ     1221
   658                           	global	_TXIE
   659  0464                     _TXIE  equ     1124
   660                           	global	_UA
   661  04A1                     _UA  equ     1185
   662                           	global	_EEADR
   663  010D                     _EEADR  equ     269
   664                           	global	_EEADRH
   665  010F                     _EEADRH  equ     271
   666                           	global	_EEADRL
   667  010D                     _EEADRL  equ     269
   668                           	global	_EEDATA
   669  010C                     _EEDATA  equ     268
   670                           	global	_EEDATH
   671  010E                     _EEDATH  equ     270
   672                           	global	_EECON1
   673  018C                     _EECON1  equ     396
   674                           	global	_EECON2
   675  018D                     _EECON2  equ     397
   676                           	global	_EEPGD
   677  0C67                     _EEPGD  equ     3175
   678                           	global	_RD
   679  0C60                     _RD  equ     3168
   680                           	global	_WR
   681  0C61                     _WR  equ     3169
   682                           	global	_WREN
   683  0C62                     _WREN  equ     3170
   684                           	global	_WRERR
   685  0C63                     _WRERR  equ     3171
   686                           	file	"LCD T9.C.as"
   687                           	line	#
   688                           psect cinit,class=CODE,delta=2
   689                           global start_initialization
   690  03BF                     start_initialization:
   691                           
   692                           psect	bssCOMMON,class=COMMON,space=1
   693                           global __pbssCOMMON
   694  0076                     __pbssCOMMON:
   695  0076                     _dcount:
   696  0076                            ds      2
   697                           
   698  0078                     _cmd_data:
   699  0078                            ds      1
   700                           
   701                           psect	dataCOMMON,class=COMMON,space=1
   702                           global __pdataCOMMON
   703  0079                     __pdataCOMMON:
   704                           	file	"D:\ABHISHEK JOSHI\PIC\LCD\T9\LCD T9.C"
   705                           	line	23
   706  0079                     _ds1:
   707  0079                            ds      1
   708                           
   709                           psect	bssBANK0,class=BANK0,space=1
   710                           global __pbssBANK0
   711  003C                     __pbssBANK0:
   712  003C                     _a:
   713  003C                            ds      2
   714                           
   715  003E                     _c:
   716  003E                            ds      2
   717                           
   718  0040                     _i:
   719  0040                            ds      2
   720                           
   721  0042                     _k:
   722  0042                            ds      2
   723                           
   724  0044                     _key_code:
   725  0044                            ds      2
   726                           
   727  0046                     _key_ready:
   728  0046                            ds      2
   729                           
   730  0048                     _krcount:
   731  0048                            ds      2
   732                           
   733  004A                     _nkp:
   734  004A                            ds      2
   735                           
   736  004C                     _scan_no:
   737  004C                            ds      2
   738                           
   739  004E                     _start_buzzer:
   740  004E                            ds      2
   741                           
   742  0050                     _tb:
   743  0050                            ds      2
   744                           
   745  0052                     _disp_data:
   746  0052                            ds      1
   747                           
   748                           psect	dataBANK0,class=BANK0,space=1
   749                           global __pdataBANK0
   750  0020                     __pdataBANK0:
   751                           	file	"D:\ABHISHEK JOSHI\PIC\LCD\T9\LCD T9.C"
   752                           	line	22
   753  0020                     _ascii_tab:
   754  0020                            ds      25
   755                           
   756                           psect	dataBANK0
   757                           	file	"D:\ABHISHEK JOSHI\PIC\LCD\T9\LCD T9.C"
   758                           	line	23
   759  0039                     _ds2:
   760  0039                            ds      1
   761                           
   762                           psect	dataBANK0
   763                           	file	"D:\ABHISHEK JOSHI\PIC\LCD\T9\LCD T9.C"
   764                           	line	23
   765  003A                     _ds3:
   766  003A                            ds      1
   767                           
   768                           psect	dataBANK0
   769                           	file	"D:\ABHISHEK JOSHI\PIC\LCD\T9\LCD T9.C"
   770                           	line	23
   771  003B                     _ds4:
   772  003B                            ds      1
   773                           
   774                           psect	dataBANK1,class=BANK1,space=1
   775                           global __pdataBANK1
   776  00A0                     __pdataBANK1:
   777                           	file	"D:\ABHISHEK JOSHI\PIC\LCD\T9\LCD T9.C"
   778                           	line	20
   779  00A0                     _cnt:
   780  00A0                            ds      25
   781                           
   782                           psect	dataBANK1
   783                           	file	"D:\ABHISHEK JOSHI\PIC\LCD\T9\LCD T9.C"
   784                           	line	21
   785  00B9                     _disp:
   786  00B9                            ds      25
   787                           
   788                           psect clrtext,class=CODE,delta=2
   789                           global clear_ram
   790                           ;	Called with FSR containing the base address, and
   791                           ;	W with the last address+1
   792  0504                     clear_ram:
   793  0504  0064               	clrwdt			;clear the watchdog before getting into this loop
   794  0505                     clrloop:
   795  0505  0180               	clrf	indf		;clear RAM location pointed to by FSR
   796  0506  0A84               	incf	fsr,f		;increment pointer
   797  0507  0604               	xorwf	fsr,w		;XOR with final address
   798  0508  1903               	btfsc	status,2	;have we reached the end yet?
   799  0509  3400               	retlw	0		;all done for this memory range, return
   800  050A  0604               	xorwf	fsr,w		;XOR again to restore value
   801  050B  2D05               	goto	clrloop		;do the next byte
   802                           
   803                           ; Clear objects allocated to COMMON
   804                           psect cinit,class=CODE,delta=2
   805  03BF  01F6               	clrf	((__pbssCOMMON)+0)&07Fh
   806  03C0  01F7               	clrf	((__pbssCOMMON)+1)&07Fh
   807  03C1  01F8               	clrf	((__pbssCOMMON)+2)&07Fh
   808                           ; Clear objects allocated to BANK0
   809                           psect cinit,class=CODE,delta=2
   810  03C2  1383               	bcf	status, 7	;select IRP bank0
   811  03C3  303C               	movlw	low(__pbssBANK0)
   812  03C4  0084               	movwf	fsr
   813  03C5  3053               	movlw	low((__pbssBANK0)+017h)
   814  03C6  120A  118A  2504   	fcall	clear_ram
              120A  118A         
   815                           global btemp
   816                           psect inittext,class=CODE,delta=2
   817                           global init_fetch,btemp
   818                           ;	Called with low address in FSR and high address in W
   819  04A6                     init_fetch:
   820  04A6  087E               	movf btemp,w
   821  04A7  008A               	movwf pclath
   822  04A8  087F               	movf btemp+1,w
   823  04A9  0082               	movwf pc
   824                           global init_ram
   825                           ;Called with:
   826                           ;	high address of idata address in btemp 
   827                           ;	low address of idata address in btemp+1 
   828                           ;	low address of data in FSR
   829                           ;	high address + 1 of data in btemp-1
   830  04AA                     init_ram:
   831  04AA  24A6  120A  118A   	fcall init_fetch
   832  04AD  0080               	movwf indf,f
   833  04AE  0A84               	incf fsr,f
   834  04AF  0804               	movf fsr,w
   835  04B0  067D               	xorwf btemp-1,w
   836  04B1  1903               	btfsc status,2
   837  04B2  3400               	retlw 0
   838  04B3  0AFF               	incf btemp+1,f
   839  04B4  1903               	btfsc status,2
   840  04B5  0AFE               	incf btemp,f
   841  04B6  2CAA               	goto init_ram
   842                           ; Initialize objects allocated to COMMON
   843                           	global __pidataCOMMON
   844                           psect cinit,class=CODE,delta=2
   845  03CB  120A  118A  2511   	fcall	__pidataCOMMON+0		;fetch initializer
              120A  118A         
   846  03D0  00F9               	movwf	__pdataCOMMON+0&07fh		
   847                           ; Initialize objects allocated to BANK0
   848                           psect cinit,class=CODE,delta=2
   849                           global init_ram, __pidataBANK0
   850  03D1  303C               	movlw low(__pdataBANK0+28)
   851  03D2  00FD               	movwf btemp-1,f
   852  03D3  3004               	movlw high(__pidataBANK0)
   853  03D4  00FE               	movwf btemp,f
   854  03D5  3078               	movlw low(__pidataBANK0)
   855  03D6  00FF               	movwf btemp+1,f
   856  03D7  3020               	movlw low(__pdataBANK0)
   857  03D8  0084               	movwf fsr,f
   858  03D9  120A  118A  24AA   	fcall init_ram
              120A  118A         
   859                           ; Initialize objects allocated to BANK1
   860                           psect cinit,class=CODE,delta=2
   861                           global init_ram, __pidataBANK1
   862  03DE  30D2               	movlw low(__pdataBANK1+50)
   863  03DF  00FD               	movwf btemp-1,f
   864  03E0  3003               	movlw high(__pidataBANK1)
   865  03E1  00FE               	movwf btemp,f
   866  03E2  308D               	movlw low(__pidataBANK1)
   867  03E3  00FF               	movwf btemp+1,f
   868  03E4  30A0               	movlw low(__pdataBANK1)
   869  03E5  0084               	movwf fsr,f
   870  03E6  120A  118A  24AA   	fcall init_ram
              120A  118A         
   871                           psect cinit,class=CODE,delta=2
   872                           global end_of_initialization
   873                           
   874                           ;End of C runtime variable initationation code
   875                           
   876  03EB                     end_of_initialization:
   877  03EB  0183               clrf status
   878  03EC  120A  118A  2AE9   ljmp _main	;jump to C main() function
   879                           psect	cstackCOMMON,class=COMMON,space=1
   880                           global __pcstackCOMMON
   881  0070                     __pcstackCOMMON:
   882                           	global	??_init_timer
   883  0070                     ??_init_timer: ;@ 0x0
   884                           	global	?_init_timer
   885  0070                     ?_init_timer: ;@ 0x0
   886                           	global	??_init
   887  0070                     ??_init: ;@ 0x0
   888                           	global	??_lcd_delay
   889  0070                     ??_lcd_delay: ;@ 0x0
   890                           	global	??_init_keypad
   891  0070                     ??_init_keypad: ;@ 0x0
   892                           	global	?_init_keypad
   893  0070                     ?_init_keypad: ;@ 0x0
   894                           	global	?_init
   895  0070                     ?_init: ;@ 0x0
   896                           	global	?_key_release
   897  0070                     ?_key_release: ;@ 0x0
   898                           	global	??_data_mapping
   899  0070                     ??_data_mapping: ;@ 0x0
   900                           	global	?_toggle
   901  0070                     ?_toggle: ;@ 0x0
   902                           	global	??_key_release
   903  0070                     ??_key_release: ;@ 0x0
   904                           	global	??_toggle
   905  0070                     ??_toggle: ;@ 0x0
   906  0070                     	ds	1
   907                           	global	data_mapping@var_data1
   908  0071                     data_mapping@var_data1:	; 1 bytes @ 0x1
   909  0071                     	ds	1
   910                           	global	?_data_mapping
   911  0072                     ?_data_mapping: ;@ 0x2
   912                           	global	??_cmd_wr
   913  0072                     ??_cmd_wr: ;@ 0x2
   914                           	global	??_lcd_disp
   915  0072                     ??_lcd_disp: ;@ 0x2
   916                           	global	??_data_wr
   917  0072                     ??_data_wr: ;@ 0x2
   918  0072                     	ds	1
   919                           	global	?_lcd_delay
   920  0073                     ?_lcd_delay: ;@ 0x3
   921                           	global	??_init_lcd
   922  0073                     ??_init_lcd: ;@ 0x3
   923                           	global	data_wr@var_data
   924  0073                     data_wr@var_data:	; 1 bytes @ 0x3
   925                           	global	cmd_wr@var_data
   926  0073                     cmd_wr@var_data:	; 1 bytes @ 0x3
   927                           	global	lcd_delay@x
   928  0073                     lcd_delay@x:	; 2 bytes @ 0x3
   929  0073                     	ds	1
   930                           	global	?_data_wr
   931  0074                     ?_data_wr: ;@ 0x4
   932                           	global	?_cmd_wr
   933  0074                     ?_cmd_wr: ;@ 0x4
   934                           	global	?_lcd_disp
   935  0074                     ?_lcd_disp: ;@ 0x4
   936  0074                     	ds	1
   937                           	global	?_init_lcd
   938  0075                     ?_init_lcd: ;@ 0x5
   939                           	global	??_main
   940  0075                     ??_main: ;@ 0x5
   941  0075                     	ds	1
   942                           	global	?_main
   943  0076                     ?_main: ;@ 0x6
   944                           psect	cstackBANK0,class=BANK0,space=1
   945                           global __pcstackBANK0
   946  0053                     __pcstackBANK0:
   947                           	global	lcd_delay@i
   948  0053                     lcd_delay@i:	; 2 bytes @ 0x0
   949  0053                     	ds	2
   950                           	global	lcd_delay@j
   951  0055                     lcd_delay@j:	; 2 bytes @ 0x2
   952  0055                     	ds	2
   953                           	global	?i1_init_timer
   954  0057                     ?i1_init_timer: ;@ 0x4
   955                           	global	??_buzzer
   956  0057                     ??_buzzer: ;@ 0x4
   957                           	global	?_k1
   958  0057                     ?_k1: ;@ 0x4
   959                           	global	??i1_init_timer
   960  0057                     ??i1_init_timer: ;@ 0x4
   961                           	global	?_buzzer
   962  0057                     ?_buzzer: ;@ 0x4
   963                           	global	??_k1
   964  0057                     ??_k1: ;@ 0x4
   965                           	global	??_scanner
   966  0057                     ??_scanner: ;@ 0x4
   967  0057                     	ds	2
   968                           	global	??_isr_t0
   969  0059                     ??_isr_t0: ;@ 0x6
   970                           	global	?_scanner
   971  0059                     ?_scanner: ;@ 0x6
   972  0059                     	ds	4
   973                           	global	?_isr_t0
   974  005D                     ?_isr_t0: ;@ 0xA
   975                           ;Data sizes: Strings 0, constant 0, data 79, bss 26, persistent 0 stack 0
   976                           ;Auto spaces:   Size  Autos    Used
   977                           ; COMMON          14      6      10
   978                           ; BANK0           80     10      61
   979                           ; BANK1           80      0      50
   980                           ; BANK3           96      0       0
   981                           ; BANK2           96      0       0
   982                           
   983                           
   984                           ;Pointer list with targets:
   985                           
   986                           
   987                           
   988                           ;Main: autosize = 0, tempsize = 1, incstack = 0, save=0
   989                           
   990                           
   991                           ;Call graph:                      Base Space Used Autos Args Refs Density
   992                           ;_main                                                1    0  433   0.00
   993                           ;                                    5 COMMO    1
   994                           ;           _init_lcd
   995                           ;               _init
   996                           ;             _cmd_wr
   997                           ;            _data_wr
   998                           ;        _key_release
   999                           ;           _lcd_disp
  1000                           ;  _lcd_disp                                          0    0  130   0.00
  1001                           ;             _cmd_wr
  1002                           ;            _data_wr
  1003                           ;  _key_release                                       0    0    0   0.00
  1004                           ;  _init                                              0    0    0   0.00
  1005                           ;        _init_keypad
  1006                           ;         _init_timer
  1007                           ;  _init_lcd                                          0    0  173   0.00
  1008                           ;          _lcd_delay
  1009                           ;             _cmd_wr
  1010                           ;    _init_timer                                      0    0    0   0.00
  1011                           ;    _data_wr                                         2    0   65   0.00
  1012                           ;                                    2 COMMO    2
  1013                           ;       _data_mapping
  1014                           ;             _toggle
  1015                           ;    _init_keypad                                     0    0    0   0.00
  1016                           ;    _lcd_delay                                       7    2  108   0.00
  1017                           ;                                    0 COMMO    5
  1018                           ;                                    0 BANK0    4
  1019                           ;    _cmd_wr                                          2    0   65   0.00
  1020                           ;                                    2 COMMO    2
  1021                           ;       _data_mapping
  1022                           ;             _toggle
  1023                           ;      _data_mapping                                  2    0   16   0.00
  1024                           ;                                    0 COMMO    2
  1025                           ;      _toggle                                        0    0    0   0.00
  1026                           ; Estimated maximum call depth 3
  1027                           ;_isr_t0                                              4    0    0   0.00
  1028                           ;                                    6 BANK0    4
  1029                           ;       i1_init_timer
  1030                           ;             _buzzer
  1031                           ;            _scanner
  1032                           ;  _scanner                                           2    0    0   0.00
  1033                           ;                                    4 BANK0    2
  1034                           ;                 _k1
  1035                           ;  _buzzer                                            0    0    0   0.00
  1036                           ;  i1_init_timer                                      0    0    0   0.00
  1037                           ;    _k1                                              0    0    0   0.00
  1038                           ; Estimated maximum call depth 2
  1039                           ; Address spaces:
  1040                           
  1041                           ;Name               Size   Autos  Total    Cost      Usage
  1042                           ;BITCOMMON            E      0       0       0        0.0%
  1043                           ;CODE                 0      0       0       0        0.0%
  1044                           ;NULL                 0      0       0       0        0.0%
  1045                           ;COMMON               E      6       A       1       71.4%
  1046                           ;SFR0                 0      0       0       1        0.0%
  1047                           ;BITSFR0              0      0       0       1        0.0%
  1048                           ;BITSFR1              0      0       0       2        0.0%
  1049                           ;SFR1                 0      0       0       2        0.0%
  1050                           ;ABS                  0      0      79       2        0.0%
  1051                           ;STACK                0      0       0       3        0.0%
  1052                           ;BITBANK0            50      0       0       4        0.0%
  1053                           ;SFR3                 0      0       0       4        0.0%
  1054                           ;BITSFR3              0      0       0       4        0.0%
  1055                           ;BANK0               50      A      3D       5       76.3%
  1056                           ;BITSFR2              0      0       0       5        0.0%
  1057                           ;SFR2                 0      0       0       5        0.0%
  1058                           ;BITBANK1            50      0       0       6        0.0%
  1059                           ;BANK1               50      0      32       7       62.5%
  1060                           ;BITBANK3            60      0       0       8        0.0%
  1061                           ;BANK3               60      0       0       9        0.0%
  1062                           ;BITBANK2            60      0       0      10        0.0%
  1063                           ;BANK2               60      0       0      11        0.0%
  1064                           ;DATA                 0      0      79      12        0.0%
  1065                           ;EEDATA             100      0       0    1000        0.0%
  1066                           
  1067                           	global	_main
  1068                           psect	maintext,local,class=CODE,delta=2
  1069                           global __pmaintext
  1070  02E9                     __pmaintext:
  1071                           
  1072                           ; *************** function _main *****************
  1073                           ; Defined at:
  1074                           ;		line 63 in file "D:\ABHISHEK JOSHI\PIC\LCD\T9\LCD T9.C"
  1075                           ; Parameters:    Size  Location     Type
  1076                           ;		None
  1077                           ; Auto vars:     Size  Location     Type
  1078                           ;		None
  1079                           ; Return value:  Size  Location     Type
  1080                           ;		None               void
  1081                           ; Registers used:
  1082                           ;		wreg, fsr0l, fsr0h, fsr1l, fsr1h, status,2, status,0, btemp+0, btemp+1, btemp+2, btem
                                 p+3, pclath, cstack
  1083                           ; Tracked objects:
  1084                           ;		On entry : 17F/0
  1085                           ;		On exit  : 0/0
  1086                           ;		Unchanged: 0/0
  1087                           ; Data sizes:     COMMON   BANK0   BANK1   BANK3   BANK2
  1088                           ;      Locals:         1       0       0       0       0
  1089                           ;      Temp:     1
  1090                           ;      Total:    1
  1091                           ; This function calls:
  1092                           ;		_init_lcd
  1093                           ;		_init
  1094                           ;		_cmd_wr
  1095                           ;		_data_wr
  1096                           ;		_key_release
  1097                           ;		_lcd_disp
  1098                           ; This function is called by:
  1099                           ;		Startup code after reset
  1100                           ; This function uses a non-reentrant model
  1101                           ; 
  1102                           psect	maintext
  1103                           	file	"D:\ABHISHEK JOSHI\PIC\LCD\T9\LCD T9.C"
  1104                           	line	63
  1105                           	global	__size_of_main
  1106  006E                     	__size_of_main	equ	__end_of_main-_main
  1107                           ;LCD T9.C: 62: void main()
  1108                           ;LCD T9.C: 63: {
  1109                           	
  1110  02E9                     _main:	
  1111                           	opt stack 5
  1112                           ; Regs used in _main: [allreg]
  1113                           	line	64
  1114                           	
  1115  02E9                     l30000685:	
  1116                           ;LCD T9.C: 64: TRISB=0x00;
  1117  02E9  1003               	clrc
  1118  02EA  3000               	movlw	0
  1119  02EB  1803               	btfsc	status,0
  1120  02EC  3001               	movlw	1
  1121  02ED  1683               	bsf	status, 5	;RP0=1, select bank1
  1122  02EE  1303               	bcf	status, 6	;RP1=0, select bank1
  1123  02EF  0086               	movwf	(134)^080h	;volatile
  1124                           	
  1125  02F0                     l30000686:	
  1126                           	line	65
  1127                           ;LCD T9.C: 65: TRISA=0x3C;
  1128  02F0  303C               	movlw	(03Ch)
  1129  02F1  0085               	movwf	(133)^080h	;volatile
  1130                           	
  1131  02F2                     l30000687:	
  1132                           	line	66
  1133                           ;LCD T9.C: 66: TRISC=0x00;
  1134  02F2  1003               	clrc
  1135  02F3  3000               	movlw	0
  1136  02F4  1803               	btfsc	status,0
  1137  02F5  3001               	movlw	1
  1138  02F6  0087               	movwf	(135)^080h	;volatile
  1139                           	line	67
  1140                           ;LCD T9.C: 67: ADCON1=0x06;
  1141  02F7  3006               	movlw	(06h)
  1142  02F8  009F               	movwf	(159)^080h	;volatile
  1143                           	
  1144  02F9                     l30000688:	
  1145                           	line	68
  1146                           ;LCD T9.C: 68: init_lcd();
  1147  02F9  120A  118A  21E1   	fcall	_init_lcd
              120A  118A         
  1148                           	
  1149  02FE                     l30000689:	
  1150                           	line	69
  1151                           ;LCD T9.C: 69: init();
  1152  02FE  120A  118A  24F9   	fcall	_init
              120A  118A         
  1153                           	
  1154  0303                     l30000690:	
  1155                           	line	70
  1156                           ;LCD T9.C: 70: GIE=1;
  1157  0303  1283               	bcf	status, 5	;RP0=0, select bank0
  1158  0304  1303               	bcf	status, 6	;RP1=0, select bank0
  1159  0305  178B               	bsf	(95/8),(95)&7
  1160                           	
  1161  0306                     l30000691:	
  1162                           	line	71
  1163                           ;LCD T9.C: 71: PEIE=1;
  1164  0306  170B               	bsf	(94/8),(94)&7
  1165                           	
  1166  0307                     l30000692:	
  1167                           	line	74
  1168                           ;LCD T9.C: 74: cmd_wr(0x80);
  1169  0307  3080               	movlw	(080h)
  1170  0308  120A  118A  2416   	fcall	_cmd_wr
              120A  118A         
  1171                           	
  1172  030D                     l30000693:	
  1173                           	line	75
  1174                           ;LCD T9.C: 75: for(i=0;i<=12;i++)
  1175  030D  3000               	movlw	low(0)
  1176  030E  1283               	bcf	status, 5	;RP0=0, select bank0
  1177  030F  1303               	bcf	status, 6	;RP1=0, select bank0
  1178  0310  00C0               	movwf	(_i)
  1179  0311  3000               	movlw	high(0)
  1180  0312  00C1               	movwf	((_i))+1
  1181                           	
  1182  0313                     l30000696:	
  1183                           	line	77
  1184                           ;LCD T9.C: 76: {
  1185                           ;LCD T9.C: 77: data_wr(cnt[i]);
  1186  0313  1283               	bcf	status, 5	;RP0=0, select bank0
  1187  0314  1303               	bcf	status, 6	;RP1=0, select bank0
  1188  0315  0840               	movf	(_i),w
  1189  0316  3EA0               	addlw	(_cnt)&0ffh
  1190  0317  0084               	movwf	fsr0
  1191  0318  1383               	bcf	status, 7	;select IRP bank1
  1192  0319  0800               	movf	indf,w
  1193  031A  120A  118A  23EF   	fcall	_data_wr
              120A  118A         
  1194                           	
  1195  031F                     l30000697:	
  1196                           	line	75
  1197  031F  3001               	movlw	low(01h)
  1198  0320  1283               	bcf	status, 5	;RP0=0, select bank0
  1199  0321  1303               	bcf	status, 6	;RP1=0, select bank0
  1200  0322  07C0               	addwf	(_i),f
  1201  0323  1803               	skipnc
  1202  0324  0AC1               	incf	(_i+1),f
  1203  0325  3000               	movlw	high(01h)
  1204  0326  07C1               	addwf	(_i+1),f
  1205                           	
  1206  0327                     l30000698:	
  1207  0327  0841               	movf	(_i+1),w
  1208  0328  3A80               	xorlw	80h
  1209  0329  00F5               	movwf	(??_main+0+0)
  1210  032A  3080               	movlw	(high(0Dh))^80h
  1211  032B  0275               	subwf	(??_main+0+0),w
  1212  032C  1D03               	skipz
  1213  032D  2B30               	goto	u365
  1214  032E  300D               	movlw	low(0Dh)
  1215  032F  0240               	subwf	(_i),w
  1216  0330                     u365:
  1217                           
  1218  0330  1C03               	skipc
  1219  0331  2B33               	goto	u361
  1220  0332  2B34               	goto	u360
  1221  0333                     u361:
  1222  0333  2B13               	goto	l30000696
  1223  0334                     u360:
  1224                           	
  1225  0334                     l30000699:	
  1226                           	line	82
  1227  0334  3001               	movlw	01h
  1228  0335  1283               	bcf	status, 5	;RP0=0, select bank0
  1229  0336  1303               	bcf	status, 6	;RP1=0, select bank0
  1230  0337  0646               	xorwf	(_key_ready),w
  1231  0338  0447               	iorwf	(_key_ready+1),w
  1232  0339  1D03               	skipz
  1233  033A  2B3C               	goto	u371
  1234  033B  2B3D               	goto	u370
  1235  033C                     u371:
  1236  033C  2B34               	goto	l30000699
  1237  033D                     u370:
  1238                           	
  1239  033D                     l30000700:	
  1240                           	line	83
  1241                           ;LCD T9.C: 83: a=key_code;
  1242  033D  0845               	movf	(_key_code+1),w
  1243  033E  01BD               	clrf	(_a+1)
  1244  033F  07BD               	addwf	(_a+1)
  1245  0340  0844               	movf	(_key_code),w
  1246  0341  01BC               	clrf	(_a)
  1247  0342  07BC               	addwf	(_a)
  1248                           
  1249                           	
  1250  0343                     l30000701:	
  1251                           	line	84
  1252                           ;LCD T9.C: 84: ds1=ascii_tab[a];
  1253  0343  083C               	movf	(_a),w
  1254  0344  3E20               	addlw	(_ascii_tab)&0ffh
  1255  0345  0084               	movwf	fsr0
  1256  0346  1383               	bcf	status, 7	;select IRP bank0
  1257  0347  0800               	movf	indf,w
  1258  0348  00F9               	movwf	(_ds1)
  1259                           	
  1260  0349                     l30000702:	
  1261                           	line	85
  1262                           ;LCD T9.C: 85: key_release();
  1263  0349  120A  118A  2494   	fcall	_key_release
              120A  118A         
  1264                           	
  1265  034E                     l30000703:	
  1266                           	line	86
  1267                           ;LCD T9.C: 86: lcd_disp();
  1268  034E  120A  118A  24D5   	fcall	_lcd_disp
              120A  118A         
  1269  0353  2B34               	goto	l30000699
  1270                           	global	start
  1271  0354  120A  118A  2812   	ljmp	start
  1272                           	opt stack 0
  1273                           GLOBAL	__end_of_main
  1274  0357                     	__end_of_main:
  1275                           ; =============== function _main ends ============
  1276                           
  1277                           psect	maintext
  1278                           	line	88
  1279                           	signat	_main,88
  1280                           	global	_lcd_disp
  1281                           psect	text111,local,class=CODE,delta=2
  1282                           global __ptext111
  1283  04D5                     __ptext111:
  1284                           
  1285                           ; *************** function _lcd_disp *****************
  1286                           ; Defined at:
  1287                           ;		line 360 in file "D:\ABHISHEK JOSHI\PIC\LCD\T9\LCD T9.C"
  1288                           ; Parameters:    Size  Location     Type
  1289                           ;		None
  1290                           ; Auto vars:     Size  Location     Type
  1291                           ;		None
  1292                           ; Return value:  Size  Location     Type
  1293                           ;		None               void
  1294                           ; Registers used:
  1295                           ;		wreg, fsr0l, fsr0h, fsr1l, fsr1h, status,2, status,0, btemp+0, btemp+1, btemp+2, btem
                                 p+3, pclath, cstack
  1296                           ; Tracked objects:
  1297                           ;		On entry : 0/0
  1298                           ;		On exit  : 0/0
  1299                           ;		Unchanged: 0/0
  1300                           ; Data sizes:     COMMON   BANK0   BANK1   BANK3   BANK2
  1301                           ;      Locals:         0       0       0       0       0
  1302                           ;      Temp:     0
  1303                           ;      Total:    0
  1304                           ; This function calls:
  1305                           ;		_cmd_wr
  1306                           ;		_data_wr
  1307                           ; This function is called by:
  1308                           ;		_main
  1309                           ; This function uses a non-reentrant model
  1310                           ; 
  1311                           psect	text111
  1312                           	file	"D:\ABHISHEK JOSHI\PIC\LCD\T9\LCD T9.C"
  1313                           	line	360
  1314                           	global	__size_of_lcd_disp
  1315  000D                     	__size_of_lcd_disp	equ	__end_of_lcd_disp-_lcd_disp
  1316                           ;LCD T9.C: 359: void lcd_disp()
  1317                           ;LCD T9.C: 360: {
  1318                           	
  1319  04D5                     _lcd_disp:	
  1320                           	opt stack 4
  1321                           ; Regs used in _lcd_disp: [allreg]
  1322                           	line	362
  1323                           	
  1324  04D5                     l30000614:	
  1325                           ;LCD T9.C: 362: cmd_wr(0xc0);
  1326  04D5  30C0               	movlw	(0C0h)
  1327  04D6  120A  118A  2416   	fcall	_cmd_wr
              120A  118A         
  1328                           	line	363
  1329                           ;LCD T9.C: 363: data_wr(ds1);
  1330  04DB  0879               	movf	(_ds1),w
  1331  04DC  120A  118A  23EF   	fcall	_data_wr
              120A  118A         
  1332                           	
  1333  04E1                     l67:	
  1334  04E1  0008               	return
  1335                           	opt stack 0
  1336                           GLOBAL	__end_of_lcd_disp
  1337  04E2                     	__end_of_lcd_disp:
  1338                           ; =============== function _lcd_disp ends ============
  1339                           
  1340                           psect	text112,local,class=CODE,delta=2
  1341                           global __ptext112
  1342  0494                     __ptext112:
  1343                           	line	365
  1344                           	signat	_lcd_disp,88
  1345                           	global	_key_release
  1346                           
  1347                           ; *************** function _key_release *****************
  1348                           ; Defined at:
  1349                           ;		line 347 in file "D:\ABHISHEK JOSHI\PIC\LCD\T9\LCD T9.C"
  1350                           ; Parameters:    Size  Location     Type
  1351                           ;		None
  1352                           ; Auto vars:     Size  Location     Type
  1353                           ;		None
  1354                           ; Return value:  Size  Location     Type
  1355                           ;		None               void
  1356                           ; Registers used:
  1357                           ;		wreg
  1358                           ; Tracked objects:
  1359                           ;		On entry : 0/0
  1360                           ;		On exit  : 0/0
  1361                           ;		Unchanged: 0/0
  1362                           ; Data sizes:     COMMON   BANK0   BANK1   BANK3   BANK2
  1363                           ;      Locals:         0       0       0       0       0
  1364                           ;      Temp:     0
  1365                           ;      Total:    0
  1366                           ; This function calls:
  1367                           ;		Nothing
  1368                           ; This function is called by:
  1369                           ;		_main
  1370                           ; This function uses a non-reentrant model
  1371                           ; 
  1372                           psect	text112
  1373                           	file	"D:\ABHISHEK JOSHI\PIC\LCD\T9\LCD T9.C"
  1374                           	line	347
  1375                           	global	__size_of_key_release
  1376  0012                     	__size_of_key_release	equ	__end_of_key_release-_key_release
  1377                           ;LCD T9.C: 346: void key_release()
  1378                           ;LCD T9.C: 347: {
  1379                           	
  1380  0494                     _key_release:	
  1381                           	opt stack 4
  1382                           ; Regs used in _key_release: [wreg]
  1383                           	
  1384  0494                     l30000615:	
  1385                           	
  1386  0494                     l30000616:	
  1387                           	line	348
  1388  0494  3001               	movlw	01h
  1389  0495  1283               	bcf	status, 5	;RP0=0, select bank0
  1390  0496  1303               	bcf	status, 6	;RP1=0, select bank0
  1391  0497  064A               	xorwf	(_nkp),w
  1392  0498  044B               	iorwf	(_nkp+1),w
  1393  0499  1D03               	skipz
  1394  049A  2C9C               	goto	u271
  1395  049B  2C9D               	goto	u270
  1396  049C                     u271:
  1397  049C  2C94               	goto	l30000616
  1398  049D                     u270:
  1399                           	
  1400  049D                     l30000617:	
  1401                           	line	349
  1402                           ;LCD T9.C: 349: key_ready=0;
  1403  049D  3000               	movlw	low(0)
  1404  049E  00C6               	movwf	(_key_ready)
  1405  049F  3000               	movlw	high(0)
  1406  04A0  00C7               	movwf	((_key_ready))+1
  1407                           	line	350
  1408                           ;LCD T9.C: 350: nkp=0;
  1409  04A1  3000               	movlw	low(0)
  1410  04A2  00CA               	movwf	(_nkp)
  1411  04A3  3000               	movlw	high(0)
  1412  04A4  00CB               	movwf	((_nkp))+1
  1413                           	
  1414  04A5                     l61:	
  1415  04A5  0008               	return
  1416                           	opt stack 0
  1417                           GLOBAL	__end_of_key_release
  1418  04A6                     	__end_of_key_release:
  1419                           ; =============== function _key_release ends ============
  1420                           
  1421                           psect	text113,local,class=CODE,delta=2
  1422                           global __ptext113
  1423  04F9                     __ptext113:
  1424                           	line	351
  1425                           	signat	_key_release,88
  1426                           	global	_init
  1427                           
  1428                           ; *************** function _init *****************
  1429                           ; Defined at:
  1430                           ;		line 91 in file "D:\ABHISHEK JOSHI\PIC\LCD\T9\LCD T9.C"
  1431                           ; Parameters:    Size  Location     Type
  1432                           ;		None
  1433                           ; Auto vars:     Size  Location     Type
  1434                           ;		None
  1435                           ; Return value:  Size  Location     Type
  1436                           ;		None               void
  1437                           ; Registers used:
  1438                           ;		wreg, status,2, status,0, pclath, cstack
  1439                           ; Tracked objects:
  1440                           ;		On entry : 0/0
  1441                           ;		On exit  : 0/0
  1442                           ;		Unchanged: 0/0
  1443                           ; Data sizes:     COMMON   BANK0   BANK1   BANK3   BANK2
  1444                           ;      Locals:         0       0       0       0       0
  1445                           ;      Temp:     0
  1446                           ;      Total:    0
  1447                           ; This function calls:
  1448                           ;		_init_keypad
  1449                           ;		_init_timer
  1450                           ; This function is called by:
  1451                           ;		_main
  1452                           ; This function uses a non-reentrant model
  1453                           ; 
  1454                           psect	text113
  1455                           	file	"D:\ABHISHEK JOSHI\PIC\LCD\T9\LCD T9.C"
  1456                           	line	91
  1457                           	global	__size_of_init
  1458  000B                     	__size_of_init	equ	__end_of_init-_init
  1459                           ;LCD T9.C: 90: void init()
  1460                           ;LCD T9.C: 91: {
  1461                           	
  1462  04F9                     _init:	
  1463                           	opt stack 4
  1464                           ; Regs used in _init: [wreg+status,2+status,0+pclath+cstack]
  1465                           	line	93
  1466                           	
  1467  04F9                     l30000618:	
  1468                           ;LCD T9.C: 93: init_keypad();
  1469  04F9  120A  118A  243D   	fcall	_init_keypad
              120A  118A         
  1470                           	line	94
  1471                           ;LCD T9.C: 94: init_timer();
  1472  04FE  120A  118A  24C6   	fcall	_init_timer
              120A  118A         
  1473                           	
  1474  0503                     l13:	
  1475  0503  0008               	return
  1476                           	opt stack 0
  1477                           GLOBAL	__end_of_init
  1478  0504                     	__end_of_init:
  1479                           ; =============== function _init ends ============
  1480                           
  1481                           psect	text114,local,class=CODE,delta=2
  1482                           global __ptext114
  1483  01E1                     __ptext114:
  1484                           	line	95
  1485                           	signat	_init,88
  1486                           	global	_init_lcd
  1487                           
  1488                           ; *************** function _init_lcd *****************
  1489                           ; Defined at:
  1490                           ;		line 368 in file "D:\ABHISHEK JOSHI\PIC\LCD\T9\LCD T9.C"
  1491                           ; Parameters:    Size  Location     Type
  1492                           ;		None
  1493                           ; Auto vars:     Size  Location     Type
  1494                           ;		None
  1495                           ; Return value:  Size  Location     Type
  1496                           ;		None               void
  1497                           ; Registers used:
  1498                           ;		wreg, status,2, status,0, pclath, cstack
  1499                           ; Tracked objects:
  1500                           ;		On entry : 0/0
  1501                           ;		On exit  : 0/0
  1502                           ;		Unchanged: 0/0
  1503                           ; Data sizes:     COMMON   BANK0   BANK1   BANK3   BANK2
  1504                           ;      Locals:         0       0       0       0       0
  1505                           ;      Temp:     0
  1506                           ;      Total:    0
  1507                           ; This function calls:
  1508                           ;		_lcd_delay
  1509                           ;		_cmd_wr
  1510                           ; This function is called by:
  1511                           ;		_main
  1512                           ; This function uses a non-reentrant model
  1513                           ; 
  1514                           psect	text114
  1515                           	file	"D:\ABHISHEK JOSHI\PIC\LCD\T9\LCD T9.C"
  1516                           	line	368
  1517                           	global	__size_of_init_lcd
  1518  0097                     	__size_of_init_lcd	equ	__end_of_init_lcd-_init_lcd
  1519                           ;LCD T9.C: 367: void init_lcd()
  1520                           ;LCD T9.C: 368: {
  1521                           	
  1522  01E1                     _init_lcd:	
  1523                           	opt stack 4
  1524                           ; Regs used in _init_lcd: [wreg+status,2+status,0+pclath+cstack]
  1525                           	line	369
  1526                           	
  1527  01E1                     l30000668:	
  1528                           ;LCD T9.C: 369: lcd_delay (3);
  1529  01E1  3003               	movlw	low(03h)
  1530  01E2  00F3               	movwf	(?_lcd_delay)
  1531  01E3  3000               	movlw	high(03h)
  1532  01E4  00F4               	movwf	((?_lcd_delay))+1
  1533  01E5  120A  118A  2357   	fcall	_lcd_delay
              120A  118A         
  1534                           	line	370
  1535                           ;LCD T9.C: 370: lcd_delay (3);
  1536  01EA  3003               	movlw	low(03h)
  1537  01EB  00F3               	movwf	(?_lcd_delay)
  1538  01EC  3000               	movlw	high(03h)
  1539  01ED  00F4               	movwf	((?_lcd_delay))+1
  1540  01EE  120A  118A  2357   	fcall	_lcd_delay
              120A  118A         
  1541                           	line	371
  1542                           ;LCD T9.C: 371: lcd_delay (3);
  1543  01F3  3003               	movlw	low(03h)
  1544  01F4  00F3               	movwf	(?_lcd_delay)
  1545  01F5  3000               	movlw	high(03h)
  1546  01F6  00F4               	movwf	((?_lcd_delay))+1
  1547  01F7  120A  118A  2357   	fcall	_lcd_delay
              120A  118A         
  1548                           	
  1549  01FC                     l30000669:	
  1550                           	line	373
  1551                           ;LCD T9.C: 373: cmd_data=0x03;
  1552  01FC  3003               	movlw	(03h)
  1553  01FD  00F8               	movwf	(_cmd_data)
  1554                           	
  1555  01FE                     l30000670:	
  1556                           	line	374
  1557                           ;LCD T9.C: 374: cmd_wr(cmd_data);
  1558  01FE  3003               	movlw	(03h)
  1559  01FF  120A  118A  2416   	fcall	_cmd_wr
              120A  118A         
  1560                           	
  1561  0204                     l30000671:	
  1562                           	line	375
  1563                           ;LCD T9.C: 375: lcd_delay(3);
  1564  0204  3003               	movlw	low(03h)
  1565  0205  00F3               	movwf	(?_lcd_delay)
  1566  0206  3000               	movlw	high(03h)
  1567  0207  00F4               	movwf	((?_lcd_delay))+1
  1568  0208  120A  118A  2357   	fcall	_lcd_delay
              120A  118A         
  1569                           	
  1570  020D                     l30000672:	
  1571                           	line	377
  1572                           ;LCD T9.C: 377: cmd_data=0x03;
  1573  020D  3003               	movlw	(03h)
  1574  020E  00F8               	movwf	(_cmd_data)
  1575                           	line	378
  1576                           ;LCD T9.C: 378: cmd_wr(cmd_data);
  1577  020F  3003               	movlw	(03h)
  1578  0210  120A  118A  2416   	fcall	_cmd_wr
              120A  118A         
  1579                           	line	379
  1580                           ;LCD T9.C: 379: lcd_delay(3);
  1581  0215  3003               	movlw	low(03h)
  1582  0216  00F3               	movwf	(?_lcd_delay)
  1583  0217  3000               	movlw	high(03h)
  1584  0218  00F4               	movwf	((?_lcd_delay))+1
  1585  0219  120A  118A  2357   	fcall	_lcd_delay
              120A  118A         
  1586                           	
  1587  021E                     l30000673:	
  1588                           	line	381
  1589                           ;LCD T9.C: 381: cmd_data=0x03;
  1590  021E  3003               	movlw	(03h)
  1591  021F  00F8               	movwf	(_cmd_data)
  1592                           	
  1593  0220                     l30000674:	
  1594                           	line	382
  1595                           ;LCD T9.C: 382: cmd_wr(cmd_data);
  1596  0220  3003               	movlw	(03h)
  1597  0221  120A  118A  2416   	fcall	_cmd_wr
              120A  118A         
  1598                           	
  1599  0226                     l30000675:	
  1600                           	line	383
  1601                           ;LCD T9.C: 383: lcd_delay(3);
  1602  0226  3003               	movlw	low(03h)
  1603  0227  00F3               	movwf	(?_lcd_delay)
  1604  0228  3000               	movlw	high(03h)
  1605  0229  00F4               	movwf	((?_lcd_delay))+1
  1606  022A  120A  118A  2357   	fcall	_lcd_delay
              120A  118A         
  1607                           	
  1608  022F                     l30000676:	
  1609                           	line	385
  1610                           ;LCD T9.C: 385: cmd_data=0x20;
  1611  022F  3020               	movlw	(020h)
  1612  0230  00F8               	movwf	(_cmd_data)
  1613                           	line	386
  1614                           ;LCD T9.C: 386: cmd_wr(cmd_data);
  1615  0231  3020               	movlw	(020h)
  1616  0232  120A  118A  2416   	fcall	_cmd_wr
              120A  118A         
  1617                           	line	387
  1618                           ;LCD T9.C: 387: lcd_delay(3);
  1619  0237  3003               	movlw	low(03h)
  1620  0238  00F3               	movwf	(?_lcd_delay)
  1621  0239  3000               	movlw	high(03h)
  1622  023A  00F4               	movwf	((?_lcd_delay))+1
  1623  023B  120A  118A  2357   	fcall	_lcd_delay
              120A  118A         
  1624                           	
  1625  0240                     l30000677:	
  1626                           	line	389
  1627                           ;LCD T9.C: 389: cmd_data=0x28;
  1628  0240  3028               	movlw	(028h)
  1629  0241  00F8               	movwf	(_cmd_data)
  1630                           	
  1631  0242                     l30000678:	
  1632                           	line	390
  1633                           ;LCD T9.C: 390: cmd_wr(cmd_data);
  1634  0242  3028               	movlw	(028h)
  1635  0243  120A  118A  2416   	fcall	_cmd_wr
              120A  118A         
  1636                           	
  1637  0248                     l30000679:	
  1638                           	line	391
  1639                           ;LCD T9.C: 391: lcd_delay(3);
  1640  0248  3003               	movlw	low(03h)
  1641  0249  00F3               	movwf	(?_lcd_delay)
  1642  024A  3000               	movlw	high(03h)
  1643  024B  00F4               	movwf	((?_lcd_delay))+1
  1644  024C  120A  118A  2357   	fcall	_lcd_delay
              120A  118A         
  1645                           	
  1646  0251                     l30000680:	
  1647                           	line	393
  1648                           ;LCD T9.C: 393: cmd_data=0x06;
  1649  0251  3006               	movlw	(06h)
  1650  0252  00F8               	movwf	(_cmd_data)
  1651                           	line	394
  1652                           ;LCD T9.C: 394: cmd_wr(cmd_data);
  1653  0253  3006               	movlw	(06h)
  1654  0254  120A  118A  2416   	fcall	_cmd_wr
              120A  118A         
  1655                           	line	395
  1656                           ;LCD T9.C: 395: lcd_delay(3);
  1657  0259  3003               	movlw	low(03h)
  1658  025A  00F3               	movwf	(?_lcd_delay)
  1659  025B  3000               	movlw	high(03h)
  1660  025C  00F4               	movwf	((?_lcd_delay))+1
  1661  025D  120A  118A  2357   	fcall	_lcd_delay
              120A  118A         
  1662                           	
  1663  0262                     l30000681:	
  1664                           	line	397
  1665                           ;LCD T9.C: 397: cmd_data=0x01;
  1666  0262  01F8               	clrf	(_cmd_data)
  1667  0263  1403               	bsf	status,0
  1668  0264  0DF8               	rlf	(_cmd_data),f
  1669                           	
  1670  0265                     l30000682:	
  1671                           	line	398
  1672                           ;LCD T9.C: 398: cmd_wr(cmd_data);
  1673  0265  3001               	movlw	(01h)
  1674  0266  120A  118A  2416   	fcall	_cmd_wr
              120A  118A         
  1675                           	
  1676  026B                     l30000683:	
  1677                           	line	399
  1678                           ;LCD T9.C: 399: lcd_delay(3);
  1679  026B  3003               	movlw	low(03h)
  1680  026C  00F3               	movwf	(?_lcd_delay)
  1681  026D  3000               	movlw	high(03h)
  1682  026E  00F4               	movwf	((?_lcd_delay))+1
  1683  026F  120A  118A  2357   	fcall	_lcd_delay
              120A  118A         
  1684                           	
  1685  0274                     l30000684:	
  1686                           	line	401
  1687                           ;LCD T9.C: 401: RB0=0;
  1688  0274  1283               	bcf	status, 5	;RP0=0, select bank0
  1689  0275  1303               	bcf	status, 6	;RP1=0, select bank0
  1690  0276  1006               	bcf	(48/8),(48)&7
  1691                           	
  1692  0277                     l68:	
  1693  0277  0008               	return
  1694                           	opt stack 0
  1695                           GLOBAL	__end_of_init_lcd
  1696  0278                     	__end_of_init_lcd:
  1697                           ; =============== function _init_lcd ends ============
  1698                           
  1699                           psect	text115,local,class=CODE,delta=2
  1700                           global __ptext115
  1701  04C6                     __ptext115:
  1702                           	line	402
  1703                           	signat	_init_lcd,88
  1704                           	global	_init_timer
  1705                           
  1706                           ; *************** function _init_timer *****************
  1707                           ; Defined at:
  1708                           ;		line 98 in file "D:\ABHISHEK JOSHI\PIC\LCD\T9\LCD T9.C"
  1709                           ; Parameters:    Size  Location     Type
  1710                           ;		None
  1711                           ; Auto vars:     Size  Location     Type
  1712                           ;		None
  1713                           ; Return value:  Size  Location     Type
  1714                           ;		None               void
  1715                           ; Registers used:
  1716                           ;		wreg
  1717                           ; Tracked objects:
  1718                           ;		On entry : 0/0
  1719                           ;		On exit  : 0/0
  1720                           ;		Unchanged: 0/0
  1721                           ; Data sizes:     COMMON   BANK0   BANK1   BANK3   BANK2
  1722                           ;      Locals:         0       0       0       0       0
  1723                           ;      Temp:     0
  1724                           ;      Total:    0
  1725                           ; This function calls:
  1726                           ;		Nothing
  1727                           ; This function is called by:
  1728                           ;		_init
  1729                           ; This function uses a non-reentrant model
  1730                           ; 
  1731                           psect	text115
  1732                           	file	"D:\ABHISHEK JOSHI\PIC\LCD\T9\LCD T9.C"
  1733                           	line	98
  1734                           	global	__size_of_init_timer
  1735  000F                     	__size_of_init_timer	equ	__end_of_init_timer-_init_timer
  1736                           ;LCD T9.C: 97: void init_timer()
  1737                           ;LCD T9.C: 98: {
  1738                           	
  1739  04C6                     _init_timer:	
  1740                           	opt stack 3
  1741                           ; Regs used in _init_timer: [wreg]
  1742                           	line	99
  1743                           	
  1744  04C6                     l30000639:	
  1745                           ;LCD T9.C: 99: TMR1H=0xFC;
  1746  04C6  30FC               	movlw	(0FCh)
  1747  04C7  1283               	bcf	status, 5	;RP0=0, select bank0
  1748  04C8  1303               	bcf	status, 6	;RP1=0, select bank0
  1749  04C9  008F               	movwf	(15)	;volatile
  1750                           	line	100
  1751                           ;LCD T9.C: 100: TMR1L=0x18;
  1752  04CA  3018               	movlw	(018h)
  1753  04CB  008E               	movwf	(14)	;volatile
  1754                           	line	101
  1755                           ;LCD T9.C: 101: T1CON=0x01;
  1756  04CC  3001               	movlw	(01h)
  1757  04CD  0090               	movwf	(16)	;volatile
  1758                           	
  1759  04CE                     l30000640:	
  1760                           	line	102
  1761                           ;LCD T9.C: 102: TMR1IE=1;
  1762  04CE  1683               	bsf	status, 5	;RP0=1, select bank1
  1763  04CF  1303               	bcf	status, 6	;RP1=0, select bank1
  1764  04D0  140C               	bsf	(1120/8)^080h,(1120)&7
  1765                           	
  1766  04D1                     l30000641:	
  1767                           	line	103
  1768                           ;LCD T9.C: 103: TMR1IF=0;
  1769  04D1  1283               	bcf	status, 5	;RP0=0, select bank0
  1770  04D2  1303               	bcf	status, 6	;RP1=0, select bank0
  1771  04D3  100C               	bcf	(96/8),(96)&7
  1772                           	
  1773  04D4                     l14:	
  1774  04D4  0008               	return
  1775                           	opt stack 0
  1776                           GLOBAL	__end_of_init_timer
  1777  04D5                     	__end_of_init_timer:
  1778                           ; =============== function _init_timer ends ============
  1779                           
  1780                           psect	text116,local,class=CODE,delta=2
  1781                           global __ptext116
  1782  03EF                     __ptext116:
  1783                           	line	104
  1784                           	signat	_init_timer,88
  1785                           	global	_data_wr
  1786                           
  1787                           ; *************** function _data_wr *****************
  1788                           ; Defined at:
  1789                           ;		line 417 in file "D:\ABHISHEK JOSHI\PIC\LCD\T9\LCD T9.C"
  1790                           ; Parameters:    Size  Location     Type
  1791                           ;  var_data        1    wreg     unsigned char 
  1792                           ; Auto vars:     Size  Location     Type
  1793                           ;  var_data        1    3[COMMON] unsigned char 
  1794                           ; Return value:  Size  Location     Type
  1795                           ;		None               void
  1796                           ; Registers used:
  1797                           ;		wreg, status,2, status,0, pclath, cstack
  1798                           ; Tracked objects:
  1799                           ;		On entry : 0/0
  1800                           ;		On exit  : 0/0
  1801                           ;		Unchanged: 0/0
  1802                           ; Data sizes:     COMMON   BANK0   BANK1   BANK3   BANK2
  1803                           ;      Locals:         2       0       0       0       0
  1804                           ;      Temp:     1
  1805                           ;      Total:    2
  1806                           ; This function calls:
  1807                           ;		_data_mapping
  1808                           ;		_toggle
  1809                           ; This function is called by:
  1810                           ;		_main
  1811                           ;		_lcd_disp
  1812                           ; This function uses a non-reentrant model
  1813                           ; 
  1814                           psect	text116
  1815                           	file	"D:\ABHISHEK JOSHI\PIC\LCD\T9\LCD T9.C"
  1816                           	line	417
  1817                           	global	__size_of_data_wr
  1818  0027                     	__size_of_data_wr	equ	__end_of_data_wr-_data_wr
  1819                           ;LCD T9.C: 416: void data_wr(unsigned char var_data)
  1820                           ;LCD T9.C: 417: {
  1821                           	
  1822  03EF                     _data_wr:	
  1823                           	opt stack 3
  1824                           ; Regs used in _data_wr: [wreg+status,2+status,0+pclath+cstack]
  1825                           ;data_wr@var_data stored from wreg
  1826  03EF  00F3               	movwf	(data_wr@var_data)
  1827                           	
  1828  03F0                     l30000642:	
  1829                           	line	418
  1830                           ;LCD T9.C: 418: RB1=1;
  1831  03F0  1283               	bcf	status, 5	;RP0=0, select bank0
  1832  03F1  1303               	bcf	status, 6	;RP1=0, select bank0
  1833  03F2  1486               	bsf	(49/8),(49)&7
  1834                           	line	419
  1835                           ;LCD T9.C: 419: RB2=0;
  1836  03F3  1106               	bcf	(50/8),(50)&7
  1837                           	
  1838  03F4                     l30000643:	
  1839                           	line	420
  1840                           ;LCD T9.C: 420: data_mapping(var_data);
  1841  03F4  0873               	movf	(data_wr@var_data),w
  1842  03F5  120A  118A  24EE   	fcall	_data_mapping
              120A  118A         
  1843                           	
  1844  03FA                     l30000644:	
  1845                           	line	421
  1846                           ;LCD T9.C: 421: toggle();
  1847  03FA  120A  118A  250C   	fcall	_toggle
              120A  118A         
  1848                           	
  1849  03FF                     l30000645:	
  1850                           	line	422
  1851                           ;LCD T9.C: 422: var_data=var_data<<4;
  1852  03FF  0873               	movf	(data_wr@var_data),w
  1853  0400  00F2               	movwf	(??_data_wr+0+0)
  1854  0401  3003               	movlw	(04h)-1
  1855  0402                     u285:
  1856  0402  1003               	clrc
  1857  0403  0DF2               	rlf	(??_data_wr+0+0),f
  1858  0404  3EFF               	addlw	-1
  1859  0405  1D03               	skipz
  1860  0406  2C02               	goto	u285
  1861  0407  1003               	clrc
  1862  0408  0D72               	rlf	(??_data_wr+0+0),w
  1863  0409  00F3               	movwf	(data_wr@var_data)
  1864                           	
  1865  040A                     l30000646:	
  1866                           	line	423
  1867                           ;LCD T9.C: 423: data_mapping(var_data);
  1868  040A  0873               	movf	(data_wr@var_data),w
  1869  040B  120A  118A  24EE   	fcall	_data_mapping
              120A  118A         
  1870                           	
  1871  0410                     l30000647:	
  1872                           	line	424
  1873                           ;LCD T9.C: 424: toggle();
  1874  0410  120A  118A  250C   	fcall	_toggle
              120A  118A         
  1875                           	
  1876  0415                     l70:	
  1877  0415  0008               	return
  1878                           	opt stack 0
  1879                           GLOBAL	__end_of_data_wr
  1880  0416                     	__end_of_data_wr:
  1881                           ; =============== function _data_wr ends ============
  1882                           
  1883                           psect	text117,local,class=CODE,delta=2
  1884                           global __ptext117
  1885  043D                     __ptext117:
  1886                           	line	425
  1887                           	signat	_data_wr,4216
  1888                           	global	_init_keypad
  1889                           
  1890                           ; *************** function _init_keypad *****************
  1891                           ; Defined at:
  1892                           ;		line 115 in file "D:\ABHISHEK JOSHI\PIC\LCD\T9\LCD T9.C"
  1893                           ; Parameters:    Size  Location     Type
  1894                           ;		None
  1895                           ; Auto vars:     Size  Location     Type
  1896                           ;		None
  1897                           ; Return value:  Size  Location     Type
  1898                           ;		None               void
  1899                           ; Registers used:
  1900                           ;		wreg
  1901                           ; Tracked objects:
  1902                           ;		On entry : 0/0
  1903                           ;		On exit  : 0/0
  1904                           ;		Unchanged: 0/0
  1905                           ; Data sizes:     COMMON   BANK0   BANK1   BANK3   BANK2
  1906                           ;      Locals:         0       0       0       0       0
  1907                           ;      Temp:     0
  1908                           ;      Total:    0
  1909                           ; This function calls:
  1910                           ;		Nothing
  1911                           ; This function is called by:
  1912                           ;		_init
  1913                           ; This function uses a non-reentrant model
  1914                           ; 
  1915                           psect	text117
  1916                           	file	"D:\ABHISHEK JOSHI\PIC\LCD\T9\LCD T9.C"
  1917                           	line	115
  1918                           	global	__size_of_init_keypad
  1919  001F                     	__size_of_init_keypad	equ	__end_of_init_keypad-_init_keypad
  1920                           ;LCD T9.C: 114: void init_keypad()
  1921                           ;LCD T9.C: 115: {
  1922                           	
  1923  043D                     _init_keypad:	
  1924                           	opt stack 3
  1925                           ; Regs used in _init_keypad: [wreg]
  1926                           	line	116
  1927                           	
  1928  043D                     l30000648:	
  1929                           ;LCD T9.C: 116: RA2=1;
  1930  043D  1283               	bcf	status, 5	;RP0=0, select bank0
  1931  043E  1303               	bcf	status, 6	;RP1=0, select bank0
  1932  043F  1505               	bsf	(42/8),(42)&7
  1933                           	line	117
  1934                           ;LCD T9.C: 117: RA3=1;
  1935  0440  1585               	bsf	(43/8),(43)&7
  1936                           	line	118
  1937                           ;LCD T9.C: 118: RA4=1;
  1938  0441  1605               	bsf	(44/8),(44)&7
  1939                           	line	119
  1940                           ;LCD T9.C: 119: RA5=1;
  1941  0442  1685               	bsf	(45/8),(45)&7
  1942                           	
  1943  0443                     l30000649:	
  1944                           	line	120
  1945                           ;LCD T9.C: 120: scan_no=0;
  1946  0443  3000               	movlw	low(0)
  1947  0444  00CC               	movwf	(_scan_no)
  1948  0445  3000               	movlw	high(0)
  1949  0446  00CD               	movwf	((_scan_no))+1
  1950                           	line	121
  1951                           ;LCD T9.C: 121: dcount=33;
  1952  0447  3021               	movlw	low(021h)
  1953  0448  00F6               	movwf	(_dcount)
  1954  0449  3000               	movlw	high(021h)
  1955  044A  00F7               	movwf	((_dcount))+1
  1956                           	line	122
  1957                           ;LCD T9.C: 122: krcount=32;
  1958  044B  3020               	movlw	low(020h)
  1959  044C  00C8               	movwf	(_krcount)
  1960  044D  3000               	movlw	high(020h)
  1961  044E  00C9               	movwf	((_krcount))+1
  1962                           	line	123
  1963                           ;LCD T9.C: 123: key_ready=0;
  1964  044F  3000               	movlw	low(0)
  1965  0450  00C6               	movwf	(_key_ready)
  1966  0451  3000               	movlw	high(0)
  1967  0452  00C7               	movwf	((_key_ready))+1
  1968                           	line	124
  1969                           ;LCD T9.C: 124: nkp=0;
  1970  0453  3000               	movlw	low(0)
  1971  0454  00CA               	movwf	(_nkp)
  1972  0455  3000               	movlw	high(0)
  1973  0456  00CB               	movwf	((_nkp))+1
  1974                           	line	125
  1975                           ;LCD T9.C: 125: start_buzzer=0;
  1976  0457  3000               	movlw	low(0)
  1977  0458  00CE               	movwf	(_start_buzzer)
  1978  0459  3000               	movlw	high(0)
  1979  045A  00CF               	movwf	((_start_buzzer))+1
  1980                           	
  1981  045B                     l16:	
  1982  045B  0008               	return
  1983                           	opt stack 0
  1984                           GLOBAL	__end_of_init_keypad
  1985  045C                     	__end_of_init_keypad:
  1986                           ; =============== function _init_keypad ends ============
  1987                           
  1988                           psect	text118,local,class=CODE,delta=2
  1989                           global __ptext118
  1990  0357                     __ptext118:
  1991                           	line	126
  1992                           	signat	_init_keypad,88
  1993                           	global	_lcd_delay
  1994                           
  1995                           ; *************** function _lcd_delay *****************
  1996                           ; Defined at:
  1997                           ;		line 445 in file "D:\ABHISHEK JOSHI\PIC\LCD\T9\LCD T9.C"
  1998                           ; Parameters:    Size  Location     Type
  1999                           ;  x               2    3[COMMON] unsigned int 
  2000                           ; Auto vars:     Size  Location     Type
  2001                           ;  j               2    2[BANK0 ] unsigned int 
  2002                           ;  i               2    0[BANK0 ] unsigned int 
  2003                           ; Return value:  Size  Location     Type
  2004                           ;		None               void
  2005                           ; Registers used:
  2006                           ;		wreg
  2007                           ; Tracked objects:
  2008                           ;		On entry : 0/0
  2009                           ;		On exit  : 0/0
  2010                           ;		Unchanged: 0/0
  2011                           ; Data sizes:     COMMON   BANK0   BANK1   BANK3   BANK2
  2012                           ;      Locals:         5       4       0       0       0
  2013                           ;      Temp:     3
  2014                           ;      Total:    9
  2015                           ; This function calls:
  2016                           ;		Nothing
  2017                           ; This function is called by:
  2018                           ;		_init_lcd
  2019                           ; This function uses a non-reentrant model
  2020                           ; 
  2021                           psect	text118
  2022                           	file	"D:\ABHISHEK JOSHI\PIC\LCD\T9\LCD T9.C"
  2023                           	line	445
  2024                           	global	__size_of_lcd_delay
  2025  0036                     	__size_of_lcd_delay	equ	__end_of_lcd_delay-_lcd_delay
  2026                           ;LCD T9.C: 444: void lcd_delay(unsigned int x)
  2027                           ;LCD T9.C: 445: {
  2028                           	
  2029  0357                     _lcd_delay:	
  2030                           	opt stack 3
  2031                           ; Regs used in _lcd_delay: [wreg]
  2032                           	line	448
  2033                           	
  2034  0357                     l30000663:	
  2035                           ;LCD T9.C: 446: unsigned int i,j;
  2036                           ;LCD T9.C: 448: for (i=0;i<=2*x;i++)
  2037  0357  3000               	movlw	low(0)
  2038  0358  1283               	bcf	status, 5	;RP0=0, select bank0
  2039  0359  1303               	bcf	status, 6	;RP1=0, select bank0
  2040  035A  00D3               	movwf	(lcd_delay@i)
  2041  035B  3000               	movlw	high(0)
  2042  035C  00D4               	movwf	((lcd_delay@i))+1
  2043  035D  2B77               	goto	l77
  2044                           	
  2045  035E                     l30000664:	
  2046                           	line	450
  2047                           ;LCD T9.C: 449: {
  2048                           ;LCD T9.C: 450: for (j=0;j<=120;j++);
  2049  035E  3000               	movlw	low(0)
  2050  035F  00D5               	movwf	(lcd_delay@j)
  2051  0360  3000               	movlw	high(0)
  2052  0361  00D6               	movwf	((lcd_delay@j))+1
  2053                           	
  2054  0362                     l30000666:	
  2055  0362  3001               	movlw	low(01h)
  2056  0363  07D5               	addwf	(lcd_delay@j),f
  2057  0364  1803               	skipnc
  2058  0365  0AD6               	incf	(lcd_delay@j+1),f
  2059  0366  3000               	movlw	high(01h)
  2060  0367  07D6               	addwf	(lcd_delay@j+1),f
  2061  0368  3000               	movlw	high(079h)
  2062  0369  0256               	subwf	(lcd_delay@j+1),w
  2063  036A  3079               	movlw	low(079h)
  2064  036B  1903               	skipnz
  2065  036C  0255               	subwf	(lcd_delay@j),w
  2066  036D  1C03               	skipc
  2067  036E  2B70               	goto	u331
  2068  036F  2B71               	goto	u330
  2069  0370                     u331:
  2070  0370  2B62               	goto	l30000666
  2071  0371                     u330:
  2072                           	
  2073  0371                     l30000667:	
  2074                           	line	448
  2075  0371  3001               	movlw	low(01h)
  2076  0372  07D3               	addwf	(lcd_delay@i),f
  2077  0373  1803               	skipnc
  2078  0374  0AD4               	incf	(lcd_delay@i+1),f
  2079  0375  3000               	movlw	high(01h)
  2080  0376  07D4               	addwf	(lcd_delay@i+1),f
  2081                           	
  2082  0377                     l77:	
  2083  0377  0874               	movf	(lcd_delay@x+1),w
  2084  0378  00F1               	movwf	(??_lcd_delay+0+0+1)
  2085  0379  0873               	movf	(lcd_delay@x),w
  2086  037A  00F0               	movwf	(??_lcd_delay+0+0)
  2087  037B  3001               	movlw	01h
  2088  037C  00F2               	movwf	(??_lcd_delay+2+0)
  2089  037D                     u345:
  2090  037D  1003               	clrc
  2091  037E  0DF0               	rlf	(??_lcd_delay+0+0),f
  2092  037F  0DF1               	rlf	(??_lcd_delay+0+1),f
  2093  0380  0BF2               	decfsz	(??_lcd_delay+2+0),f
  2094  0381  2B7D               	goto	u345
  2095  0382  0854               	movf	(lcd_delay@i+1),w
  2096  0383  0271               	subwf	1+(??_lcd_delay+0+0),w
  2097  0384  1D03               	skipz
  2098  0385  2B88               	goto	u355
  2099  0386  0853               	movf	(lcd_delay@i),w
  2100  0387  0270               	subwf	0+(??_lcd_delay+0+0),w
  2101  0388                     u355:
  2102  0388  1803               	skipnc
  2103  0389  2B8B               	goto	u351
  2104  038A  2B8C               	goto	u350
  2105  038B                     u351:
  2106  038B  2B5E               	goto	l30000664
  2107  038C                     u350:
  2108                           	
  2109  038C                     l73:	
  2110  038C  0008               	return
  2111                           	opt stack 0
  2112                           GLOBAL	__end_of_lcd_delay
  2113  038D                     	__end_of_lcd_delay:
  2114                           ; =============== function _lcd_delay ends ============
  2115                           
  2116                           psect	text119,local,class=CODE,delta=2
  2117                           global __ptext119
  2118  0416                     __ptext119:
  2119                           	line	452
  2120                           	signat	_lcd_delay,4216
  2121                           	global	_cmd_wr
  2122                           
  2123                           ; *************** function _cmd_wr *****************
  2124                           ; Defined at:
  2125                           ;		line 406 in file "D:\ABHISHEK JOSHI\PIC\LCD\T9\LCD T9.C"
  2126                           ; Parameters:    Size  Location     Type
  2127                           ;  var_data        1    wreg     unsigned char 
  2128                           ; Auto vars:     Size  Location     Type
  2129                           ;  var_data        1    3[COMMON] unsigned char 
  2130                           ; Return value:  Size  Location     Type
  2131                           ;		None               void
  2132                           ; Registers used:
  2133                           ;		wreg, status,2, status,0, pclath, cstack
  2134                           ; Tracked objects:
  2135                           ;		On entry : 0/0
  2136                           ;		On exit  : 0/0
  2137                           ;		Unchanged: 0/0
  2138                           ; Data sizes:     COMMON   BANK0   BANK1   BANK3   BANK2
  2139                           ;      Locals:         2       0       0       0       0
  2140                           ;      Temp:     1
  2141                           ;      Total:    2
  2142                           ; This function calls:
  2143                           ;		_data_mapping
  2144                           ;		_toggle
  2145                           ; This function is called by:
  2146                           ;		_main
  2147                           ;		_lcd_disp
  2148                           ;		_init_lcd
  2149                           ; This function uses a non-reentrant model
  2150                           ; 
  2151                           psect	text119
  2152                           	file	"D:\ABHISHEK JOSHI\PIC\LCD\T9\LCD T9.C"
  2153                           	line	406
  2154                           	global	__size_of_cmd_wr
  2155  0027                     	__size_of_cmd_wr	equ	__end_of_cmd_wr-_cmd_wr
  2156                           ;LCD T9.C: 405: void cmd_wr(unsigned char var_data)
  2157                           ;LCD T9.C: 406: {
  2158                           	
  2159  0416                     _cmd_wr:	
  2160                           	opt stack 3
  2161                           ; Regs used in _cmd_wr: [wreg+status,2+status,0+pclath+cstack]
  2162                           ;cmd_wr@var_data stored from wreg
  2163  0416  00F3               	movwf	(cmd_wr@var_data)
  2164                           	
  2165  0417                     l30000655:	
  2166                           	line	407
  2167                           ;LCD T9.C: 407: RB1=RB2=0;
  2168  0417  1283               	bcf	status, 5	;RP0=0, select bank0
  2169  0418  1303               	bcf	status, 6	;RP1=0, select bank0
  2170  0419  1106               	bcf	(50/8),(50)&7
  2171  041A  1086               	bcf	(49/8),(49)&7
  2172                           	
  2173  041B                     l30000656:	
  2174                           	line	408
  2175                           ;LCD T9.C: 408: data_mapping(var_data);
  2176  041B  0873               	movf	(cmd_wr@var_data),w
  2177  041C  120A  118A  24EE   	fcall	_data_mapping
              120A  118A         
  2178                           	
  2179  0421                     l30000657:	
  2180                           	line	409
  2181                           ;LCD T9.C: 409: toggle();
  2182  0421  120A  118A  250C   	fcall	_toggle
              120A  118A         
  2183                           	
  2184  0426                     l30000658:	
  2185                           	line	410
  2186                           ;LCD T9.C: 410: var_data=var_data<<4;
  2187  0426  0873               	movf	(cmd_wr@var_data),w
  2188  0427  00F2               	movwf	(??_cmd_wr+0+0)
  2189  0428  3003               	movlw	(04h)-1
  2190  0429                     u325:
  2191  0429  1003               	clrc
  2192  042A  0DF2               	rlf	(??_cmd_wr+0+0),f
  2193  042B  3EFF               	addlw	-1
  2194  042C  1D03               	skipz
  2195  042D  2C29               	goto	u325
  2196  042E  1003               	clrc
  2197  042F  0D72               	rlf	(??_cmd_wr+0+0),w
  2198  0430  00F3               	movwf	(cmd_wr@var_data)
  2199                           	
  2200  0431                     l30000659:	
  2201                           	line	411
  2202                           ;LCD T9.C: 411: data_mapping(var_data);
  2203  0431  0873               	movf	(cmd_wr@var_data),w
  2204  0432  120A  118A  24EE   	fcall	_data_mapping
              120A  118A         
  2205                           	
  2206  0437                     l30000660:	
  2207                           	line	412
  2208                           ;LCD T9.C: 412: toggle();
  2209  0437  120A  118A  250C   	fcall	_toggle
              120A  118A         
  2210                           	
  2211  043C                     l69:	
  2212  043C  0008               	return
  2213                           	opt stack 0
  2214                           GLOBAL	__end_of_cmd_wr
  2215  043D                     	__end_of_cmd_wr:
  2216                           ; =============== function _cmd_wr ends ============
  2217                           
  2218                           psect	text120,local,class=CODE,delta=2
  2219                           global __ptext120
  2220  04EE                     __ptext120:
  2221                           	line	413
  2222                           	signat	_cmd_wr,4216
  2223                           	global	_data_mapping
  2224                           
  2225                           ; *************** function _data_mapping *****************
  2226                           ; Defined at:
  2227                           ;		line 429 in file "D:\ABHISHEK JOSHI\PIC\LCD\T9\LCD T9.C"
  2228                           ; Parameters:    Size  Location     Type
  2229                           ;  var_data1       1    wreg     unsigned char 
  2230                           ; Auto vars:     Size  Location     Type
  2231                           ;  var_data1       1    1[COMMON] unsigned char 
  2232                           ; Return value:  Size  Location     Type
  2233                           ;		None               void
  2234                           ; Registers used:
  2235                           ;		wreg, status,2, status,0
  2236                           ; Tracked objects:
  2237                           ;		On entry : 0/0
  2238                           ;		On exit  : 0/0
  2239                           ;		Unchanged: 0/0
  2240                           ; Data sizes:     COMMON   BANK0   BANK1   BANK3   BANK2
  2241                           ;      Locals:         2       0       0       0       0
  2242                           ;      Temp:     1
  2243                           ;      Total:    2
  2244                           ; This function calls:
  2245                           ;		Nothing
  2246                           ; This function is called by:
  2247                           ;		_cmd_wr
  2248                           ;		_data_wr
  2249                           ; This function uses a non-reentrant model
  2250                           ; 
  2251                           psect	text120
  2252                           	file	"D:\ABHISHEK JOSHI\PIC\LCD\T9\LCD T9.C"
  2253                           	line	429
  2254                           	global	__size_of_data_mapping
  2255  000B                     	__size_of_data_mapping	equ	__end_of_data_mapping-_data_mapping
  2256                           ;LCD T9.C: 428: void data_mapping(unsigned char var_data1)
  2257                           ;LCD T9.C: 429: {
  2258                           	
  2259  04EE                     _data_mapping:	
  2260                           	opt stack 2
  2261                           ; Regs used in _data_mapping: [wreg+status,2+status,0]
  2262                           ;data_mapping@var_data1 stored from wreg
  2263  04EE  00F1               	movwf	(data_mapping@var_data1)
  2264                           	
  2265  04EF                     l30000661:	
  2266                           	line	430
  2267                           ;LCD T9.C: 430: PORTB=(var_data1&0xf0)|(PORTB&0x0f);
  2268  04EF  1283               	bcf	status, 5	;RP0=0, select bank0
  2269  04F0  1303               	bcf	status, 6	;RP1=0, select bank0
  2270  04F1  0806               	movf	(6),w	;volatile
  2271  04F2  390F               	andlw	0Fh
  2272  04F3  00F0               	movwf	(??_data_mapping+0+0)
  2273  04F4  0871               	movf	(data_mapping@var_data1),w
  2274  04F5  39F0               	andlw	0F0h
  2275  04F6  0470               	iorwf	(??_data_mapping+0+0),w
  2276  04F7  0086               	movwf	(6)	;volatile
  2277                           	
  2278  04F8                     l71:	
  2279  04F8  0008               	return
  2280                           	opt stack 0
  2281                           GLOBAL	__end_of_data_mapping
  2282  04F9                     	__end_of_data_mapping:
  2283                           ; =============== function _data_mapping ends ============
  2284                           
  2285                           psect	text121,local,class=CODE,delta=2
  2286                           global __ptext121
  2287  050C                     __ptext121:
  2288                           	line	431
  2289                           	signat	_data_mapping,4216
  2290                           	global	_toggle
  2291                           
  2292                           ; *************** function _toggle *****************
  2293                           ; Defined at:
  2294                           ;		line 434 in file "D:\ABHISHEK JOSHI\PIC\LCD\T9\LCD T9.C"
  2295                           ; Parameters:    Size  Location     Type
  2296                           ;		None
  2297                           ; Auto vars:     Size  Location     Type
  2298                           ;		None
  2299                           ; Return value:  Size  Location     Type
  2300                           ;		None               void
  2301                           ; Registers used:
  2302                           ;		None
  2303                           ; Tracked objects:
  2304                           ;		On entry : 0/0
  2305                           ;		On exit  : 0/0
  2306                           ;		Unchanged: 0/0
  2307                           ; Data sizes:     COMMON   BANK0   BANK1   BANK3   BANK2
  2308                           ;      Locals:         0       0       0       0       0
  2309                           ;      Temp:     0
  2310                           ;      Total:    0
  2311                           ; This function calls:
  2312                           ;		Nothing
  2313                           ; This function is called by:
  2314                           ;		_cmd_wr
  2315                           ;		_data_wr
  2316                           ; This function uses a non-reentrant model
  2317                           ; 
  2318                           psect	text121
  2319                           	file	"D:\ABHISHEK JOSHI\PIC\LCD\T9\LCD T9.C"
  2320                           	line	434
  2321                           	global	__size_of_toggle
  2322  0005                     	__size_of_toggle	equ	__end_of_toggle-_toggle
  2323                           ;LCD T9.C: 433: void toggle()
  2324                           ;LCD T9.C: 434: {
  2325                           	
  2326  050C                     _toggle:	
  2327                           	opt stack 2
  2328                           ; Regs used in _toggle: []
  2329                           	line	435
  2330                           	
  2331  050C                     l30000662:	
  2332                           ;LCD T9.C: 435: RB3=1;
  2333  050C  1283               	bcf	status, 5	;RP0=0, select bank0
  2334  050D  1303               	bcf	status, 6	;RP1=0, select bank0
  2335  050E  1586               	bsf	(51/8),(51)&7
  2336                           	line	441
  2337                           ;LCD T9.C: 436: ;
  2338                           ;LCD T9.C: 437: ;
  2339                           ;LCD T9.C: 438: ;
  2340                           ;LCD T9.C: 439: ;
  2341                           ;LCD T9.C: 440: ;
  2342                           ;LCD T9.C: 441: RB3=0;
  2343  050F  1186               	bcf	(51/8),(51)&7
  2344                           	
  2345  0510                     l72:	
  2346  0510  0008               	return
  2347                           	opt stack 0
  2348                           GLOBAL	__end_of_toggle
  2349  0511                     	__end_of_toggle:
  2350                           ; =============== function _toggle ends ============
  2351                           
  2352                           psect	text122,local,class=CODE,delta=2
  2353                           global __ptext122
  2354  045C                     __ptext122:
  2355                           	line	442
  2356                           	signat	_toggle,88
  2357                           	global	_isr_t0
  2358                           
  2359                           ; *************** function _isr_t0 *****************
  2360                           ; Defined at:
  2361                           ;		line 56 in file "D:\ABHISHEK JOSHI\PIC\LCD\T9\LCD T9.C"
  2362                           ; Parameters:    Size  Location     Type
  2363                           ;		None
  2364                           ; Auto vars:     Size  Location     Type
  2365                           ;		None
  2366                           ; Return value:  Size  Location     Type
  2367                           ;		None               void
  2368                           ; Registers used:
  2369                           ;		wreg, fsr0l, fsr0h, status,2, status,0, pclath, cstack
  2370                           ; Tracked objects:
  2371                           ;		On entry : 0/0
  2372                           ;		On exit  : 0/0
  2373                           ;		Unchanged: 0/0
  2374                           ; Data sizes:     COMMON   BANK0   BANK1   BANK3   BANK2
  2375                           ;      Locals:         0       4       0       0       0
  2376                           ;      Temp:     4
  2377                           ;      Total:    4
  2378                           ; This function calls:
  2379                           ;		i1_init_timer
  2380                           ;		_buzzer
  2381                           ;		_scanner
  2382                           ; This function is called by:
  2383                           ;		Interrupt level 1
  2384                           ; This function uses a non-reentrant model
  2385                           ; 
  2386                           psect	text122
  2387                           	file	"D:\ABHISHEK JOSHI\PIC\LCD\T9\LCD T9.C"
  2388                           	line	56
  2389                           	global	__size_of_isr_t0
  2390  001C                     	__size_of_isr_t0	equ	__end_of_isr_t0-_isr_t0
  2391                           ;pic168xa.h: 19: volatile unsigned char INDF @ 0x00;
  2392                           ;pic168xa.h: 20: volatile unsigned char TMR0 @ 0x01;
  2393                           ;pic168xa.h: 21: volatile unsigned char PCL @ 0x02;
  2394                           ;pic168xa.h: 22: volatile unsigned char STATUS @ 0x03;
  2395                           ;pic168xa.h: 23: unsigned char FSR @ 0x04;
  2396                           ;pic168xa.h: 24: volatile unsigned char PORTA @ 0x05;
  2397                           ;pic168xa.h: 25: volatile unsigned char PORTB @ 0x06;
  2398                           ;pic168xa.h: 26: volatile unsigned char PORTC @ 0x07;
  2399                           ;pic168xa.h: 31: unsigned char PCLATH @ 0x0A;
  2400                           ;pic168xa.h: 32: volatile unsigned char INTCON @ 0x0B;
  2401                           	
  2402  045C                     _isr_t0:	
  2403                           	opt stack 5
  2404                           ; Regs used in _isr_t0: [wreg-fsr0h+status,2+status,0+pclath+cstack]
  2405                           psect	intentry,class=CODE,delta=2
  2406                           global __pintentry
  2407  0004                     __pintentry:
  2408                           global interrupt_function
  2409  0004                     interrupt_function:
  2410                           	global saved_w
  2411  007F                     	saved_w	set	btemp+1
  2412  0004  00FF               	movwf	saved_w
  2413  0005  0803               	movf	status,w
  2414  0006  1283               	bcf	status, 5	;RP0=0, select bank0
  2415  0007  1303               	bcf	status, 6	;RP1=0, select bank0
  2416  0008  00D9               	movwf	(??_isr_t0+0)
  2417  0009  0804               	movf	fsr0,w
  2418  000A  00DA               	movwf	(??_isr_t0+1)
  2419  000B  080A               	movf	pclath,w
  2420  000C  00DB               	movwf	(??_isr_t0+2)
  2421  000D  087E               	movf	btemp+0,w
  2422  000E  00DC               	movwf	(??_isr_t0+3)
  2423  000F  120A  118A  2C5C   	ljmp	_isr_t0
  2424                           psect	text122
  2425                           	line	57
  2426                           	
  2427  045C                     i1l30000588:	
  2428                           ;LCD T9.C: 57: init_timer();
  2429  045C  120A  118A  24B7   	fcall	i1_init_timer
              120A  118A         
  2430                           	line	58
  2431                           ;LCD T9.C: 58: buzzer();
  2432  0461  120A  118A  24E2   	fcall	_buzzer
              120A  118A         
  2433                           	
  2434  0466                     i1l30000589:	
  2435                           	line	59
  2436                           ;LCD T9.C: 59: scanner();
  2437  0466  120A  118A  2015   	fcall	_scanner
              120A  118A         
  2438                           	
  2439  046B                     i1l2:	
  2440  046B  1283               	bcf	status, 5	;RP0=0, select bank0
  2441  046C  1303               	bcf	status, 6	;RP1=0, select bank0
  2442  046D  085C               	movf	(??_isr_t0+3),w
  2443  046E  00FE               	movwf	btemp+0
  2444  046F  085B               	movf	(??_isr_t0+2),w
  2445  0470  008A               	movwf	pclath
  2446  0471  085A               	movf	(??_isr_t0+1),w
  2447  0472  0084               	movwf	fsr0
  2448  0473  0859               	movf	(??_isr_t0+0),w
  2449  0474  0083               	movwf	status
  2450  0475  0EFF               	swapf	saved_w,f
  2451  0476  0E7F               	swapf	saved_w,w
  2452  0477  0009               	retfie
  2453                           	opt stack 0
  2454                           GLOBAL	__end_of_isr_t0
  2455  0478                     	__end_of_isr_t0:
  2456                           ; =============== function _isr_t0 ends ============
  2457                           
  2458                           psect	text123,local,class=CODE,delta=2
  2459                           global __ptext123
  2460  0015                     __ptext123:
  2461                           	line	60
  2462                           	signat	_isr_t0,88
  2463                           	global	_scanner
  2464                           
  2465                           ; *************** function _scanner *****************
  2466                           ; Defined at:
  2467                           ;		line 129 in file "D:\ABHISHEK JOSHI\PIC\LCD\T9\LCD T9.C"
  2468                           ; Parameters:    Size  Location     Type
  2469                           ;		None
  2470                           ; Auto vars:     Size  Location     Type
  2471                           ;		None
  2472                           ; Return value:  Size  Location     Type
  2473                           ;		None               void
  2474                           ; Registers used:
  2475                           ;		wreg, fsr0l, fsr0h, status,2, status,0, pclath, cstack
  2476                           ; Tracked objects:
  2477                           ;		On entry : 0/0
  2478                           ;		On exit  : 0/0
  2479                           ;		Unchanged: 0/0
  2480                           ; Data sizes:     COMMON   BANK0   BANK1   BANK3   BANK2
  2481                           ;      Locals:         0       2       0       0       0
  2482                           ;      Temp:     2
  2483                           ;      Total:    2
  2484                           ; This function calls:
  2485                           ;		_k1
  2486                           ; This function is called by:
  2487                           ;		_isr_t0
  2488                           ; This function uses a non-reentrant model
  2489                           ; 
  2490                           psect	text123
  2491                           	file	"D:\ABHISHEK JOSHI\PIC\LCD\T9\LCD T9.C"
  2492                           	line	129
  2493                           	global	__size_of_scanner
  2494  01CC                     	__size_of_scanner	equ	__end_of_scanner-_scanner
  2495                           ;LCD T9.C: 128: void scanner()
  2496                           ;LCD T9.C: 129: {
  2497                           	
  2498  0015                     _scanner:	
  2499                           	opt stack 4
  2500                           ; Regs used in _scanner: [wreg-fsr0h+status,2+status,0+pclath+cstack]
  2501                           	
  2502  0015                     i1l30000537:	
  2503  0015  29A6               	goto	i1l30000587
  2504                           	
  2505  0016                     i1l20:	
  2506                           	line	133
  2507                           ;LCD T9.C: 133: RA1=0;
  2508  0016  1085               	bcf	(41/8),(41)&7
  2509                           	line	134
  2510                           ;LCD T9.C: 134: RC0=1;
  2511  0017  1407               	bsf	(56/8),(56)&7
  2512                           	line	135
  2513                           ;LCD T9.C: 135: RC1=1;
  2514  0018  1487               	bsf	(57/8),(57)&7
  2515                           	line	136
  2516                           ;LCD T9.C: 136: RC2=1;
  2517  0019  1507               	bsf	(58/8),(58)&7
  2518                           	
  2519  001A                     i1l30000538:	
  2520                           	line	138
  2521                           ;LCD T9.C: 138: c=RA2;
  2522  001A  1003               	clrc
  2523  001B  1905               	btfsc	(42/8),(42)&7
  2524  001C  1403               	setc
  2525  001D  3000               	movlw	0
  2526  001E  1803               	skipnc
  2527  001F  3001               	movlw	1
  2528                           
  2529  0020  00D7               	movwf	(??_scanner+0+0)
  2530  0021  01D8               	clrf	(??_scanner+0+0+1)
  2531  0022  0857               	movf	0+(??_scanner+0+0),w
  2532  0023  00BE               	movwf	(_c)
  2533  0024  0858               	movf	1+(??_scanner+0+0),w
  2534  0025  00BF               	movwf	(_c+1)
  2535                           	
  2536  0026                     i1l30000539:	
  2537                           	line	139
  2538                           ;LCD T9.C: 139: k1();
  2539  0026  120A  118A  2278   	fcall	_k1
              120A  118A         
  2540                           	
  2541  002B                     i1l30000540:	
  2542                           	line	140
  2543                           ;LCD T9.C: 140: scan_no=1;
  2544  002B  3001               	movlw	low(01h)
  2545  002C  1283               	bcf	status, 5	;RP0=0, select bank0
  2546  002D  1303               	bcf	status, 6	;RP1=0, select bank0
  2547  002E  00CC               	movwf	(_scan_no)
  2548  002F  3000               	movlw	high(01h)
  2549  0030  00CD               	movwf	((_scan_no))+1
  2550  0031  29E0               	goto	i1l17
  2551                           	
  2552  0032                     i1l30000541:	
  2553                           	line	144
  2554                           ;LCD T9.C: 144: c=RA3;
  2555  0032  1003               	clrc
  2556  0033  1985               	btfsc	(43/8),(43)&7
  2557  0034  1403               	setc
  2558  0035  3000               	movlw	0
  2559  0036  1803               	skipnc
  2560  0037  3001               	movlw	1
  2561                           
  2562  0038  00D7               	movwf	(??_scanner+0+0)
  2563  0039  01D8               	clrf	(??_scanner+0+0+1)
  2564  003A  0857               	movf	0+(??_scanner+0+0),w
  2565  003B  00BE               	movwf	(_c)
  2566  003C  0858               	movf	1+(??_scanner+0+0),w
  2567  003D  00BF               	movwf	(_c+1)
  2568                           	
  2569  003E                     i1l30000542:	
  2570                           	line	145
  2571                           ;LCD T9.C: 145: k1();
  2572  003E  120A  118A  2278   	fcall	_k1
              120A  118A         
  2573                           	
  2574  0043                     i1l30000543:	
  2575                           	line	146
  2576                           ;LCD T9.C: 146: scan_no=2;
  2577  0043  3002               	movlw	low(02h)
  2578  0044  1283               	bcf	status, 5	;RP0=0, select bank0
  2579  0045  1303               	bcf	status, 6	;RP1=0, select bank0
  2580  0046  00CC               	movwf	(_scan_no)
  2581  0047  3000               	movlw	high(02h)
  2582  0048  00CD               	movwf	((_scan_no))+1
  2583  0049  29E0               	goto	i1l17
  2584                           	
  2585  004A                     i1l30000544:	
  2586                           	line	150
  2587                           ;LCD T9.C: 150: c=RA4;
  2588  004A  1003               	clrc
  2589  004B  1A05               	btfsc	(44/8),(44)&7
  2590  004C  1403               	setc
  2591  004D  3000               	movlw	0
  2592  004E  1803               	skipnc
  2593  004F  3001               	movlw	1
  2594                           
  2595  0050  00D7               	movwf	(??_scanner+0+0)
  2596  0051  01D8               	clrf	(??_scanner+0+0+1)
  2597  0052  0857               	movf	0+(??_scanner+0+0),w
  2598  0053  00BE               	movwf	(_c)
  2599  0054  0858               	movf	1+(??_scanner+0+0),w
  2600  0055  00BF               	movwf	(_c+1)
  2601                           	
  2602  0056                     i1l30000545:	
  2603                           	line	151
  2604                           ;LCD T9.C: 151: k1();
  2605  0056  120A  118A  2278   	fcall	_k1
              120A  118A         
  2606                           	
  2607  005B                     i1l30000546:	
  2608                           	line	152
  2609                           ;LCD T9.C: 152: scan_no=3;
  2610  005B  3003               	movlw	low(03h)
  2611  005C  1283               	bcf	status, 5	;RP0=0, select bank0
  2612  005D  1303               	bcf	status, 6	;RP1=0, select bank0
  2613  005E  00CC               	movwf	(_scan_no)
  2614  005F  3000               	movlw	high(03h)
  2615  0060  00CD               	movwf	((_scan_no))+1
  2616  0061  29E0               	goto	i1l17
  2617                           	
  2618  0062                     i1l30000547:	
  2619                           	line	157
  2620                           ;LCD T9.C: 157: c=RA5;
  2621  0062  1003               	clrc
  2622  0063  1A85               	btfsc	(45/8),(45)&7
  2623  0064  1403               	setc
  2624  0065  3000               	movlw	0
  2625  0066  1803               	skipnc
  2626  0067  3001               	movlw	1
  2627                           
  2628  0068  00D7               	movwf	(??_scanner+0+0)
  2629  0069  01D8               	clrf	(??_scanner+0+0+1)
  2630  006A  0857               	movf	0+(??_scanner+0+0),w
  2631  006B  00BE               	movwf	(_c)
  2632  006C  0858               	movf	1+(??_scanner+0+0),w
  2633  006D  00BF               	movwf	(_c+1)
  2634                           	
  2635  006E                     i1l30000548:	
  2636                           	line	158
  2637                           ;LCD T9.C: 158: k1();
  2638  006E  120A  118A  2278   	fcall	_k1
              120A  118A         
  2639                           	
  2640  0073                     i1l30000549:	
  2641                           	line	159
  2642                           ;LCD T9.C: 159: scan_no=4;
  2643  0073  3004               	movlw	low(04h)
  2644  0074  1283               	bcf	status, 5	;RP0=0, select bank0
  2645  0075  1303               	bcf	status, 6	;RP1=0, select bank0
  2646  0076  00CC               	movwf	(_scan_no)
  2647  0077  3000               	movlw	high(04h)
  2648  0078  00CD               	movwf	((_scan_no))+1
  2649  0079  29E0               	goto	i1l17
  2650                           	
  2651  007A                     i1l24:	
  2652                           	line	163
  2653                           ;LCD T9.C: 163: RA1=1;
  2654  007A  1485               	bsf	(41/8),(41)&7
  2655                           	line	164
  2656                           ;LCD T9.C: 164: RC0=0;
  2657  007B  1007               	bcf	(56/8),(56)&7
  2658                           	line	165
  2659                           ;LCD T9.C: 165: RC1=1;
  2660  007C  1487               	bsf	(57/8),(57)&7
  2661                           	line	166
  2662                           ;LCD T9.C: 166: RC2=1;
  2663  007D  1507               	bsf	(58/8),(58)&7
  2664                           	
  2665  007E                     i1l30000550:	
  2666                           	line	168
  2667                           ;LCD T9.C: 168: c=RA2;
  2668  007E  1003               	clrc
  2669  007F  1905               	btfsc	(42/8),(42)&7
  2670  0080  1403               	setc
  2671  0081  3000               	movlw	0
  2672  0082  1803               	skipnc
  2673  0083  3001               	movlw	1
  2674                           
  2675  0084  00D7               	movwf	(??_scanner+0+0)
  2676  0085  01D8               	clrf	(??_scanner+0+0+1)
  2677  0086  0857               	movf	0+(??_scanner+0+0),w
  2678  0087  00BE               	movwf	(_c)
  2679  0088  0858               	movf	1+(??_scanner+0+0),w
  2680  0089  00BF               	movwf	(_c+1)
  2681                           	
  2682  008A                     i1l30000551:	
  2683                           	line	169
  2684                           ;LCD T9.C: 169: k1();
  2685  008A  120A  118A  2278   	fcall	_k1
              120A  118A         
  2686                           	
  2687  008F                     i1l30000552:	
  2688                           	line	170
  2689                           ;LCD T9.C: 170: scan_no=5;
  2690  008F  3005               	movlw	low(05h)
  2691  0090  1283               	bcf	status, 5	;RP0=0, select bank0
  2692  0091  1303               	bcf	status, 6	;RP1=0, select bank0
  2693  0092  00CC               	movwf	(_scan_no)
  2694  0093  3000               	movlw	high(05h)
  2695  0094  00CD               	movwf	((_scan_no))+1
  2696  0095  29E0               	goto	i1l17
  2697                           	
  2698  0096                     i1l30000553:	
  2699                           	line	174
  2700                           ;LCD T9.C: 174: c=RA3;
  2701  0096  1003               	clrc
  2702  0097  1985               	btfsc	(43/8),(43)&7
  2703  0098  1403               	setc
  2704  0099  3000               	movlw	0
  2705  009A  1803               	skipnc
  2706  009B  3001               	movlw	1
  2707                           
  2708  009C  00D7               	movwf	(??_scanner+0+0)
  2709  009D  01D8               	clrf	(??_scanner+0+0+1)
  2710  009E  0857               	movf	0+(??_scanner+0+0),w
  2711  009F  00BE               	movwf	(_c)
  2712  00A0  0858               	movf	1+(??_scanner+0+0),w
  2713  00A1  00BF               	movwf	(_c+1)
  2714                           	
  2715  00A2                     i1l30000554:	
  2716                           	line	175
  2717                           ;LCD T9.C: 175: k1();
  2718  00A2  120A  118A  2278   	fcall	_k1
              120A  118A         
  2719                           	
  2720  00A7                     i1l30000555:	
  2721                           	line	176
  2722                           ;LCD T9.C: 176: scan_no=6;
  2723  00A7  3006               	movlw	low(06h)
  2724  00A8  1283               	bcf	status, 5	;RP0=0, select bank0
  2725  00A9  1303               	bcf	status, 6	;RP1=0, select bank0
  2726  00AA  00CC               	movwf	(_scan_no)
  2727  00AB  3000               	movlw	high(06h)
  2728  00AC  00CD               	movwf	((_scan_no))+1
  2729  00AD  29E0               	goto	i1l17
  2730                           	
  2731  00AE                     i1l30000556:	
  2732                           	line	180
  2733                           ;LCD T9.C: 180: c=RA4;
  2734  00AE  1003               	clrc
  2735  00AF  1A05               	btfsc	(44/8),(44)&7
  2736  00B0  1403               	setc
  2737  00B1  3000               	movlw	0
  2738  00B2  1803               	skipnc
  2739  00B3  3001               	movlw	1
  2740                           
  2741  00B4  00D7               	movwf	(??_scanner+0+0)
  2742  00B5  01D8               	clrf	(??_scanner+0+0+1)
  2743  00B6  0857               	movf	0+(??_scanner+0+0),w
  2744  00B7  00BE               	movwf	(_c)
  2745  00B8  0858               	movf	1+(??_scanner+0+0),w
  2746  00B9  00BF               	movwf	(_c+1)
  2747                           	
  2748  00BA                     i1l30000557:	
  2749                           	line	181
  2750                           ;LCD T9.C: 181: k1();
  2751  00BA  120A  118A  2278   	fcall	_k1
              120A  118A         
  2752                           	
  2753  00BF                     i1l30000558:	
  2754                           	line	182
  2755                           ;LCD T9.C: 182: scan_no=7;
  2756  00BF  3007               	movlw	low(07h)
  2757  00C0  1283               	bcf	status, 5	;RP0=0, select bank0
  2758  00C1  1303               	bcf	status, 6	;RP1=0, select bank0
  2759  00C2  00CC               	movwf	(_scan_no)
  2760  00C3  3000               	movlw	high(07h)
  2761  00C4  00CD               	movwf	((_scan_no))+1
  2762  00C5  29E0               	goto	i1l17
  2763                           	
  2764  00C6                     i1l30000559:	
  2765                           	line	187
  2766                           ;LCD T9.C: 187: c=RA5;
  2767  00C6  1003               	clrc
  2768  00C7  1A85               	btfsc	(45/8),(45)&7
  2769  00C8  1403               	setc
  2770  00C9  3000               	movlw	0
  2771  00CA  1803               	skipnc
  2772  00CB  3001               	movlw	1
  2773                           
  2774  00CC  00D7               	movwf	(??_scanner+0+0)
  2775  00CD  01D8               	clrf	(??_scanner+0+0+1)
  2776  00CE  0857               	movf	0+(??_scanner+0+0),w
  2777  00CF  00BE               	movwf	(_c)
  2778  00D0  0858               	movf	1+(??_scanner+0+0),w
  2779  00D1  00BF               	movwf	(_c+1)
  2780                           	
  2781  00D2                     i1l30000560:	
  2782                           	line	188
  2783                           ;LCD T9.C: 188: k1();
  2784  00D2  120A  118A  2278   	fcall	_k1
              120A  118A         
  2785                           	
  2786  00D7                     i1l30000561:	
  2787                           	line	189
  2788                           ;LCD T9.C: 189: scan_no=8;
  2789  00D7  3008               	movlw	low(08h)
  2790  00D8  1283               	bcf	status, 5	;RP0=0, select bank0
  2791  00D9  1303               	bcf	status, 6	;RP1=0, select bank0
  2792  00DA  00CC               	movwf	(_scan_no)
  2793  00DB  3000               	movlw	high(08h)
  2794  00DC  00CD               	movwf	((_scan_no))+1
  2795  00DD  29E0               	goto	i1l17
  2796                           	
  2797  00DE                     i1l28:	
  2798                           	line	193
  2799                           ;LCD T9.C: 193: RA1=1;
  2800  00DE  1485               	bsf	(41/8),(41)&7
  2801                           	line	194
  2802                           ;LCD T9.C: 194: RC0=1;
  2803  00DF  1407               	bsf	(56/8),(56)&7
  2804                           	line	195
  2805                           ;LCD T9.C: 195: RC1=0;
  2806  00E0  1087               	bcf	(57/8),(57)&7
  2807                           	line	196
  2808                           ;LCD T9.C: 196: RC2=1;
  2809  00E1  1507               	bsf	(58/8),(58)&7
  2810                           	
  2811  00E2                     i1l30000562:	
  2812                           	line	198
  2813                           ;LCD T9.C: 198: c=RA2;
  2814  00E2  1003               	clrc
  2815  00E3  1905               	btfsc	(42/8),(42)&7
  2816  00E4  1403               	setc
  2817  00E5  3000               	movlw	0
  2818  00E6  1803               	skipnc
  2819  00E7  3001               	movlw	1
  2820                           
  2821  00E8  00D7               	movwf	(??_scanner+0+0)
  2822  00E9  01D8               	clrf	(??_scanner+0+0+1)
  2823  00EA  0857               	movf	0+(??_scanner+0+0),w
  2824  00EB  00BE               	movwf	(_c)
  2825  00EC  0858               	movf	1+(??_scanner+0+0),w
  2826  00ED  00BF               	movwf	(_c+1)
  2827                           	
  2828  00EE                     i1l30000563:	
  2829                           	line	199
  2830                           ;LCD T9.C: 199: k1();
  2831  00EE  120A  118A  2278   	fcall	_k1
              120A  118A         
  2832                           	
  2833  00F3                     i1l30000564:	
  2834                           	line	200
  2835                           ;LCD T9.C: 200: scan_no=9;
  2836  00F3  3009               	movlw	low(09h)
  2837  00F4  1283               	bcf	status, 5	;RP0=0, select bank0
  2838  00F5  1303               	bcf	status, 6	;RP1=0, select bank0
  2839  00F6  00CC               	movwf	(_scan_no)
  2840  00F7  3000               	movlw	high(09h)
  2841  00F8  00CD               	movwf	((_scan_no))+1
  2842  00F9  29E0               	goto	i1l17
  2843                           	
  2844  00FA                     i1l30000565:	
  2845                           	line	204
  2846                           ;LCD T9.C: 204: c=RA3;
  2847  00FA  1003               	clrc
  2848  00FB  1985               	btfsc	(43/8),(43)&7
  2849  00FC  1403               	setc
  2850  00FD  3000               	movlw	0
  2851  00FE  1803               	skipnc
  2852  00FF  3001               	movlw	1
  2853                           
  2854  0100  00D7               	movwf	(??_scanner+0+0)
  2855  0101  01D8               	clrf	(??_scanner+0+0+1)
  2856  0102  0857               	movf	0+(??_scanner+0+0),w
  2857  0103  00BE               	movwf	(_c)
  2858  0104  0858               	movf	1+(??_scanner+0+0),w
  2859  0105  00BF               	movwf	(_c+1)
  2860                           	
  2861  0106                     i1l30000566:	
  2862                           	line	205
  2863                           ;LCD T9.C: 205: k1();
  2864  0106  120A  118A  2278   	fcall	_k1
              120A  118A         
  2865                           	
  2866  010B                     i1l30000567:	
  2867                           	line	206
  2868                           ;LCD T9.C: 206: scan_no=10;
  2869  010B  300A               	movlw	low(0Ah)
  2870  010C  1283               	bcf	status, 5	;RP0=0, select bank0
  2871  010D  1303               	bcf	status, 6	;RP1=0, select bank0
  2872  010E  00CC               	movwf	(_scan_no)
  2873  010F  3000               	movlw	high(0Ah)
  2874  0110  00CD               	movwf	((_scan_no))+1
  2875  0111  29E0               	goto	i1l17
  2876                           	
  2877  0112                     i1l30000568:	
  2878                           	line	210
  2879                           ;LCD T9.C: 210: c=RA4;
  2880  0112  1003               	clrc
  2881  0113  1A05               	btfsc	(44/8),(44)&7
  2882  0114  1403               	setc
  2883  0115  3000               	movlw	0
  2884  0116  1803               	skipnc
  2885  0117  3001               	movlw	1
  2886                           
  2887  0118  00D7               	movwf	(??_scanner+0+0)
  2888  0119  01D8               	clrf	(??_scanner+0+0+1)
  2889  011A  0857               	movf	0+(??_scanner+0+0),w
  2890  011B  00BE               	movwf	(_c)
  2891  011C  0858               	movf	1+(??_scanner+0+0),w
  2892  011D  00BF               	movwf	(_c+1)
  2893                           	
  2894  011E                     i1l30000569:	
  2895                           	line	211
  2896                           ;LCD T9.C: 211: k1();
  2897  011E  120A  118A  2278   	fcall	_k1
              120A  118A         
  2898                           	
  2899  0123                     i1l30000570:	
  2900                           	line	212
  2901                           ;LCD T9.C: 212: scan_no=11;
  2902  0123  300B               	movlw	low(0Bh)
  2903  0124  1283               	bcf	status, 5	;RP0=0, select bank0
  2904  0125  1303               	bcf	status, 6	;RP1=0, select bank0
  2905  0126  00CC               	movwf	(_scan_no)
  2906  0127  3000               	movlw	high(0Bh)
  2907  0128  00CD               	movwf	((_scan_no))+1
  2908  0129  29E0               	goto	i1l17
  2909                           	
  2910  012A                     i1l30000571:	
  2911                           	line	217
  2912                           ;LCD T9.C: 217: c=RA5;
  2913  012A  1003               	clrc
  2914  012B  1A85               	btfsc	(45/8),(45)&7
  2915  012C  1403               	setc
  2916  012D  3000               	movlw	0
  2917  012E  1803               	skipnc
  2918  012F  3001               	movlw	1
  2919                           
  2920  0130  00D7               	movwf	(??_scanner+0+0)
  2921  0131  01D8               	clrf	(??_scanner+0+0+1)
  2922  0132  0857               	movf	0+(??_scanner+0+0),w
  2923  0133  00BE               	movwf	(_c)
  2924  0134  0858               	movf	1+(??_scanner+0+0),w
  2925  0135  00BF               	movwf	(_c+1)
  2926                           	
  2927  0136                     i1l30000572:	
  2928                           	line	218
  2929                           ;LCD T9.C: 218: k1();
  2930  0136  120A  118A  2278   	fcall	_k1
              120A  118A         
  2931                           	
  2932  013B                     i1l30000573:	
  2933                           	line	219
  2934                           ;LCD T9.C: 219: scan_no=12;
  2935  013B  300C               	movlw	low(0Ch)
  2936  013C  1283               	bcf	status, 5	;RP0=0, select bank0
  2937  013D  1303               	bcf	status, 6	;RP1=0, select bank0
  2938  013E  00CC               	movwf	(_scan_no)
  2939  013F  3000               	movlw	high(0Ch)
  2940  0140  00CD               	movwf	((_scan_no))+1
  2941  0141  29E0               	goto	i1l17
  2942                           	
  2943  0142                     i1l32:	
  2944                           	line	223
  2945                           ;LCD T9.C: 223: RA1=1;
  2946  0142  1485               	bsf	(41/8),(41)&7
  2947                           	line	224
  2948                           ;LCD T9.C: 224: RC0=1;
  2949  0143  1407               	bsf	(56/8),(56)&7
  2950                           	line	225
  2951                           ;LCD T9.C: 225: RC1=1;
  2952  0144  1487               	bsf	(57/8),(57)&7
  2953                           	line	226
  2954                           ;LCD T9.C: 226: RC2=0;
  2955  0145  1107               	bcf	(58/8),(58)&7
  2956                           	
  2957  0146                     i1l30000574:	
  2958                           	line	228
  2959                           ;LCD T9.C: 228: c=RA2;
  2960  0146  1003               	clrc
  2961  0147  1905               	btfsc	(42/8),(42)&7
  2962  0148  1403               	setc
  2963  0149  3000               	movlw	0
  2964  014A  1803               	skipnc
  2965  014B  3001               	movlw	1
  2966                           
  2967  014C  00D7               	movwf	(??_scanner+0+0)
  2968  014D  01D8               	clrf	(??_scanner+0+0+1)
  2969  014E  0857               	movf	0+(??_scanner+0+0),w
  2970  014F  00BE               	movwf	(_c)
  2971  0150  0858               	movf	1+(??_scanner+0+0),w
  2972  0151  00BF               	movwf	(_c+1)
  2973                           	
  2974  0152                     i1l30000575:	
  2975                           	line	229
  2976                           ;LCD T9.C: 229: k1();
  2977  0152  120A  118A  2278   	fcall	_k1
              120A  118A         
  2978                           	
  2979  0157                     i1l30000576:	
  2980                           	line	230
  2981                           ;LCD T9.C: 230: scan_no=13;
  2982  0157  300D               	movlw	low(0Dh)
  2983  0158  1283               	bcf	status, 5	;RP0=0, select bank0
  2984  0159  1303               	bcf	status, 6	;RP1=0, select bank0
  2985  015A  00CC               	movwf	(_scan_no)
  2986  015B  3000               	movlw	high(0Dh)
  2987  015C  00CD               	movwf	((_scan_no))+1
  2988  015D  29E0               	goto	i1l17
  2989                           	
  2990  015E                     i1l30000577:	
  2991                           	line	234
  2992                           ;LCD T9.C: 234: c=RA3;
  2993  015E  1003               	clrc
  2994  015F  1985               	btfsc	(43/8),(43)&7
  2995  0160  1403               	setc
  2996  0161  3000               	movlw	0
  2997  0162  1803               	skipnc
  2998  0163  3001               	movlw	1
  2999                           
  3000  0164  00D7               	movwf	(??_scanner+0+0)
  3001  0165  01D8               	clrf	(??_scanner+0+0+1)
  3002  0166  0857               	movf	0+(??_scanner+0+0),w
  3003  0167  00BE               	movwf	(_c)
  3004  0168  0858               	movf	1+(??_scanner+0+0),w
  3005  0169  00BF               	movwf	(_c+1)
  3006                           	
  3007  016A                     i1l30000578:	
  3008                           	line	235
  3009                           ;LCD T9.C: 235: k1();
  3010  016A  120A  118A  2278   	fcall	_k1
              120A  118A         
  3011                           	
  3012  016F                     i1l30000579:	
  3013                           	line	236
  3014                           ;LCD T9.C: 236: scan_no=14;
  3015  016F  300E               	movlw	low(0Eh)
  3016  0170  1283               	bcf	status, 5	;RP0=0, select bank0
  3017  0171  1303               	bcf	status, 6	;RP1=0, select bank0
  3018  0172  00CC               	movwf	(_scan_no)
  3019  0173  3000               	movlw	high(0Eh)
  3020  0174  00CD               	movwf	((_scan_no))+1
  3021  0175  29E0               	goto	i1l17
  3022                           	
  3023  0176                     i1l30000580:	
  3024                           	line	240
  3025                           ;LCD T9.C: 240: c=RA4;
  3026  0176  1003               	clrc
  3027  0177  1A05               	btfsc	(44/8),(44)&7
  3028  0178  1403               	setc
  3029  0179  3000               	movlw	0
  3030  017A  1803               	skipnc
  3031  017B  3001               	movlw	1
  3032                           
  3033  017C  00D7               	movwf	(??_scanner+0+0)
  3034  017D  01D8               	clrf	(??_scanner+0+0+1)
  3035  017E  0857               	movf	0+(??_scanner+0+0),w
  3036  017F  00BE               	movwf	(_c)
  3037  0180  0858               	movf	1+(??_scanner+0+0),w
  3038  0181  00BF               	movwf	(_c+1)
  3039                           	
  3040  0182                     i1l30000581:	
  3041                           	line	241
  3042                           ;LCD T9.C: 241: k1();
  3043  0182  120A  118A  2278   	fcall	_k1
              120A  118A         
  3044                           	
  3045  0187                     i1l30000582:	
  3046                           	line	242
  3047                           ;LCD T9.C: 242: scan_no=15;
  3048  0187  300F               	movlw	low(0Fh)
  3049  0188  1283               	bcf	status, 5	;RP0=0, select bank0
  3050  0189  1303               	bcf	status, 6	;RP1=0, select bank0
  3051  018A  00CC               	movwf	(_scan_no)
  3052  018B  3000               	movlw	high(0Fh)
  3053  018C  00CD               	movwf	((_scan_no))+1
  3054  018D  29E0               	goto	i1l17
  3055                           	
  3056  018E                     i1l30000583:	
  3057                           	line	246
  3058                           ;LCD T9.C: 246: c=RA5;
  3059  018E  1003               	clrc
  3060  018F  1A85               	btfsc	(45/8),(45)&7
  3061  0190  1403               	setc
  3062  0191  3000               	movlw	0
  3063  0192  1803               	skipnc
  3064  0193  3001               	movlw	1
  3065                           
  3066  0194  00D7               	movwf	(??_scanner+0+0)
  3067  0195  01D8               	clrf	(??_scanner+0+0+1)
  3068  0196  0857               	movf	0+(??_scanner+0+0),w
  3069  0197  00BE               	movwf	(_c)
  3070  0198  0858               	movf	1+(??_scanner+0+0),w
  3071  0199  00BF               	movwf	(_c+1)
  3072                           	
  3073  019A                     i1l30000584:	
  3074                           	line	247
  3075                           ;LCD T9.C: 247: k1();
  3076  019A  120A  118A  2278   	fcall	_k1
              120A  118A         
  3077                           	
  3078  019F                     i1l30000585:	
  3079                           	line	249
  3080                           ;LCD T9.C: 249: scan_no=0;
  3081  019F  3000               	movlw	low(0)
  3082  01A0  1283               	bcf	status, 5	;RP0=0, select bank0
  3083  01A1  1303               	bcf	status, 6	;RP1=0, select bank0
  3084  01A2  00CC               	movwf	(_scan_no)
  3085  01A3  3000               	movlw	high(0)
  3086  01A4  00CD               	movwf	((_scan_no))+1
  3087  01A5  29E0               	goto	i1l17
  3088                           	
  3089  01A6                     i1l30000587:	
  3090                           	line	130
  3091  01A6  29DB               		goto	i1l30013
  3092  01A7                     i1l30014:
  3093  01A7  1283               	bcf	status, 5	;RP0=0, select bank0
  3094  01A8  1303               	bcf	status, 6	;RP1=0, select bank0
  3095  01A9  084C               	movf (_scan_no),w
  3096  01AA  3A00               	xorlw	0^0
  3097  01AB  1903               	skipnz
  3098  01AC  2816               	goto	i1l20
  3099  01AD  3A01               	xorlw	1^0
  3100  01AE  1903               	skipnz
  3101  01AF  2832               	goto	i1l30000541
  3102  01B0  3A03               	xorlw	2^1
  3103  01B1  1903               	skipnz
  3104  01B2  284A               	goto	i1l30000544
  3105  01B3  3A01               	xorlw	3^2
  3106  01B4  1903               	skipnz
  3107  01B5  2862               	goto	i1l30000547
  3108  01B6  3A07               	xorlw	4^3
  3109  01B7  1903               	skipnz
  3110  01B8  287A               	goto	i1l24
  3111  01B9  3A01               	xorlw	5^4
  3112  01BA  1903               	skipnz
  3113  01BB  2896               	goto	i1l30000553
  3114  01BC  3A03               	xorlw	6^5
  3115  01BD  1903               	skipnz
  3116  01BE  28AE               	goto	i1l30000556
  3117  01BF  3A01               	xorlw	7^6
  3118  01C0  1903               	skipnz
  3119  01C1  28C6               	goto	i1l30000559
  3120  01C2  3A0F               	xorlw	8^7
  3121  01C3  1903               	skipnz
  3122  01C4  28DE               	goto	i1l28
  3123  01C5  3A01               	xorlw	9^8
  3124  01C6  1903               	skipnz
  3125  01C7  28FA               	goto	i1l30000565
  3126  01C8  3A03               	xorlw	10^9
  3127  01C9  1903               	skipnz
  3128  01CA  2912               	goto	i1l30000568
  3129  01CB  3A01               	xorlw	11^10
  3130  01CC  1903               	skipnz
  3131  01CD  292A               	goto	i1l30000571
  3132  01CE  3A07               	xorlw	12^11
  3133  01CF  1903               	skipnz
  3134  01D0  2942               	goto	i1l32
  3135  01D1  3A01               	xorlw	13^12
  3136  01D2  1903               	skipnz
  3137  01D3  295E               	goto	i1l30000577
  3138  01D4  3A03               	xorlw	14^13
  3139  01D5  1903               	skipnz
  3140  01D6  2976               	goto	i1l30000580
  3141  01D7  3A01               	xorlw	15^14
  3142  01D8  1903               	skipnz
  3143  01D9  298E               	goto	i1l30000583
  3144  01DA  29E0               	goto	i1l17
  3145                           
  3146  01DB                     i1l30013:
  3147  01DB  084D               	movf (_scan_no+1),w
  3148  01DC  3A00               	xorlw	0^0
  3149  01DD  1903               	skipnz
  3150  01DE  29A7               	goto	i1l30014
  3151  01DF  29E0               	goto	i1l17
  3152                           
  3153                           	
  3154  01E0                     i1l17:	
  3155  01E0  0008               	return
  3156                           	opt stack 0
  3157                           GLOBAL	__end_of_scanner
  3158  01E1                     	__end_of_scanner:
  3159                           ; =============== function _scanner ends ============
  3160                           
  3161                           psect	text124,local,class=CODE,delta=2
  3162                           global __ptext124
  3163  04E2                     __ptext124:
  3164                           	line	252
  3165                           	signat	_scanner,88
  3166                           	global	_buzzer
  3167                           
  3168                           ; *************** function _buzzer *****************
  3169                           ; Defined at:
  3170                           ;		line 354 in file "D:\ABHISHEK JOSHI\PIC\LCD\T9\LCD T9.C"
  3171                           ; Parameters:    Size  Location     Type
  3172                           ;		None
  3173                           ; Auto vars:     Size  Location     Type
  3174                           ;		None
  3175                           ; Return value:  Size  Location     Type
  3176                           ;		None               void
  3177                           ; Registers used:
  3178                           ;		wreg
  3179                           ; Tracked objects:
  3180                           ;		On entry : 0/0
  3181                           ;		On exit  : 0/0
  3182                           ;		Unchanged: 0/0
  3183                           ; Data sizes:     COMMON   BANK0   BANK1   BANK3   BANK2
  3184                           ;      Locals:         0       0       0       0       0
  3185                           ;      Temp:     0
  3186                           ;      Total:    0
  3187                           ; This function calls:
  3188                           ;		Nothing
  3189                           ; This function is called by:
  3190                           ;		_isr_t0
  3191                           ; This function uses a non-reentrant model
  3192                           ; 
  3193                           psect	text124
  3194                           	file	"D:\ABHISHEK JOSHI\PIC\LCD\T9\LCD T9.C"
  3195                           	line	354
  3196                           	global	__size_of_buzzer
  3197  000C                     	__size_of_buzzer	equ	__end_of_buzzer-_buzzer
  3198                           ;LCD T9.C: 353: void buzzer()
  3199                           ;LCD T9.C: 354: {
  3200                           	
  3201  04E2                     _buzzer:	
  3202                           	opt stack 4
  3203                           ; Regs used in _buzzer: [wreg]
  3204                           	line	355
  3205                           	
  3206  04E2                     i1l30000590:	
  3207                           ;LCD T9.C: 355: if(start_buzzer==1)
  3208  04E2  3001               	movlw	01h
  3209  04E3  1283               	bcf	status, 5	;RP0=0, select bank0
  3210  04E4  1303               	bcf	status, 6	;RP1=0, select bank0
  3211  04E5  064E               	xorwf	(_start_buzzer),w
  3212  04E6  044F               	iorwf	(_start_buzzer+1),w
  3213  04E7  1D03               	skipz
  3214  04E8  2CEA               	goto	u24_21
  3215  04E9  2CEB               	goto	u24_20
  3216  04EA                     u24_21:
  3217  04EA  2CED               	goto	i1l65
  3218  04EB                     u24_20:
  3219                           	
  3220  04EB                     i1l30000591:	
  3221                           	line	356
  3222                           ;LCD T9.C: 356: RC5=~RC5;
  3223  04EB  3020               	movlw	1<<((61)&7)
  3224  04EC  0687               	xorwf	((61)/8),f
  3225                           	
  3226  04ED                     i1l65:	
  3227  04ED  0008               	return
  3228                           	opt stack 0
  3229                           GLOBAL	__end_of_buzzer
  3230  04EE                     	__end_of_buzzer:
  3231                           ; =============== function _buzzer ends ============
  3232                           
  3233                           psect	text125,local,class=CODE,delta=2
  3234                           global __ptext125
  3235  04B7                     __ptext125:
  3236                           	line	357
  3237                           	signat	_buzzer,88
  3238                           	global	i1_init_timer
  3239                           
  3240                           ; *************** function i1_init_timer *****************
  3241                           ; Defined at:
  3242                           ;		line 98 in file "D:\ABHISHEK JOSHI\PIC\LCD\T9\LCD T9.C"
  3243                           ; Parameters:    Size  Location     Type
  3244                           ;		None
  3245                           ; Auto vars:     Size  Location     Type
  3246                           ;		None
  3247                           ; Return value:  Size  Location     Type
  3248                           ;		None               void
  3249                           ; Registers used:
  3250                           ;		wreg
  3251                           ; Tracked objects:
  3252                           ;		On entry : 0/0
  3253                           ;		On exit  : 0/0
  3254                           ;		Unchanged: 0/0
  3255                           ; Data sizes:     COMMON   BANK0   BANK1   BANK3   BANK2
  3256                           ;      Locals:         0       0       0       0       0
  3257                           ;      Temp:     0
  3258                           ;      Total:    0
  3259                           ; This function calls:
  3260                           ;		Nothing
  3261                           ; This function is called by:
  3262                           ;		_isr_t0
  3263                           ; This function uses a non-reentrant model
  3264                           ; 
  3265                           psect	text125
  3266                           	file	"D:\ABHISHEK JOSHI\PIC\LCD\T9\LCD T9.C"
  3267                           	line	98
  3268                           	global	__size_ofi1_init_timer
  3269  000F                     	__size_ofi1_init_timer	equ	__end_ofi1_init_timer-i1_init_timer
  3270                           ;LCD T9.C: 97: void init_timer()
  3271                           ;LCD T9.C: 98: {
  3272                           	
  3273  04B7                     i1_init_timer:	
  3274                           	opt stack 4
  3275                           ; Regs used in i1_init_timer: [wreg]
  3276                           	line	99
  3277                           	
  3278  04B7                     i1l30000592:	
  3279                           ;LCD T9.C: 99: TMR1H=0xFC;
  3280  04B7  30FC               	movlw	(0FCh)
  3281  04B8  1283               	bcf	status, 5	;RP0=0, select bank0
  3282  04B9  1303               	bcf	status, 6	;RP1=0, select bank0
  3283  04BA  008F               	movwf	(15)	;volatile
  3284                           	line	100
  3285                           ;LCD T9.C: 100: TMR1L=0x18;
  3286  04BB  3018               	movlw	(018h)
  3287  04BC  008E               	movwf	(14)	;volatile
  3288                           	line	101
  3289                           ;LCD T9.C: 101: T1CON=0x01;
  3290  04BD  3001               	movlw	(01h)
  3291  04BE  0090               	movwf	(16)	;volatile
  3292                           	
  3293  04BF                     i1l30000593:	
  3294                           	line	102
  3295                           ;LCD T9.C: 102: TMR1IE=1;
  3296  04BF  1683               	bsf	status, 5	;RP0=1, select bank1
  3297  04C0  1303               	bcf	status, 6	;RP1=0, select bank1
  3298  04C1  140C               	bsf	(1120/8)^080h,(1120)&7
  3299                           	
  3300  04C2                     i1l30000594:	
  3301                           	line	103
  3302                           ;LCD T9.C: 103: TMR1IF=0;
  3303  04C2  1283               	bcf	status, 5	;RP0=0, select bank0
  3304  04C3  1303               	bcf	status, 6	;RP1=0, select bank0
  3305  04C4  100C               	bcf	(96/8),(96)&7
  3306                           	
  3307  04C5                     i1l14:	
  3308  04C5  0008               	return
  3309                           	opt stack 0
  3310                           GLOBAL	__end_ofi1_init_timer
  3311  04C6                     	__end_ofi1_init_timer:
  3312                           ; =============== function i1_init_timer ends ============
  3313                           
  3314                           psect	text126,local,class=CODE,delta=2
  3315                           global __ptext126
  3316  0278                     __ptext126:
  3317                           	line	104
  3318                           	signat	i1_init_timer,88
  3319                           	global	_k1
  3320                           
  3321                           ; *************** function _k1 *****************
  3322                           ; Defined at:
  3323                           ;		line 255 in file "D:\ABHISHEK JOSHI\PIC\LCD\T9\LCD T9.C"
  3324                           ; Parameters:    Size  Location     Type
  3325                           ;		None
  3326                           ; Auto vars:     Size  Location     Type
  3327                           ;		None
  3328                           ; Return value:  Size  Location     Type
  3329                           ;		None               void
  3330                           ; Registers used:
  3331                           ;		wreg, status,2, status,0
  3332                           ; Tracked objects:
  3333                           ;		On entry : 0/0
  3334                           ;		On exit  : 0/0
  3335                           ;		Unchanged: 0/0
  3336                           ; Data sizes:     COMMON   BANK0   BANK1   BANK3   BANK2
  3337                           ;      Locals:         0       0       0       0       0
  3338                           ;      Temp:     0
  3339                           ;      Total:    0
  3340                           ; This function calls:
  3341                           ;		Nothing
  3342                           ; This function is called by:
  3343                           ;		_scanner
  3344                           ; This function uses a non-reentrant model
  3345                           ; 
  3346                           psect	text126
  3347                           	file	"D:\ABHISHEK JOSHI\PIC\LCD\T9\LCD T9.C"
  3348                           	line	255
  3349                           	global	__size_of_k1
  3350  0071                     	__size_of_k1	equ	__end_of_k1-_k1
  3351                           ;LCD T9.C: 254: void k1()
  3352                           ;LCD T9.C: 255: {
  3353                           	
  3354  0278                     _k1:	
  3355                           	opt stack 3
  3356                           ; Regs used in _k1: [wreg+status,2+status,0]
  3357                           	line	256
  3358                           	
  3359  0278                     i1l30000523:	
  3360                           ;LCD T9.C: 256: if(key_ready==1)
  3361  0278  3001               	movlw	01h
  3362  0279  1283               	bcf	status, 5	;RP0=0, select bank0
  3363  027A  1303               	bcf	status, 6	;RP1=0, select bank0
  3364  027B  0646               	xorwf	(_key_ready),w
  3365  027C  0447               	iorwf	(_key_ready+1),w
  3366  027D  1D03               	skipz
  3367  027E  2A80               	goto	u17_21
  3368  027F  2A81               	goto	u17_20
  3369  0280                     u17_21:
  3370  0280  2AA7               	goto	i1l30000529
  3371  0281                     u17_20:
  3372                           	
  3373  0281                     i1l30000524:	
  3374                           	line	258
  3375                           ;LCD T9.C: 257: {
  3376                           ;LCD T9.C: 258: if(c==0)
  3377  0281  083F               	movf	((_c+1)),w
  3378  0282  043E               	iorwf	((_c)),w
  3379  0283  1D03               	skipz
  3380  0284  2A86               	goto	u18_21
  3381  0285  2A87               	goto	u18_20
  3382  0286                     u18_21:
  3383  0286  2A8C               	goto	i1l30000526
  3384  0287                     u18_20:
  3385                           	
  3386  0287                     i1l30000525:	
  3387                           	line	260
  3388                           ;LCD T9.C: 259: {
  3389                           ;LCD T9.C: 260: krcount=32;
  3390  0287  3020               	movlw	low(020h)
  3391  0288  00C8               	movwf	(_krcount)
  3392  0289  3000               	movlw	high(020h)
  3393  028A  00C9               	movwf	((_krcount))+1
  3394  028B  2AE8               	goto	i1l36
  3395                           	
  3396  028C                     i1l30000526:	
  3397                           	line	264
  3398                           ;LCD T9.C: 262: else
  3399                           ;LCD T9.C: 263: {
  3400                           ;LCD T9.C: 264: krcount=krcount-1;
  3401  028C  0848               	movf	(_krcount),w
  3402  028D  3EFF               	addlw	low(-1)
  3403  028E  00C8               	movwf	(_krcount)
  3404  028F  0849               	movf	(_krcount+1),w
  3405  0290  1803               	skipnc
  3406  0291  3E01               	addlw	1
  3407  0292  3EFF               	addlw	high(-1)
  3408  0293  00C9               	movwf	1+(_krcount)
  3409                           	
  3410  0294                     i1l30000527:	
  3411                           	line	266
  3412                           ;LCD T9.C: 266: if(krcount==0)
  3413  0294  0849               	movf	((_krcount+1)),w
  3414  0295  0448               	iorwf	((_krcount)),w
  3415  0296  1D03               	skipz
  3416  0297  2A99               	goto	u19_21
  3417  0298  2A9A               	goto	u19_20
  3418  0299                     u19_21:
  3419  0299  2AE8               	goto	i1l36
  3420  029A                     u19_20:
  3421                           	
  3422  029A                     i1l30000528:	
  3423                           	line	268
  3424                           ;LCD T9.C: 267: {
  3425                           ;LCD T9.C: 268: nkp=1;
  3426  029A  3001               	movlw	low(01h)
  3427  029B  00CA               	movwf	(_nkp)
  3428  029C  3000               	movlw	high(01h)
  3429  029D  00CB               	movwf	((_nkp))+1
  3430                           	line	269
  3431                           ;LCD T9.C: 269: start_buzzer=0;
  3432  029E  3000               	movlw	low(0)
  3433  029F  00CE               	movwf	(_start_buzzer)
  3434  02A0  3000               	movlw	high(0)
  3435  02A1  00CF               	movwf	((_start_buzzer))+1
  3436                           	line	270
  3437                           ;LCD T9.C: 270: krcount=32;
  3438  02A2  3020               	movlw	low(020h)
  3439  02A3  00C8               	movwf	(_krcount)
  3440  02A4  3000               	movlw	high(020h)
  3441  02A5  00C9               	movwf	((_krcount))+1
  3442  02A6  2AE8               	goto	i1l36
  3443                           	
  3444  02A7                     i1l30000529:	
  3445                           	line	274
  3446                           ;LCD T9.C: 274: else if(dcount==33)
  3447  02A7  3021               	movlw	021h
  3448  02A8  0676               	xorwf	(_dcount),w
  3449  02A9  0477               	iorwf	(_dcount+1),w
  3450  02AA  1D03               	skipz
  3451  02AB  2AAD               	goto	u20_21
  3452  02AC  2AAE               	goto	u20_20
  3453  02AD                     u20_21:
  3454  02AD  2AC3               	goto	i1l30000532
  3455  02AE                     u20_20:
  3456                           	
  3457  02AE                     i1l30000530:	
  3458                           	line	276
  3459                           ;LCD T9.C: 275: {
  3460                           ;LCD T9.C: 276: if(c==0)
  3461  02AE  083F               	movf	((_c+1)),w
  3462  02AF  043E               	iorwf	((_c)),w
  3463  02B0  1D03               	skipz
  3464  02B1  2AB3               	goto	u21_21
  3465  02B2  2AB4               	goto	u21_20
  3466  02B3                     u21_21:
  3467  02B3  2AE8               	goto	i1l36
  3468  02B4                     u21_20:
  3469                           	
  3470  02B4                     i1l30000531:	
  3471                           	line	278
  3472                           ;LCD T9.C: 277: {
  3473                           ;LCD T9.C: 278: dcount=dcount-1;
  3474  02B4  0876               	movf	(_dcount),w
  3475  02B5  3EFF               	addlw	low(-1)
  3476  02B6  00F6               	movwf	(_dcount)
  3477  02B7  0877               	movf	(_dcount+1),w
  3478  02B8  1803               	skipnc
  3479  02B9  3E01               	addlw	1
  3480  02BA  3EFF               	addlw	high(-1)
  3481  02BB  00F7               	movwf	1+(_dcount)
  3482                           	line	279
  3483                           ;LCD T9.C: 279: key_code=scan_no;
  3484  02BC  084D               	movf	(_scan_no+1),w
  3485  02BD  01C5               	clrf	(_key_code+1)
  3486  02BE  07C5               	addwf	(_key_code+1)
  3487  02BF  084C               	movf	(_scan_no),w
  3488  02C0  01C4               	clrf	(_key_code)
  3489  02C1  07C4               	addwf	(_key_code)
  3490                           
  3491  02C2  2AE8               	goto	i1l36
  3492                           	
  3493  02C3                     i1l30000532:	
  3494                           	line	286
  3495                           ;LCD T9.C: 284: else
  3496                           ;LCD T9.C: 285: {
  3497                           ;LCD T9.C: 286: dcount=dcount-1;
  3498  02C3  0876               	movf	(_dcount),w
  3499  02C4  3EFF               	addlw	low(-1)
  3500  02C5  00F6               	movwf	(_dcount)
  3501  02C6  0877               	movf	(_dcount+1),w
  3502  02C7  1803               	skipnc
  3503  02C8  3E01               	addlw	1
  3504  02C9  3EFF               	addlw	high(-1)
  3505  02CA  00F7               	movwf	1+(_dcount)
  3506                           	
  3507  02CB                     i1l30000533:	
  3508                           	line	287
  3509                           ;LCD T9.C: 287: if(dcount==0)
  3510  02CB  0877               	movf	((_dcount+1)),w
  3511  02CC  0476               	iorwf	((_dcount)),w
  3512  02CD  1D03               	skipz
  3513  02CE  2AD0               	goto	u22_21
  3514  02CF  2AD1               	goto	u22_20
  3515  02D0                     u22_21:
  3516  02D0  2AE8               	goto	i1l36
  3517  02D1                     u22_20:
  3518                           	
  3519  02D1                     i1l30000534:	
  3520                           	line	289
  3521                           ;LCD T9.C: 288: {
  3522                           ;LCD T9.C: 289: if(c==0)
  3523  02D1  083F               	movf	((_c+1)),w
  3524  02D2  043E               	iorwf	((_c)),w
  3525  02D3  1D03               	skipz
  3526  02D4  2AD6               	goto	u23_21
  3527  02D5  2AD7               	goto	u23_20
  3528  02D6                     u23_21:
  3529  02D6  2AE4               	goto	i1l30000536
  3530  02D7                     u23_20:
  3531                           	
  3532  02D7                     i1l30000535:	
  3533                           	line	291
  3534                           ;LCD T9.C: 290: {
  3535                           ;LCD T9.C: 291: key_ready=1;
  3536  02D7  3001               	movlw	low(01h)
  3537  02D8  00C6               	movwf	(_key_ready)
  3538  02D9  3000               	movlw	high(01h)
  3539  02DA  00C7               	movwf	((_key_ready))+1
  3540                           	line	292
  3541                           ;LCD T9.C: 292: start_buzzer=1;
  3542  02DB  3001               	movlw	low(01h)
  3543  02DC  00CE               	movwf	(_start_buzzer)
  3544  02DD  3000               	movlw	high(01h)
  3545  02DE  00CF               	movwf	((_start_buzzer))+1
  3546                           	line	293
  3547                           ;LCD T9.C: 293: dcount=33;
  3548  02DF  3021               	movlw	low(021h)
  3549  02E0  00F6               	movwf	(_dcount)
  3550  02E1  3000               	movlw	high(021h)
  3551  02E2  00F7               	movwf	((_dcount))+1
  3552  02E3  2AE8               	goto	i1l36
  3553                           	
  3554  02E4                     i1l30000536:	
  3555                           	line	295
  3556                           ;LCD T9.C: 295: else dcount=33;
  3557  02E4  3021               	movlw	low(021h)
  3558  02E5  00F6               	movwf	(_dcount)
  3559  02E6  3000               	movlw	high(021h)
  3560  02E7  00F7               	movwf	((_dcount))+1
  3561                           	
  3562  02E8                     i1l36:	
  3563  02E8  0008               	return
  3564                           	opt stack 0
  3565                           GLOBAL	__end_of_k1
  3566  02E9                     	__end_of_k1:
  3567                           ; =============== function _k1 ends ============
  3568                           
  3569                           psect	text127,local,class=CODE,delta=2
  3570                           global __ptext127
  3571  0512                     __ptext127:
  3572                           	line	299
  3573                           	signat	_k1,88
  3574                           	global	btemp
  3575  007E                     	btemp set 07Eh


HI-TECH Software PICC Macro Assembler V9.70 build 5239 
Symbol Table                                                                                   Wed Jan 02 17:41:58 2002

                    _a 003C                      _c 003E                      _i 0040                      _k 0042  
                    pc 0002                     l13 0503                     _DA 04A5                     l14 04D4  
                   _BF 04A0                     _DC 0019                     l16 045B                     l61 04A5  
                   l70 0415                     l71 04F8                     l72 0510                     l73 038C  
                   l67 04E1                     l68 0277                     l69 043C                     l77 0377  
                   _PD 001B                     _RD 0C60                     _UA 04A1                     _TO 001C  
                   _RW 04A2                     _WR 0C61                     _k1 0278                     _tb 0050  
                   fsr 0004            __pbssCOMMON 0076           i1_init_timer 04B7        __size_of_cmd_wr 0027  
                  ?_k1 0057                    _CM0 04E0                    _CM1 04E1                    _CM2 04E2  
                  _CKE 04A6                    _CIS 04E3                    _CKP 00A4                    _GIE 005F  
                  _BOR 0470                    _RA0 0028                    _RA1 0029                    _RB0 0030  
                  _RA2 002A                    _RB1 0031                    _RA3 002B                    _RC0 0038  
                  _RB2 0032                    _RA4 002C                    _RC1 0039                    _RB3 0033  
                  _RA5 002D                    _RC2 003A                    _RB4 0034                    _RC3 003B  
                  _RB5 0035                    _RC4 003C                    _RB6 0036                    _RC5 003D  
                  _RB7 0037                    _RC6 003E                    _RC7 003F                    _FSR 0004  
                  u330 0371                    _PCL 0002                    u331 0370                    u325 0429  
                  u350 038C                    u270 049D                    _PS0 0408                    _PR2 0092  
                  u351 038B                    u271 049C                    _PS1 0409                    u360 0334  
                  _PS2 040A                    _PEN 048A                    _RP0 001D                    _IRP 001F  
                  u345 037D                    u361 0333                    _RP1 001E                    u370 033D  
                  u355 0388                    u371 033C                    u285 0402                    u365 0330  
                  i1l2 046B                    _SEN 0488                    _PSA 040B                    _POR 0471  
                  _RX9 00C6                    _SMP 04A7                    _TX9 04C6        __size_of_isr_t0 001C  
                  _ds1 0079                    _ds2 0039                    _ds3 003A                    _ds4 003B  
      __size_of_buzzer 000C                    _cnt 00A0                    _nkp 004A                    fsr0 0004  
                  indf 0000   __end_ofi1_init_timer 04C6           ??_init_timer 0070        __size_of_toggle 0005  
         _start_buzzer 004E                   ??_k1 0057       __size_of_data_wr 0027               _cmd_data 0078  
                 _ADIE 0466                   _ADIF 0066                   _ADFM 04FF                   _ADGO 00FA  
                 _ADON 00F8                   _CHS0 00FB                   _CHS1 00FC                   _CHS2 00FD  
                 _EEIE 046C                   _EEIF 006C                   _GCEN 048F                   _CMIE 046E  
                 _CMIF 006E                   _BRGH 04C2                   _T0IE 005D                   _T0IF 005A  
                 _CREN 00C4                   _T0CS 040D                   _FERR 00C2                   _CVR0 04E8  
                 _CVR1 04E9                   _CVR2 04EA                   _CVR3 04EB                   _T0SE 040C  
                 _CSRC 04C7                   _INDF 0000                   _PIE1 008C                   _PIE2 008D  
                 _CVRR 04ED                   _PEIE 005E                   i1l20 0016                   _INTE 005C  
                 i1l14 04C5                   _INTF 0059                   _RBIE 005B                   i1l32 0142  
                 i1l24 007A                   _RBIF 0058                   i1l17 01E0                   _RCIE 0465  
                 i1l36 02E8                   i1l28 00DE                   _RCEN 048B                   _RCIF 0065  
                 _PCON 008E                   i1l65 04ED                   _PIR1 000C                   _PIR2 000D  
                 _OERR 00C1                   _RBPU 040F           __pidataBANK0 0478           __pidataBANK1 038D  
                 _RX9D 00C0                   _TMR0 0001                   _TMR2 0011                   _WCOL 00A7  
                 _SPEN 00C7                   _RSEN 0489                   _TX9D 04C0                   _SREN 00C5  
                 _TRMT 04C1                   _STOP 04A4                   _TXIE 0464                   _ZERO 001A  
             _lcd_disp 04D5                   _WREN 0C62                   _TXEN 04C5                   _TXIF 0064  
                 _SYNC 04C4          ??_key_release 0070              ?_lcd_disp 0074          ??_init_keypad 0070  
     __size_of_scanner 01CC                   _disp 00B9           _data_mapping 04EE                   _main 02E9  
                 _init 04F9                   btemp 007E               _key_code 0044                   start 0012  
             _init_lcd 01E1             ??_lcd_disp 0072   __end_of_data_mapping 04F9              ?_init_lcd 0075  
    interrupt_function 0004             lcd_delay@i 0053             lcd_delay@j 0055             lcd_delay@x 0073  
  start_initialization 03BF               clear_ram 0504             ??_init_lcd 0073                ?_cmd_wr 0074  
             ??_cmd_wr 0072                _CCP1CON 0017                _CCP2CON 001D                _ACKSTAT 048E  
              ?_isr_t0 005D                ?_buzzer 0057          ?i1_init_timer 0057                  _C1INV 04E4  
             ??_isr_t0 0059                  _C2INV 04E5        __end_of_data_wr 0416               ??_buzzer 0057  
                _C1OUT 04E6              _ascii_tab 0020                  _C2OUT 04E7      __size_of_lcd_disp 000D  
                _ADCS0 00FE                  _ADCS1 00FF                  _ADCS2 04FE                  _ADDEN 00C3  
                ?_main 0076                  _ACKEN 048C                  _ACKDT 048D              __ptext111 04D5  
            __ptext120 04EE              __ptext112 0494              __ptext121 050C              __ptext113 04F9  
            __ptext122 045C              __ptext114 01E1              __ptext123 0015              __ptext115 04C6  
            __ptext124 04E2              __ptext116 03EF                  ?_init 0070              __ptext125 04B7  
            __ptext117 043D              __ptext126 0278              __ptext118 0357              __ptext127 0512  
            __ptext119 0416                  _BCLIE 046B                  _BCLIF 006B                  _CCP1X 00BD  
                _CCP1Y 00BC                  _CCP2X 00ED                  _CCP2Y 00EC                  _EEADR 010D  
              ?_toggle 0070                  _CARRY 0018                  _EEPGD 0C67                  _CMCON 009C  
                _T1CON 0010                  _T2CON 0012                _T1CKPS0 0084                _T1CKPS1 0085  
             ??_toggle 0070                  _PCFG0 04F8                  _PCFG1 04F9                  _PCFG2 04FA  
                _PCFG3 04FB                _T2CKPS0 0090                _T2CKPS1 0091                  _CVREN 04EF  
                _CVROE 04EE                  _RCREG 001A                  _RCSTA 0018                  u20_20 02AE  
                u20_21 02AD                  u21_20 02B4                  u21_21 02B3                  u22_20 02D1  
                u22_21 02D0                  u23_20 02D7                  u23_21 02D6                  u24_20 04EB  
                u24_21 04EA                  u17_20 0281                  u17_21 0280                  _TMR1H 000F  
                _TMR1L 000E                  u18_20 0287                  u18_21 0286                  _SPBRG 0099  
                u19_20 029A                  u19_21 0299                  _PORTA 0005                  _PORTB 0006  
              _T1OSCEN 0083                  _PORTC 0007                  _START 04A3              _lcd_delay 0357  
                _SSPM0 00A0                  _SSPM1 00A1                  _SSPM2 00A2                  _SSPM3 00A3  
                _TRISA 0085                  _TRISB 0086                  _TRISC 0087                  _SSPIE 0463  
                _SSPIF 0063                  _SSPEN 00A5                i1l30013 01DB                i1l30014 01A7  
                _SSPOV 00A6                  _WRERR 0C63                  _TXREG 0019      __end_of_lcd_delay 038D  
                _TXSTA 0098              _disp_data 0052          __pidataCOMMON 0511      __size_of_init_lcd 0097  
data_mapping@var_data1 0071        __end_of_scanner 01E1            __size_of_k1 0071             ?_lcd_delay 0073  
       __pcstackCOMMON 0070                _SSPCON2 0091  __size_ofi1_init_timer 000F             __end_of_k1 02E9  
              _SSPSTAT 0094                _TOUTPS0 0093                _TOUTPS1 0094                _TOUTPS2 0095  
              _TOUTPS3 0096                  pclath 000A               intlevel1 0004            ??_lcd_delay 0070  
            _key_ready 0046                  status 0003          ?_data_mapping 0072    __size_of_init_timer 000F  
        __size_of_main 006E             __pbssBANK0 003C          __size_of_init 000B               l30000700 033D  
             l30000701 0343               l30000614 04D5               l30000702 0349               l30000615 0494  
             l30000703 034E               l30000640 04CE               l30000616 0494               l30000641 04D1  
             l30000617 049D               l30000642 03F0               l30000618 04F9               l30000643 03F4  
             l30000660 0437               l30000644 03FA               l30000661 04EF               l30000645 03FF  
             l30000662 050C               l30000646 040A               l30000670 01FE               l30000655 0417  
             l30000663 0357               l30000647 0410               l30000639 04C6               l30000671 0204  
             l30000656 041B               l30000664 035E               l30000648 043D               l30000680 0251  
             l30000672 020D               l30000657 0421               l30000649 0443               l30000681 0262  
             l30000673 021E               l30000658 0426               l30000666 0362               l30000682 0265  
             l30000674 0220               l30000690 0303               l30000659 0431               l30000667 0371  
             l30000683 026B               l30000675 0226               l30000691 0306               l30000684 0274  
             l30000676 022F               l30000668 01E1               l30000692 0307               l30000677 0240  
             l30000669 01FC               l30000693 030D               l30000685 02E9               l30000678 0242  
             l30000686 02F0               l30000679 0248               l30000687 02F2               l30000696 0313  
             l30000688 02F9               l30000697 031F               l30000689 02FE               l30000698 0327  
             l30000699 0334        data_wr@var_data 0073  __size_of_data_mapping 000B                _data_wr 03EF  
               ??_main 0075               ?_data_wr 0074                 ??_init 0070              ??_data_wr 0072  
           __pmaintext 02E9                _scan_no 004C                _scanner 0015                _krcount 0048  
             ?_scanner 0059             __pintentry 0004     __size_of_lcd_delay 0036              ??_scanner 0057  
               _ADCON0 001F                 _ADCON1 009F                 _CCP1M0 00B8                 _CCP1M1 00B9  
               _CCP1M2 00BA                 _CCP1M3 00BB                 _CCP2M0 00E8                 _CCP2M1 00E9  
               _CCP2M2 00EA                 _CCP2M3 00EB                 _CCP1IE 0462                 _CCP1IF 0062  
               _CCP2IE 0468                 _CCP2IF 0068                 _ADRESH 001E                 _EEADRH 010F  
               _ADRESL 009E                 _EEADRL 010D                 _EEDATA 010C                 _CCPR1H 0016  
               _EEDATH 010E                 _CCPR2H 001C                 _CCPR1L 0015                 _CCPR2L 001B  
               _EECON1 018C                 _EECON2 018D         __end_of_cmd_wr 043D           __end_of_main 0357  
         __end_of_init 0504                 _GODONE 00FA   end_of_initialization 03EB                 _CVRCON 009D  
               _T1SYNC 0082       __end_of_lcd_disp 04E2                 _INTEDG 040E                 _PCLATH 000A  
               _INTCON 000B          __pcstackBANK0 0053         __end_of_isr_t0 0478         __end_of_buzzer 04EE  
               _TMR0IE 005D                 _TMR0IF 005A                 _TMR1IE 0460                 _TMR1IF 0060  
               _TMR1CS 0081                 _TMR2IE 0461                 _TMR2IF 0061                 _OPTION 0081  
               _TMR1ON 0080                 _TMR2ON 0092         __end_of_toggle 0511                 _SSPADD 0093  
               _TRISA0 0428                 _TRISA1 0429                 _TRISB0 0430                 _TRISA2 042A  
               _TRISB1 0431                 _TRISA3 042B                 _TRISC0 0438                 _TRISB2 0432  
               _TRISA4 042C                 _TRISC1 0439                 _TRISB3 0433                 _TRISA5 042D  
               _TRISC2 043A                 _TRISB4 0434                 _TRISC3 043B                 _TRISB5 0435  
               _TRISC4 043C                 _TRISB6 0436                 _TRISC5 043D                 _TRISB7 0437  
               _TRISC6 043E                 _TRISC7 043F                 _STATUS 0003                 _SSPCON 0014  
               _SSPBUF 0013                init_ram 04AA       __end_of_init_lcd 0278                 _cmd_wr 0416  
               _dcount 0076            _key_release 0494                 _isr_t0 045C                 _buzzer 04E2  
           i1l30000530 02AE             i1l30000531 02B4             i1l30000523 0278             i1l30000532 02C3  
           i1l30000524 0281             i1l30000540 002B             i1l30000533 02CB             i1l30000525 0287  
           i1l30000541 0032             i1l30000534 02D1             i1l30000526 028C             i1l30000550 007E  
           i1l30000542 003E             i1l30000535 02D7             i1l30000527 0294             i1l30000551 008A  
           i1l30000543 0043             i1l30000536 02E4             i1l30000528 029A             i1l30000560 00D2  
           i1l30000552 008F             i1l30000544 004A             i1l30000529 02A7             i1l30000561 00D7  
           i1l30000553 0096             i1l30000545 0056             i1l30000537 0015             i1l30000570 0123  
           i1l30000562 00E2             i1l30000554 00A2             i1l30000546 005B             i1l30000538 001A  
           i1l30000571 012A             i1l30000563 00EE             i1l30000555 00A7             i1l30000547 0062  
           i1l30000539 0026             i1l30000580 0176             i1l30000572 0136             i1l30000564 00F3  
           i1l30000556 00AE             i1l30000548 006E             i1l30000581 0182             i1l30000573 013B  
           i1l30000565 00FA             i1l30000557 00BA             i1l30000549 0073             i1l30000590 04E2  
           i1l30000582 0187             i1l30000574 0146             i1l30000566 0106             i1l30000558 00BF  
           i1l30000591 04EB             i1l30000583 018E             i1l30000575 0152             i1l30000567 010B  
           i1l30000559 00C6             i1l30000592 04B7             i1l30000584 019A             i1l30000576 0157  
           i1l30000568 0112             i1l30000593 04BF             i1l30000585 019F             i1l30000577 015E  
           i1l30000569 011E             i1l30000594 04C2             i1l30000578 016A             i1l30000579 016F  
           i1l30000587 01A6             i1l30000588 045C             i1l30000589 0466            _init_keypad 043D  
            init_fetch 04A6    __end_of_key_release 04A6                 _toggle 050C         ??i1_init_timer 0057  
  __end_of_init_keypad 045C                 clrloop 0505                 saved_w 007F             _init_timer 04C6  
   __end_of_init_timer 04D5           ?_key_release 0070           ?_init_keypad 0070         ??_data_mapping 0070  
       cmd_wr@var_data 0073   __size_of_key_release 0012            ?_init_timer 0070   __size_of_init_keypad 001F  
          __pdataBANK0 0020            __pdataBANK1 00A0           __pdataCOMMON 0079  
