

HI-TECH Software PIC LITE Macro Assembler V9.70 build 5239 
                                                                                               Tue Jan 01 15:43:43 2002

HI-TECH Software Omniscient Code Generator (Lite mode) build 5239
     1  0000                     opt subtitle "HI-TECH Software Omniscient Code Generator (Lite mode) build 5239"
     2                           
     3                           opt pagewidth 120
     4                           
     5                           	opt lm
     6                           
     7                           	processor	16F876A
     8                           clrc	macro
     9                           	bcf	3,0
    10  0000                     	endm
    11                           clrz	macro
    12                           	bcf	3,2
    13  0000                     	endm
    14                           setc	macro
    15                           	bsf	3,0
    16  0000                     	endm
    17                           setz	macro
    18                           	bsf	3,2
    19  0000                     	endm
    20                           skipc	macro
    21                           	btfss	3,0
    22  0000                     	endm
    23                           skipz	macro
    24                           	btfss	3,2
    25  0000                     	endm
    26                           skipnc	macro
    27                           	btfsc	3,0
    28  0000                     	endm
    29                           skipnz	macro
    30                           	btfsc	3,2
    31  0000                     	endm
    32  0000                     indf	equ	0
    33  0000                     indf0	equ	0
    34  0002                     pc	equ	2
    35  0002                     pcl	equ	2
    36  0003                     status	equ	3
    37  0004                     fsr	equ	4
    38  0004                     fsr0	equ	4
    39  0001                     c	equ	1
    40  0000                     z	equ	0
    41  000A                     pclath	equ	10
    42                           	FNCALL	_main,_init_uart
    43                           	FNCALL	_main,_init
    44                           	FNCALL	_main,_key_release
    45                           	FNCALL	_main,_uart_disp
    46                           	FNCALL	_uart_disp,_home_screen
    47                           	FNCALL	_uart_disp,_tx
    48                           	FNCALL	_init,_init_keypad
    49                           	FNCALL	_init,_init_timer
    50                           	FNCALL	_home_screen,_tx
    51                           	FNCALL	_home_screen,_uart_delay
    52                           	FNROOT	_main
    53                           	FNCALL	_isr_t0,i1_init_timer
    54                           	FNCALL	_isr_t0,_buzzer
    55                           	FNCALL	_isr_t0,_scanner
    56                           	FNCALL	_scanner,_k1
    57                           	FNCALL	intlevel1,_isr_t0
    58                           	global	intlevel1
    59                           	FNROOT	intlevel1
    60                           	global	_ascii_tab
    61                           	global	_disp
    62                           	global	_ds2
    63                           	global	_ds3
    64                           	global	_ds4
    65                           	global	_ds1
    66                           	global	_cnt
    67                           psect	idataBANK0,class=CODE,space=0,delta=2
    68                           global __pidataBANK0
    69  028E                     __pidataBANK0:
    70                           	file	"D:\ABHISHEK JOSHI\PIC\UART\UART T9\UART T9.C"
    71                           	line	22
    72                           
    73                           ;initializer for _ascii_tab
    74  028E  3430               	retlw	030h
    75  028F  3431               	retlw	031h
    76  0290  3432               	retlw	032h
    77  0291  3433               	retlw	033h
    78  0292  3434               	retlw	034h
    79  0293  3435               	retlw	035h
    80  0294  3436               	retlw	036h
    81  0295  3437               	retlw	037h
    82  0296  3438               	retlw	038h
    83  0297  3439               	retlw	039h
    84  0298  3441               	retlw	041h
    85  0299  3442               	retlw	042h
    86  029A  3443               	retlw	043h
    87  029B  3444               	retlw	044h
    88  029C  3445               	retlw	045h
    89  029D  3446               	retlw	046h
    90  029E  3400               	retlw	0
    91  029F  3400               	retlw	0
    92  02A0  3400               	retlw	0
    93  02A1  3400               	retlw	0
    94  02A2  3400               	retlw	0
    95  02A3  3400               	retlw	0
    96  02A4  3400               	retlw	0
    97  02A5  3400               	retlw	0
    98  02A6  3400               	retlw	0
    99                           	line	21
   100                           
   101                           ;initializer for _disp
   102  02A7  34FC               	retlw	0FCh
   103  02A8  3460               	retlw	060h
   104  02A9  34DA               	retlw	0DAh
   105  02AA  34F2               	retlw	0F2h
   106  02AB  3466               	retlw	066h
   107  02AC  34B6               	retlw	0B6h
   108  02AD  34BE               	retlw	0BEh
   109  02AE  34E0               	retlw	0E0h
   110  02AF  34FE               	retlw	0FEh
   111  02B0  34F6               	retlw	0F6h
   112  02B1  34FF               	retlw	0FFh
   113  02B2  34FF               	retlw	0FFh
   114  02B3  34FF               	retlw	0FFh
   115  02B4  34FF               	retlw	0FFh
   116  02B5  34FF               	retlw	0FFh
   117  02B6  34FF               	retlw	0FFh
   118  02B7  34FF               	retlw	0FFh
   119  02B8  34EE               	retlw	0EEh
   120  02B9  343E               	retlw	03Eh
   121  02BA  349C               	retlw	09Ch
   122  02BB  347A               	retlw	07Ah
   123  02BC  349E               	retlw	09Eh
   124  02BD  348E               	retlw	08Eh
   125  02BE  3400               	retlw	0
   126  02BF  3400               	retlw	0
   127                           	line	23
   128                           
   129                           ;initializer for _ds2
   130  02C0  3430               	retlw	030h
   131                           
   132                           ;initializer for _ds3
   133  02C1  3430               	retlw	030h
   134                           
   135                           ;initializer for _ds4
   136  02C2  3430               	retlw	030h
   137                           
   138                           ;initializer for _ds1
   139                           psect	idataCOMMON,class=CODE,space=0,delta=2
   140                           global __pidataCOMMON
   141  042C                     __pidataCOMMON:
   142  042C  3431               	retlw	031h
   143                           psect	idataBANK1,class=CODE,space=0,delta=2
   144                           global __pidataBANK1
   145  0392                     __pidataBANK1:
   146                           	line	20
   147                           
   148                           ;initializer for _cnt
   149  0392  3450               	retlw	050h
   150  0393  3452               	retlw	052h
   151  0394  3445               	retlw	045h
   152  0395  3453               	retlw	053h
   153  0396  3453               	retlw	053h
   154  0397  3420               	retlw	020h
   155  0398  3441               	retlw	041h
   156  0399  344E               	retlw	04Eh
   157  039A  3459               	retlw	059h
   158  039B  3420               	retlw	020h
   159  039C  344B               	retlw	04Bh
   160  039D  3445               	retlw	045h
   161  039E  3459               	retlw	059h
   162  039F  3400               	retlw	0
   163  03A0  3400               	retlw	0
   164  03A1  3400               	retlw	0
   165  03A2  3400               	retlw	0
   166  03A3  3400               	retlw	0
   167  03A4  3400               	retlw	0
   168  03A5  3400               	retlw	0
   169  03A6  3400               	retlw	0
   170  03A7  3400               	retlw	0
   171  03A8  3400               	retlw	0
   172  03A9  3400               	retlw	0
   173+ 03AA  3400               	retlw	0
   174                           	global	_a
   175                           	global	_i
   176                           	global	_k
   177                           	global	_key_code
   178                           	global	_key_ready
   179                           	global	_nkp
   180                           	global	_start_buzzer
   181                           	global	_tb
   182                           	global	_cmd_data
   183                           	global	_disp_data
   184                           	global	_c
   185                           	global	_scan_no
   186                           	global	_krcount
   187                           psect	nvBANK0,class=BANK0,space=1
   188                           global __pnvBANK0
   189  006B                     __pnvBANK0:
   190  006B                     _krcount:
   191+ 006B                            ds      2
   192+                          
   193+                          	global	_dcount
   194+                          psect	nvCOMMON,class=COMMON,space=1
   195+                          global __pnvCOMMON
   196+ 0079                     __pnvCOMMON:
   197  0079                     _dcount:
   198+ 0079                            ds      2
   199                           
   200                           	global	_ADCON0
   201  001F                     _ADCON0  equ     31
   202+                          	global	_ADRESH
   203+ 001E                     _ADRESH  equ     30
   204                           	global	_CCP1CON
   205  0017                     _CCP1CON  equ     23
   206+                          	global	_CCP2CON
   207+ 001D                     _CCP2CON  equ     29
   208+                          	global	_CCPR1H
   209+ 0016                     _CCPR1H  equ     22
   210+                          	global	_CCPR1L
   211+ 0015                     _CCPR1L  equ     21
   212+                          	global	_CCPR2H
   213+ 001C                     _CCPR2H  equ     28
   214+                          	global	_CCPR2L
   215+ 001B                     _CCPR2L  equ     27
   216                           	global	_FSR
   217  0004                     _FSR  equ     4
   218                           	global	_INDF
   219  0000                     _INDF  equ     0
   220+                          	global	_INTCON
   221+ 000B                     _INTCON  equ     11
   222+                          	global	_PCL
   223+ 0002                     _PCL  equ     2
   224+                          	global	_PCLATH
   225+ 000A                     _PCLATH  equ     10
   226+                          	global	_PIR1
   227+ 000C                     _PIR1  equ     12
   228                           	global	_PIR2
   229  000D                     _PIR2  equ     13
   230+                          	global	_PORTA
   231+ 0005                     _PORTA  equ     5
   232                           	global	_PORTB
   233  0006                     _PORTB  equ     6
   234+                          	global	_PORTC
   235+ 0007                     _PORTC  equ     7
   236+                          	global	_RCREG
   237+ 001A                     _RCREG  equ     26
   238+                          	global	_RCSTA
   239+ 0018                     _RCSTA  equ     24
   240+                          	global	_SSPBUF
   241+ 0013                     _SSPBUF  equ     19
   242+                          	global	_SSPCON
   243+ 0014                     _SSPCON  equ     20
   244                           	global	_STATUS
   245  0003                     _STATUS  equ     3
   246+                          	global	_T1CON
   247+ 0010                     _T1CON  equ     16
   248+                          	global	_T2CON
   249+ 0012                     _T2CON  equ     18
   250+                          	global	_TMR0
   251+ 0001                     _TMR0  equ     1
   252+                          	global	_TMR1H
   253+ 000F                     _TMR1H  equ     15
   254+                          	global	_TMR1L
   255+ 000E                     _TMR1L  equ     14
   256                           	global	_TMR2
   257  0011                     _TMR2  equ     17
   258+                          	global	_TXREG
   259+ 0019                     _TXREG  equ     25
   260                           	global	_ADCS0
   261  00FE                     _ADCS0  equ     254
   262+                          	global	_ADCS1
   263+ 00FF                     _ADCS1  equ     255
   264+                          	global	_ADDEN
   265+ 00C3                     _ADDEN  equ     195
   266+                          	global	_ADGO
   267+ 00FA                     _ADGO  equ     250
   268+                          	global	_ADIF
   269+ 0066                     _ADIF  equ     102
   270+                          	global	_ADON
   271+ 00F8                     _ADON  equ     248
   272                           	global	_BCLIF
   273  006B                     _BCLIF  equ     107
   274+                          	global	_CARRY
   275+ 0018                     _CARRY  equ     24
   276+                          	global	_CCP1IF
   277+ 0062                     _CCP1IF  equ     98
   278+                          	global	_CCP1M0
   279+ 00B8                     _CCP1M0  equ     184
   280+                          	global	_CCP1M1
   281+ 00B9                     _CCP1M1  equ     185
   282+                          	global	_CCP1M2
   283+ 00BA                     _CCP1M2  equ     186
   284                           	global	_CCP1M3
   285  00BB                     _CCP1M3  equ     187
   286+                          	global	_CCP1X
   287+ 00BD                     _CCP1X  equ     189
   288                           	global	_CCP1Y
   289  00BC                     _CCP1Y  equ     188
   290+                          	global	_CCP2IF
   291+ 0068                     _CCP2IF  equ     104
   292+                          	global	_CCP2M0
   293+ 00E8                     _CCP2M0  equ     232
   294+                          	global	_CCP2M1
   295+ 00E9                     _CCP2M1  equ     233
   296+                          	global	_CCP2M2
   297+ 00EA                     _CCP2M2  equ     234
   298+                          	global	_CCP2M3
   299+ 00EB                     _CCP2M3  equ     235
   300                           	global	_CCP2X
   301  00ED                     _CCP2X  equ     237
   302+                          	global	_CCP2Y
   303+ 00EC                     _CCP2Y  equ     236
   304+                          	global	_CHS0
   305+ 00FB                     _CHS0  equ     251
   306+                          	global	_CHS1
   307+ 00FC                     _CHS1  equ     252
   308+                          	global	_CHS2
   309+ 00FD                     _CHS2  equ     253
   310+                          	global	_CKP
   311+ 00A4                     _CKP  equ     164
   312                           	global	_CMIF
   313  006E                     _CMIF  equ     110
   314+                          	global	_CREN
   315+ 00C4                     _CREN  equ     196
   316                           	global	_DC
   317  0019                     _DC  equ     25
   318+                          	global	_EEIF
   319+ 006C                     _EEIF  equ     108
   320+                          	global	_FERR
   321+ 00C2                     _FERR  equ     194
   322+                          	global	_GIE
   323+ 005F                     _GIE  equ     95
   324+                          	global	_GODONE
   325+ 00FA                     _GODONE  equ     250
   326+                          	global	_INTE
   327+ 005C                     _INTE  equ     92
   328                           	global	_INTF
   329  0059                     _INTF  equ     89
   330+                          	global	_IRP
   331+ 001F                     _IRP  equ     31
   332+                          	global	_OERR
   333+ 00C1                     _OERR  equ     193
   334+                          	global	_PD
   335+ 001B                     _PD  equ     27
   336                           	global	_PEIE
   337  005E                     _PEIE  equ     94
   338+                          	global	_RA0
   339+ 0028                     _RA0  equ     40
   340                           	global	_RA1
   341  0029                     _RA1  equ     41
   342+                          	global	_RA2
   343+ 002A                     _RA2  equ     42
   344                           	global	_RA3
   345  002B                     _RA3  equ     43
   346+                          	global	_RA4
   347+ 002C                     _RA4  equ     44
   348+                          	global	_RA5
   349+ 002D                     _RA5  equ     45
   350+                          	global	_RB0
   351+ 0030                     _RB0  equ     48
   352+                          	global	_RB1
   353+ 0031                     _RB1  equ     49
   354+                          	global	_RB2
   355+ 0032                     _RB2  equ     50
   356                           	global	_RB3
   357  0033                     _RB3  equ     51
   358+                          	global	_RB4
   359+ 0034                     _RB4  equ     52
   360+                          	global	_RB5
   361+ 0035                     _RB5  equ     53
   362+                          	global	_RB6
   363+ 0036                     _RB6  equ     54
   364+                          	global	_RB7
   365+ 0037                     _RB7  equ     55
   366+                          	global	_RBIE
   367+ 005B                     _RBIE  equ     91
   368                           	global	_RBIF
   369  0058                     _RBIF  equ     88
   370+                          	global	_RC0
   371+ 0038                     _RC0  equ     56
   372                           	global	_RC1
   373  0039                     _RC1  equ     57
   374+                          	global	_RC2
   375+ 003A                     _RC2  equ     58
   376+                          	global	_RC3
   377+ 003B                     _RC3  equ     59
   378+                          	global	_RC4
   379+ 003C                     _RC4  equ     60
   380+                          	global	_RC5
   381+ 003D                     _RC5  equ     61
   382+                          	global	_RC6
   383+ 003E                     _RC6  equ     62
   384                           	global	_RC7
   385  003F                     _RC7  equ     63
   386+                          	global	_RCIF
   387+ 0065                     _RCIF  equ     101
   388                           	global	_RP0
   389  001D                     _RP0  equ     29
   390+                          	global	_RP1
   391+ 001E                     _RP1  equ     30
   392                           	global	_RX9
   393  00C6                     _RX9  equ     198
   394+                          	global	_RX9D
   395+ 00C0                     _RX9D  equ     192
   396+                          	global	_SPEN
   397+ 00C7                     _SPEN  equ     199
   398+                          	global	_SREN
   399+ 00C5                     _SREN  equ     197
   400+                          	global	_SSPEN
   401+ 00A5                     _SSPEN  equ     165
   402+                          	global	_SSPIF
   403+ 0063                     _SSPIF  equ     99
   404                           	global	_SSPM0
   405  00A0                     _SSPM0  equ     160
   406+                          	global	_SSPM1
   407+ 00A1                     _SSPM1  equ     161
   408+                          	global	_SSPM2
   409+ 00A2                     _SSPM2  equ     162
   410+                          	global	_SSPM3
   411+ 00A3                     _SSPM3  equ     163
   412+                          	global	_SSPOV
   413+ 00A6                     _SSPOV  equ     166
   414+                          	global	_T0IE
   415+ 005D                     _T0IE  equ     93
   416                           	global	_T0IF
   417  005A                     _T0IF  equ     90
   418+                          	global	_T1CKPS0
   419+ 0084                     _T1CKPS0  equ     132
   420                           	global	_T1CKPS1
   421  0085                     _T1CKPS1  equ     133
   422+                          	global	_T1OSCEN
   423+ 0083                     _T1OSCEN  equ     131
   424+                          	global	_T1SYNC
   425+ 0082                     _T1SYNC  equ     130
   426+                          	global	_T2CKPS0
   427+ 0090                     _T2CKPS0  equ     144
   428+                          	global	_T2CKPS1
   429+ 0091                     _T2CKPS1  equ     145
   430+                          	global	_TMR0IE
   431+ 005D                     _TMR0IE  equ     93
   432                           	global	_TMR0IF
   433  005A                     _TMR0IF  equ     90
   434+                          	global	_TMR1CS
   435+ 0081                     _TMR1CS  equ     129
   436+                          	global	_TMR1IF
   437+ 0060                     _TMR1IF  equ     96
   438+                          	global	_TMR1ON
   439+ 0080                     _TMR1ON  equ     128
   440+                          	global	_TMR2IF
   441+ 0061                     _TMR2IF  equ     97
   442+                          	global	_TMR2ON
   443+ 0092                     _TMR2ON  equ     146
   444                           	global	_TO
   445  001C                     _TO  equ     28
   446+                          	global	_TOUTPS0
   447+ 0093                     _TOUTPS0  equ     147
   448                           	global	_TOUTPS1
   449  0094                     _TOUTPS1  equ     148
   450+                          	global	_TOUTPS2
   451+ 0095                     _TOUTPS2  equ     149
   452+                          	global	_TOUTPS3
   453+ 0096                     _TOUTPS3  equ     150
   454+                          	global	_TXIF
   455+ 0064                     _TXIF  equ     100
   456+                          	global	_WCOL
   457+ 00A7                     _WCOL  equ     167
   458+                          	global	_ZERO
   459+ 001A                     _ZERO  equ     26
   460                           	global	_ADCON1
   461  009F                     _ADCON1  equ     159
   462                           	global	_ADRESL
   463  009E                     _ADRESL  equ     158
   464+                          	global	_CMCON
   465+ 009C                     _CMCON  equ     156
   466+                          	global	_CVRCON
   467+ 009D                     _CVRCON  equ     157
   468                           	global	_OPTION
   469  0081                     _OPTION  equ     129
   470+                          	global	_PCON
   471+ 008E                     _PCON  equ     142
   472                           	global	_PIE1
   473  008C                     _PIE1  equ     140
   474+                          	global	_PIE2
   475+ 008D                     _PIE2  equ     141
   476                           	global	_PR2
   477  0092                     _PR2  equ     146
   478+                          	global	_SPBRG
   479+ 0099                     _SPBRG  equ     153
   480+                          	global	_SSPADD
   481+ 0093                     _SSPADD  equ     147
   482+                          	global	_SSPCON2
   483+ 0091                     _SSPCON2  equ     145
   484+                          	global	_SSPSTAT
   485+ 0094                     _SSPSTAT  equ     148
   486+                          	global	_TRISA
   487+ 0085                     _TRISA  equ     133
   488                           	global	_TRISB
   489  0086                     _TRISB  equ     134
   490                           	global	_TRISC
   491  0087                     _TRISC  equ     135
   492+                          	global	_TXSTA
   493+ 0098                     _TXSTA  equ     152
   494+                          	global	_ACKDT
   495+ 048D                     _ACKDT  equ     1165
   496                           	global	_ACKEN
   497  048C                     _ACKEN  equ     1164
   498+                          	global	_ACKSTAT
   499+ 048E                     _ACKSTAT  equ     1166
   500                           	global	_ADCS2
   501  04FE                     _ADCS2  equ     1278
   502+                          	global	_ADFM
   503+ 04FF                     _ADFM  equ     1279
   504                           	global	_ADIE
   505  0466                     _ADIE  equ     1126
   506+                          	global	_BCLIE
   507+ 046B                     _BCLIE  equ     1131
   508+                          	global	_BF
   509+ 04A0                     _BF  equ     1184
   510+                          	global	_BOR
   511+ 0470                     _BOR  equ     1136
   512+                          	global	_BRGH
   513+ 04C2                     _BRGH  equ     1218
   514+                          	global	_C1INV
   515+ 04E4                     _C1INV  equ     1252
   516                           	global	_C1OUT
   517  04E6                     _C1OUT  equ     1254
   518                           	global	_C2INV
   519  04E5                     _C2INV  equ     1253
   520+                          	global	_C2OUT
   521+ 04E7                     _C2OUT  equ     1255
   522+                          	global	_CCP1IE
   523+ 0462                     _CCP1IE  equ     1122
   524+                          	global	_CCP2IE
   525+ 0468                     _CCP2IE  equ     1128
   526+                          	global	_CIS
   527+ 04E3                     _CIS  equ     1251
   528                           	global	_CKE
   529  04A6                     _CKE  equ     1190
   530+                          	global	_CM0
   531+ 04E0                     _CM0  equ     1248
   532                           	global	_CM1
   533  04E1                     _CM1  equ     1249
   534+                          	global	_CM2
   535+ 04E2                     _CM2  equ     1250
   536+                          	global	_CMIE
   537+ 046E                     _CMIE  equ     1134
   538+                          	global	_CSRC
   539+ 04C7                     _CSRC  equ     1223
   540+                          	global	_CVR0
   541+ 04E8                     _CVR0  equ     1256
   542+                          	global	_CVR1
   543+ 04E9                     _CVR1  equ     1257
   544                           	global	_CVR2
   545  04EA                     _CVR2  equ     1258
   546+                          	global	_CVR3
   547+ 04EB                     _CVR3  equ     1259
   548+                          	global	_CVREN
   549+ 04EF                     _CVREN  equ     1263
   550+                          	global	_CVROE
   551+ 04EE                     _CVROE  equ     1262
   552+                          	global	_CVRR
   553+ 04ED                     _CVRR  equ     1261
   554+                          	global	_DA
   555+ 04A5                     _DA  equ     1189
   556                           	global	_EEIE
   557  046C                     _EEIE  equ     1132
   558+                          	global	_GCEN
   559+ 048F                     _GCEN  equ     1167
   560                           	global	_INTEDG
   561  040E                     _INTEDG  equ     1038
   562+                          	global	_PCFG0
   563+ 04F8                     _PCFG0  equ     1272
   564+                          	global	_PCFG1
   565+ 04F9                     _PCFG1  equ     1273
   566+                          	global	_PCFG2
   567+ 04FA                     _PCFG2  equ     1274
   568+                          	global	_PCFG3
   569+ 04FB                     _PCFG3  equ     1275
   570+                          	global	_PEN
   571+ 048A                     _PEN  equ     1162
   572                           	global	_POR
   573  0471                     _POR  equ     1137
   574+                          	global	_PS0
   575+ 0408                     _PS0  equ     1032
   576+                          	global	_PS1
   577+ 0409                     _PS1  equ     1033
   578+                          	global	_PS2
   579+ 040A                     _PS2  equ     1034
   580+                          	global	_PSA
   581+ 040B                     _PSA  equ     1035
   582+                          	global	_RBPU
   583+ 040F                     _RBPU  equ     1039
   584                           	global	_RCEN
   585  048B                     _RCEN  equ     1163
   586                           	global	_RCIE
   587  0465                     _RCIE  equ     1125
   588                           	global	_RSEN
   589  0489                     _RSEN  equ     1161
   590                           	global	_RW
   591  04A2                     _RW  equ     1186
   592                           	global	_SEN
   593  0488                     _SEN  equ     1160
   594                           	global	_SMP
   595  04A7                     _SMP  equ     1191
   596                           	global	_SSPIE
   597  0463                     _SSPIE  equ     1123
   598                           	global	_START
   599  04A3                     _START  equ     1187
   600                           	global	_STOP
   601  04A4                     _STOP  equ     1188
   602                           	global	_SYNC
   603  04C4                     _SYNC  equ     1220
   604                           	global	_T0CS
   605  040D                     _T0CS  equ     1037
   606                           	global	_T0SE
   607  040C                     _T0SE  equ     1036
   608                           	global	_TMR1IE
   609  0460                     _TMR1IE  equ     1120
   610                           	global	_TMR2IE
   611  0461                     _TMR2IE  equ     1121
   612                           	global	_TRISA0
   613  0428                     _TRISA0  equ     1064
   614                           	global	_TRISA1
   615  0429                     _TRISA1  equ     1065
   616                           	global	_TRISA2
   617  042A                     _TRISA2  equ     1066
   618                           	global	_TRISA3
   619  042B                     _TRISA3  equ     1067
   620                           	global	_TRISA4
   621  042C                     _TRISA4  equ     1068
   622                           	global	_TRISA5
   623  042D                     _TRISA5  equ     1069
   624                           	global	_TRISB0
   625  0430                     _TRISB0  equ     1072
   626                           	global	_TRISB1
   627  0431                     _TRISB1  equ     1073
   628                           	global	_TRISB2
   629  0432                     _TRISB2  equ     1074
   630                           	global	_TRISB3
   631  0433                     _TRISB3  equ     1075
   632                           	global	_TRISB4
   633  0434                     _TRISB4  equ     1076
   634                           	global	_TRISB5
   635  0435                     _TRISB5  equ     1077
   636                           	global	_TRISB6
   637  0436                     _TRISB6  equ     1078
   638                           	global	_TRISB7
   639  0437                     _TRISB7  equ     1079
   640                           	global	_TRISC0
   641  0438                     _TRISC0  equ     1080
   642                           	global	_TRISC1
   643  0439                     _TRISC1  equ     1081
   644                           	global	_TRISC2
   645  043A                     _TRISC2  equ     1082
   646                           	global	_TRISC3
   647  043B                     _TRISC3  equ     1083
   648                           	global	_TRISC4
   649  043C                     _TRISC4  equ     1084
   650                           	global	_TRISC5
   651  043D                     _TRISC5  equ     1085
   652                           	global	_TRISC6
   653  043E                     _TRISC6  equ     1086
   654                           	global	_TRISC7
   655  043F                     _TRISC7  equ     1087
   656                           	global	_TRMT
   657  04C1                     _TRMT  equ     1217
   658                           	global	_TX9
   659  04C6                     _TX9  equ     1222
   660                           	global	_TX9D
   661  04C0                     _TX9D  equ     1216
   662                           	global	_TXEN
   663  04C5                     _TXEN  equ     1221
   664                           	global	_TXIE
   665  0464                     _TXIE  equ     1124
   666                           	global	_UA
   667  04A1                     _UA  equ     1185
   668                           	global	_EEADR
   669  010D                     _EEADR  equ     269
   670                           	global	_EEADRH
   671  010F                     _EEADRH  equ     271
   672                           	global	_EEADRL
   673  010D                     _EEADRL  equ     269
   674                           	global	_EEDATA
   675  010C                     _EEDATA  equ     268
   676                           	global	_EEDATH
   677  010E                     _EEDATH  equ     270
   678                           	global	_EECON1
   679  018C                     _EECON1  equ     396
   680                           	global	_EECON2
   681  018D                     _EECON2  equ     397
   682                           	global	_EEPGD
   683  0C67                     _EEPGD  equ     3175
   684                           	global	_RD
   685  0C60                     _RD  equ     3168
   686                           	global	_WR
   687  0C61                     _WR  equ     3169
   688                           	global	_WREN
   689  0C62                     _WREN  equ     3170
   690                           	global	_WRERR
   691  0C63                     _WRERR  equ     3171
   692                           	file	"UART T9.as"
   693                           	line	#
   694                           psect cinit,class=CODE,delta=2
   695                           global start_initialization
   696  02F7                     start_initialization:
   697                           
   698                           psect	bssCOMMON,class=COMMON,space=1
   699                           global __pbssCOMMON
   700  0075                     __pbssCOMMON:
   701  0075                     _c:
   702  0075                            ds      2
   703                           
   704  0077                     _scan_no:
   705  0077                            ds      2
   706                           
   707                           psect	dataCOMMON,class=COMMON,space=1
   708                           global __pdataCOMMON
   709  007B                     __pdataCOMMON:
   710                           	file	"D:\ABHISHEK JOSHI\PIC\UART\UART T9\UART T9.C"
   711                           	line	23
   712  007B                     _ds1:
   713  007B                            ds      1
   714                           
   715                           psect	bssBANK0,class=BANK0,space=1
   716                           global __pbssBANK0
   717  0055                     __pbssBANK0:
   718  0055                     _a:
   719  0055                            ds      2
   720                           
   721  0057                     _i:
   722  0057                            ds      2
   723                           
   724  0059                     _k:
   725  0059                            ds      2
   726                           
   727  005B                     _key_code:
   728  005B                            ds      2
   729                           
   730  005D                     _key_ready:
   731  005D                            ds      2
   732                           
   733  005F                     _nkp:
   734  005F                            ds      2
   735                           
   736  0061                     _start_buzzer:
   737  0061                            ds      2
   738                           
   739  0063                     _tb:
   740  0063                            ds      2
   741                           
   742  0065                     _cmd_data:
   743  0065                            ds      1
   744                           
   745  0066                     _disp_data:
   746  0066                            ds      1
   747                           
   748                           psect	dataBANK0,class=BANK0,space=1
   749                           global __pdataBANK0
   750  0020                     __pdataBANK0:
   751                           	file	"D:\ABHISHEK JOSHI\PIC\UART\UART T9\UART T9.C"
   752                           	line	22
   753  0020                     _ascii_tab:
   754  0020                            ds      25
   755                           
   756                           psect	dataBANK0
   757                           	file	"D:\ABHISHEK JOSHI\PIC\UART\UART T9\UART T9.C"
   758                           	line	21
   759  0039                     _disp:
   760  0039                            ds      25
   761                           
   762                           psect	dataBANK0
   763                           	file	"D:\ABHISHEK JOSHI\PIC\UART\UART T9\UART T9.C"
   764                           	line	23
   765  0052                     _ds2:
   766  0052                            ds      1
   767                           
   768                           psect	dataBANK0
   769                           	file	"D:\ABHISHEK JOSHI\PIC\UART\UART T9\UART T9.C"
   770                           	line	23
   771  0053                     _ds3:
   772  0053                            ds      1
   773                           
   774                           psect	dataBANK0
   775                           	file	"D:\ABHISHEK JOSHI\PIC\UART\UART T9\UART T9.C"
   776                           	line	23
   777  0054                     _ds4:
   778  0054                            ds      1
   779                           
   780                           psect	dataBANK1,class=BANK1,space=1
   781                           global __pdataBANK1
   782  00A0                     __pdataBANK1:
   783                           	file	"D:\ABHISHEK JOSHI\PIC\UART\UART T9\UART T9.C"
   784                           	line	20
   785  00A0                     _cnt:
   786  00A0                            ds      25
   787                           
   788                           psect clrtext,class=CODE,delta=2
   789                           global clear_ram
   790                           ;	Called with FSR containing the base address, and
   791                           ;	W with the last address+1
   792  0424                     clear_ram:
   793  0424  0064               	clrwdt			;clear the watchdog before getting into this loop
   794  0425                     clrloop:
   795  0425  0180               	clrf	indf		;clear RAM location pointed to by FSR
   796  0426  0A84               	incf	fsr,f		;increment pointer
   797  0427  0604               	xorwf	fsr,w		;XOR with final address
   798  0428  1903               	btfsc	status,2	;have we reached the end yet?
   799  0429  3400               	retlw	0		;all done for this memory range, return
   800  042A  0604               	xorwf	fsr,w		;XOR again to restore value
   801  042B  2C25               	goto	clrloop		;do the next byte
   802                           
   803                           ; Clear objects allocated to COMMON
   804                           psect cinit,class=CODE,delta=2
   805  02F7  01F5               	clrf	((__pbssCOMMON)+0)&07Fh
   806  02F8  01F6               	clrf	((__pbssCOMMON)+1)&07Fh
   807  02F9  01F7               	clrf	((__pbssCOMMON)+2)&07Fh
   808  02FA  01F8               	clrf	((__pbssCOMMON)+3)&07Fh
   809                           ; Clear objects allocated to BANK0
   810                           psect cinit,class=CODE,delta=2
   811  02FB  1383               	bcf	status, 7	;select IRP bank0
   812  02FC  3055               	movlw	low(__pbssBANK0)
   813  02FD  0084               	movwf	fsr
   814  02FE  3067               	movlw	low((__pbssBANK0)+012h)
   815  02FF  120A  118A  2424   	fcall	clear_ram
              120A  118A         
   816                           global btemp
   817                           psect inittext,class=CODE,delta=2
   818                           global init_fetch,btemp
   819                           ;	Called with low address in FSR and high address in W
   820  03BD                     init_fetch:
   821  03BD  087E               	movf btemp,w
   822  03BE  008A               	movwf pclath
   823  03BF  087F               	movf btemp+1,w
   824  03C0  0082               	movwf pc
   825                           global init_ram
   826                           ;Called with:
   827                           ;	high address of idata address in btemp 
   828                           ;	low address of idata address in btemp+1 
   829                           ;	low address of data in FSR
   830                           ;	high address + 1 of data in btemp-1
   831  03C1                     init_ram:
   832  03C1  23BD  120A  118A   	fcall init_fetch
   833  03C4  0080               	movwf indf,f
   834  03C5  0A84               	incf fsr,f
   835  03C6  0804               	movf fsr,w
   836  03C7  067D               	xorwf btemp-1,w
   837  03C8  1903               	btfsc status,2
   838  03C9  3400               	retlw 0
   839  03CA  0AFF               	incf btemp+1,f
   840  03CB  1903               	btfsc status,2
   841  03CC  0AFE               	incf btemp,f
   842  03CD  2BC1               	goto init_ram
   843                           ; Initialize objects allocated to COMMON
   844                           	global __pidataCOMMON
   845                           psect cinit,class=CODE,delta=2
   846  0304  120A  118A  242C   	fcall	__pidataCOMMON+0		;fetch initializer
              120A  118A         
   847  0309  00FB               	movwf	__pdataCOMMON+0&07fh		
   848                           ; Initialize objects allocated to BANK0
   849                           psect cinit,class=CODE,delta=2
   850                           global init_ram, __pidataBANK0
   851  030A  3055               	movlw low(__pdataBANK0+53)
   852  030B  00FD               	movwf btemp-1,f
   853  030C  3002               	movlw high(__pidataBANK0)
   854  030D  00FE               	movwf btemp,f
   855  030E  308E               	movlw low(__pidataBANK0)
   856  030F  00FF               	movwf btemp+1,f
   857  0310  3020               	movlw low(__pdataBANK0)
   858  0311  0084               	movwf fsr,f
   859  0312  120A  118A  23C1   	fcall init_ram
              120A  118A         
   860                           ; Initialize objects allocated to BANK1
   861                           psect cinit,class=CODE,delta=2
   862                           global init_ram, __pidataBANK1
   863  0317  30B9               	movlw low(__pdataBANK1+25)
   864  0318  00FD               	movwf btemp-1,f
   865  0319  3003               	movlw high(__pidataBANK1)
   866  031A  00FE               	movwf btemp,f
   867  031B  3092               	movlw low(__pidataBANK1)
   868  031C  00FF               	movwf btemp+1,f
   869  031D  30A0               	movlw low(__pdataBANK1)
   870  031E  0084               	movwf fsr,f
   871  031F  120A  118A  23C1   	fcall init_ram
              120A  118A         
   872                           psect cinit,class=CODE,delta=2
   873                           global end_of_initialization
   874                           
   875                           ;End of C runtime variable initationation code
   876                           
   877  0324                     end_of_initialization:
   878  0324  0183               clrf status
   879  0325  120A  118A  2A50   ljmp _main	;jump to C main() function
   880                           psect	cstackBANK1,class=BANK1,space=1
   881                           global __pcstackBANK1
   882  00B9                     __pcstackBANK1:
   883                           	global	?_scanner
   884  00B9                     ?_scanner: ;@ 0x0
   885                           	global	??_isr_t0
   886  00B9                     ??_isr_t0: ;@ 0x0
   887                           	global	?_k1
   888  00B9                     ?_k1: ;@ 0x0
   889  00B9                     	ds	4
   890                           	global	?_isr_t0
   891  00BD                     ?_isr_t0: ;@ 0x4
   892                           psect	cstackCOMMON,class=COMMON,space=1
   893                           global __pcstackCOMMON
   894  0070                     __pcstackCOMMON:
   895                           	global	??_init_keypad
   896  0070                     ??_init_keypad: ;@ 0x0
   897                           	global	?_init_keypad
   898  0070                     ?_init_keypad: ;@ 0x0
   899                           	global	??_tx
   900  0070                     ??_tx: ;@ 0x0
   901                           	global	??_init_timer
   902  0070                     ??_init_timer: ;@ 0x0
   903                           	global	?_init_timer
   904  0070                     ?_init_timer: ;@ 0x0
   905                           	global	??_init
   906  0070                     ??_init: ;@ 0x0
   907                           	global	??_key_release
   908  0070                     ??_key_release: ;@ 0x0
   909                           	global	?_key_release
   910  0070                     ?_key_release: ;@ 0x0
   911                           	global	??_uart_delay
   912  0070                     ??_uart_delay: ;@ 0x0
   913                           	global	?_init_uart
   914  0070                     ?_init_uart: ;@ 0x0
   915                           	global	?_init
   916  0070                     ?_init: ;@ 0x0
   917                           	global	??_init_uart
   918  0070                     ??_init_uart: ;@ 0x0
   919                           	global	tx@tx_data
   920  0070                     tx@tx_data:	; 1 bytes @ 0x0
   921  0070                     	ds	1
   922                           	global	?_tx
   923  0071                     ?_tx: ;@ 0x1
   924                           	global	??_uart_disp
   925  0071                     ??_uart_disp: ;@ 0x1
   926                           	global	??_main
   927  0071                     ??_main: ;@ 0x1
   928                           	global	??_home_screen
   929  0071                     ??_home_screen: ;@ 0x1
   930                           	global	uart_delay@i
   931  0071                     uart_delay@i:	; 2 bytes @ 0x1
   932  0071                     	ds	2
   933                           	global	uart_delay@j
   934  0073                     uart_delay@j:	; 2 bytes @ 0x3
   935  0073                     	ds	2
   936                           	global	?_uart_disp
   937  0075                     ?_uart_disp: ;@ 0x5
   938                           	global	?_main
   939  0075                     ?_main: ;@ 0x5
   940                           	global	?_home_screen
   941  0075                     ?_home_screen: ;@ 0x5
   942                           psect	cstackBANK0,class=BANK0,space=1
   943                           global __pcstackBANK0
   944  0067                     __pcstackBANK0:
   945                           	global	?_uart_delay
   946  0067                     ?_uart_delay: ;@ 0x0
   947                           	global	uart_delay@del
   948  0067                     uart_delay@del:	; 2 bytes @ 0x0
   949  0067                     	ds	2
   950                           	global	??i1_init_timer
   951  0069                     ??i1_init_timer: ;@ 0x2
   952                           	global	??_k1
   953  0069                     ??_k1: ;@ 0x2
   954                           	global	?i1_init_timer
   955  0069                     ?i1_init_timer: ;@ 0x2
   956                           	global	??_scanner
   957  0069                     ??_scanner: ;@ 0x2
   958                           	global	?_buzzer
   959  0069                     ?_buzzer: ;@ 0x2
   960                           	global	??_buzzer
   961  0069                     ??_buzzer: ;@ 0x2
   962  0069                     	ds	2
   963                           ;Data sizes: Strings 0, constant 0, data 79, bss 22, persistent 4 stack 0
   964                           ;Auto spaces:   Size  Autos    Used
   965                           ; COMMON          14      5      12
   966                           ; BANK0           80      4      77
   967                           ; BANK1           80      4      29
   968                           ; BANK3           96      0       0
   969                           ; BANK2           96      0       0
   970                           
   971                           
   972                           ;Pointer list with targets:
   973                           
   974                           
   975                           
   976                           ;Main: autosize = 0, tempsize = 0, incstack = 0, save=0
   977                           
   978                           
   979                           ;Call graph:                      Base Space Used Autos Args Refs Density
   980                           ;_main                                                0    0  140   0.00
   981                           ;          _init_uart
   982                           ;               _init
   983                           ;        _key_release
   984                           ;          _uart_disp
   985                           ;  _uart_disp                                         0    0  140   0.00
   986                           ;        _home_screen
   987                           ;                 _tx
   988                           ;  _key_release                                       0    0    0   0.00
   989                           ;  _init_uart                                         0    0    0   0.00
   990                           ;  _init                                              0    0    0   0.00
   991                           ;        _init_keypad
   992                           ;         _init_timer
   993                           ;    _home_screen                                     0    0  124   0.00
   994                           ;                 _tx
   995                           ;         _uart_delay
   996                           ;    _init_keypad                                     0    0    0   0.00
   997                           ;    _init_timer                                      0    0    0   0.00
   998                           ;      _uart_delay                                    5    2  108   0.00
   999                           ;                                    0 COMMO    5
  1000                           ;                                    0 BANK0    2
  1001                           ;      _tx                                            1    0   16   0.00
  1002                           ;                                    0 COMMO    1
  1003                           ; Estimated maximum call depth 3
  1004                           ;_isr_t0                                              4    0    0   0.00
  1005                           ;                                    0 BANK1    4
  1006                           ;       i1_init_timer
  1007                           ;             _buzzer
  1008                           ;            _scanner
  1009                           ;  _scanner                                           2    0    0   0.00
  1010                           ;                                    2 BANK0    2
  1011                           ;                 _k1
  1012                           ;  _buzzer                                            0    0    0   0.00
  1013                           ;  i1_init_timer                                      0    0    0   0.00
  1014                           ;    _k1                                              0    0    0   0.00
  1015                           ; Estimated maximum call depth 2
  1016                           ; Address spaces:
  1017                           
  1018                           ;Name               Size   Autos  Total    Cost      Usage
  1019                           ;BITCOMMON            E      0       0       0        0.0%
  1020                           ;CODE                 0      0       0       0        0.0%
  1021                           ;NULL                 0      0       0       0        0.0%
  1022                           ;COMMON               E      5       C       1       85.7%
  1023                           ;SFR0                 0      0       0       1        0.0%
  1024                           ;BITSFR0              0      0       0       1        0.0%
  1025                           ;BITSFR1              0      0       0       2        0.0%
  1026                           ;SFR1                 0      0       0       2        0.0%
  1027                           ;ABS                  0      0      76       2        0.0%
  1028                           ;STACK                0      0       0       3        0.0%
  1029                           ;BITBANK0            50      0       0       4        0.0%
  1030                           ;SFR3                 0      0       0       4        0.0%
  1031                           ;BITSFR3              0      0       0       4        0.0%
  1032                           ;BANK0               50      4      4D       5       96.3%
  1033                           ;BITSFR2              0      0       0       5        0.0%
  1034                           ;SFR2                 0      0       0       5        0.0%
  1035                           ;BITBANK1            50      0       0       6        0.0%
  1036                           ;BANK1               50      4      1D       7       36.3%
  1037                           ;BITBANK3            60      0       0       8        0.0%
  1038                           ;BANK3               60      0       0       9        0.0%
  1039                           ;BITBANK2            60      0       0      10        0.0%
  1040                           ;BANK2               60      0       0      11        0.0%
  1041                           ;DATA                 0      0      76      12        0.0%
  1042                           ;EEDATA             100      0       0    1000        0.0%
  1043                           
  1044                           	global	_main
  1045                           psect	maintext,local,class=CODE,delta=2
  1046                           global __pmaintext
  1047  0250                     __pmaintext:
  1048                           
  1049                           ; *************** function _main *****************
  1050                           ; Defined at:
  1051                           ;		line 55 in file "D:\ABHISHEK JOSHI\PIC\UART\UART T9\UART T9.C"
  1052                           ; Parameters:    Size  Location     Type
  1053                           ;		None
  1054                           ; Auto vars:     Size  Location     Type
  1055                           ;		None
  1056                           ; Return value:  Size  Location     Type
  1057                           ;		None               void
  1058                           ; Registers used:
  1059                           ;		wreg, fsr0l, fsr0h, status,2, status,0, pclath, cstack
  1060                           ; Tracked objects:
  1061                           ;		On entry : 17F/0
  1062                           ;		On exit  : 0/0
  1063                           ;		Unchanged: 0/0
  1064                           ; Data sizes:     COMMON   BANK0   BANK1   BANK3   BANK2
  1065                           ;      Locals:         0       0       0       0       0
  1066                           ;      Temp:     0
  1067                           ;      Total:    0
  1068                           ; This function calls:
  1069                           ;		_init_uart
  1070                           ;		_init
  1071                           ;		_key_release
  1072                           ;		_uart_disp
  1073                           ; This function is called by:
  1074                           ;		Startup code after reset
  1075                           ; This function uses a non-reentrant model
  1076                           ; 
  1077                           psect	maintext
  1078                           	file	"D:\ABHISHEK JOSHI\PIC\UART\UART T9\UART T9.C"
  1079                           	line	55
  1080                           	global	__size_of_main
  1081  003E                     	__size_of_main	equ	__end_of_main-_main
  1082                           ;UART T9.C: 54: void main()
  1083                           ;UART T9.C: 55: {
  1084                           	
  1085  0250                     _main:	
  1086                           	opt stack 5
  1087                           ; Regs used in _main: [wreg-fsr0h+status,2+status,0+pclath+cstack]
  1088                           	line	56
  1089                           	
  1090  0250                     l30000605:	
  1091                           ;UART T9.C: 56: TRISB=0x00;
  1092  0250  1003               	clrc
  1093  0251  3000               	movlw	0
  1094  0252  1803               	btfsc	status,0
  1095  0253  3001               	movlw	1
  1096  0254  1683               	bsf	status, 5	;RP0=1, select bank1
  1097  0255  1303               	bcf	status, 6	;RP1=0, select bank1
  1098  0256  0086               	movwf	(134)^080h	;volatile
  1099                           	
  1100  0257                     l30000606:	
  1101                           	line	57
  1102                           ;UART T9.C: 57: TRISA=0x3C;
  1103  0257  303C               	movlw	(03Ch)
  1104  0258  0085               	movwf	(133)^080h	;volatile
  1105                           	
  1106  0259                     l30000607:	
  1107                           	line	58
  1108                           ;UART T9.C: 58: TRISC=0xC0;
  1109  0259  30C0               	movlw	(0C0h)
  1110  025A  0087               	movwf	(135)^080h	;volatile
  1111                           	
  1112  025B                     l30000608:	
  1113                           	line	59
  1114                           ;UART T9.C: 59: ADCON1=0x06;
  1115  025B  3006               	movlw	(06h)
  1116  025C  009F               	movwf	(159)^080h	;volatile
  1117                           	
  1118  025D                     l30000609:	
  1119                           	line	60
  1120                           ;UART T9.C: 60: init_uart();
  1121  025D  120A  118A  241A   	fcall	_init_uart
              120A  118A         
  1122                           	
  1123  0262                     l30000610:	
  1124                           	line	61
  1125                           ;UART T9.C: 61: init();
  1126  0262  120A  118A  240F   	fcall	_init
              120A  118A         
  1127                           	
  1128  0267                     l30000611:	
  1129                           	line	62
  1130                           ;UART T9.C: 62: GIE=1;
  1131  0267  1283               	bcf	status, 5	;RP0=0, select bank0
  1132  0268  1303               	bcf	status, 6	;RP1=0, select bank0
  1133  0269  178B               	bsf	(95/8),(95)&7
  1134                           	
  1135  026A                     l30000612:	
  1136                           	line	63
  1137                           ;UART T9.C: 63: PEIE=1;
  1138  026A  170B               	bsf	(94/8),(94)&7
  1139                           	
  1140  026B                     l30000613:	
  1141                           	line	74
  1142  026B  3001               	movlw	01h
  1143  026C  1283               	bcf	status, 5	;RP0=0, select bank0
  1144  026D  1303               	bcf	status, 6	;RP1=0, select bank0
  1145  026E  065D               	xorwf	(_key_ready),w
  1146  026F  045E               	iorwf	(_key_ready+1),w
  1147  0270  1D03               	skipz
  1148  0271  2A73               	goto	u291
  1149  0272  2A74               	goto	u290
  1150  0273                     u291:
  1151  0273  2A6B               	goto	l30000613
  1152  0274                     u290:
  1153                           	
  1154  0274                     l30000614:	
  1155                           	line	75
  1156                           ;UART T9.C: 75: a=key_code;
  1157  0274  085C               	movf	(_key_code+1),w
  1158  0275  01D6               	clrf	(_a+1)
  1159  0276  07D6               	addwf	(_a+1)
  1160  0277  085B               	movf	(_key_code),w
  1161  0278  01D5               	clrf	(_a)
  1162  0279  07D5               	addwf	(_a)
  1163                           
  1164                           	
  1165  027A                     l30000615:	
  1166                           	line	76
  1167                           ;UART T9.C: 76: ds1=ascii_tab[a];
  1168  027A  0855               	movf	(_a),w
  1169  027B  3E20               	addlw	(_ascii_tab)&0ffh
  1170  027C  0084               	movwf	fsr0
  1171  027D  1383               	bcf	status, 7	;select IRP bank0
  1172  027E  0800               	movf	indf,w
  1173  027F  00FB               	movwf	(_ds1)
  1174                           	
  1175  0280                     l30000616:	
  1176                           	line	77
  1177                           ;UART T9.C: 77: key_release();
  1178  0280  120A  118A  23AB   	fcall	_key_release
              120A  118A         
  1179                           	
  1180  0285                     l30000617:	
  1181                           	line	78
  1182                           ;UART T9.C: 78: uart_disp();
  1183  0285  120A  118A  23EC   	fcall	_uart_disp
              120A  118A         
  1184  028A  2A6B               	goto	l30000613
  1185                           	global	start
  1186  028B  120A  118A  2812   	ljmp	start
  1187                           	opt stack 0
  1188                           GLOBAL	__end_of_main
  1189  028E                     	__end_of_main:
  1190                           ; =============== function _main ends ============
  1191                           
  1192                           psect	maintext
  1193                           	line	80
  1194                           	signat	_main,88
  1195                           	global	_uart_disp
  1196                           psect	text107,local,class=CODE,delta=2
  1197                           global __ptext107
  1198  03EC                     __ptext107:
  1199                           
  1200                           ; *************** function _uart_disp *****************
  1201                           ; Defined at:
  1202                           ;		line 352 in file "D:\ABHISHEK JOSHI\PIC\UART\UART T9\UART T9.C"
  1203                           ; Parameters:    Size  Location     Type
  1204                           ;		None
  1205                           ; Auto vars:     Size  Location     Type
  1206                           ;		None
  1207                           ; Return value:  Size  Location     Type
  1208                           ;		None               void
  1209                           ; Registers used:
  1210                           ;		wreg, status,2, status,0, pclath, cstack
  1211                           ; Tracked objects:
  1212                           ;		On entry : 0/0
  1213                           ;		On exit  : 0/0
  1214                           ;		Unchanged: 0/0
  1215                           ; Data sizes:     COMMON   BANK0   BANK1   BANK3   BANK2
  1216                           ;      Locals:         0       0       0       0       0
  1217                           ;      Temp:     0
  1218                           ;      Total:    0
  1219                           ; This function calls:
  1220                           ;		_home_screen
  1221                           ;		_tx
  1222                           ; This function is called by:
  1223                           ;		_main
  1224                           ; This function uses a non-reentrant model
  1225                           ; 
  1226                           psect	text107
  1227                           	file	"D:\ABHISHEK JOSHI\PIC\UART\UART T9\UART T9.C"
  1228                           	line	352
  1229                           	global	__size_of_uart_disp
  1230  000C                     	__size_of_uart_disp	equ	__end_of_uart_disp-_uart_disp
  1231                           ;UART T9.C: 351: void uart_disp()
  1232                           ;UART T9.C: 352: {
  1233                           	
  1234  03EC                     _uart_disp:	
  1235                           	opt stack 4
  1236                           ; Regs used in _uart_disp: [wreg+status,2+status,0+pclath+cstack]
  1237                           	line	354
  1238                           	
  1239  03EC                     l30000604:	
  1240                           ;UART T9.C: 354: home_screen();
  1241  03EC  120A  118A  22C3   	fcall	_home_screen
              120A  118A         
  1242                           	line	355
  1243                           ;UART T9.C: 355: tx(ds1);
  1244  03F1  087B               	movf	(_ds1),w
  1245  03F2  120A  118A  2404   	fcall	_tx
              120A  118A         
  1246                           	
  1247  03F7                     l64:	
  1248  03F7  0008               	return
  1249                           	opt stack 0
  1250                           GLOBAL	__end_of_uart_disp
  1251  03F8                     	__end_of_uart_disp:
  1252                           ; =============== function _uart_disp ends ============
  1253                           
  1254                           psect	text108,local,class=CODE,delta=2
  1255                           global __ptext108
  1256  03AB                     __ptext108:
  1257                           	line	357
  1258                           	signat	_uart_disp,88
  1259                           	global	_key_release
  1260                           
  1261                           ; *************** function _key_release *****************
  1262                           ; Defined at:
  1263                           ;		line 339 in file "D:\ABHISHEK JOSHI\PIC\UART\UART T9\UART T9.C"
  1264                           ; Parameters:    Size  Location     Type
  1265                           ;		None
  1266                           ; Auto vars:     Size  Location     Type
  1267                           ;		None
  1268                           ; Return value:  Size  Location     Type
  1269                           ;		None               void
  1270                           ; Registers used:
  1271                           ;		wreg
  1272                           ; Tracked objects:
  1273                           ;		On entry : 0/0
  1274                           ;		On exit  : 0/0
  1275                           ;		Unchanged: 0/0
  1276                           ; Data sizes:     COMMON   BANK0   BANK1   BANK3   BANK2
  1277                           ;      Locals:         0       0       0       0       0
  1278                           ;      Temp:     0
  1279                           ;      Total:    0
  1280                           ; This function calls:
  1281                           ;		Nothing
  1282                           ; This function is called by:
  1283                           ;		_main
  1284                           ; This function uses a non-reentrant model
  1285                           ; 
  1286                           psect	text108
  1287                           	file	"D:\ABHISHEK JOSHI\PIC\UART\UART T9\UART T9.C"
  1288                           	line	339
  1289                           	global	__size_of_key_release
  1290  0012                     	__size_of_key_release	equ	__end_of_key_release-_key_release
  1291                           ;UART T9.C: 338: void key_release()
  1292                           ;UART T9.C: 339: {
  1293                           	
  1294  03AB                     _key_release:	
  1295                           	opt stack 4
  1296                           ; Regs used in _key_release: [wreg]
  1297                           	
  1298  03AB                     l30000562:	
  1299                           	
  1300  03AB                     l30000563:	
  1301                           	line	340
  1302  03AB  3001               	movlw	01h
  1303  03AC  1283               	bcf	status, 5	;RP0=0, select bank0
  1304  03AD  1303               	bcf	status, 6	;RP1=0, select bank0
  1305  03AE  065F               	xorwf	(_nkp),w
  1306  03AF  0460               	iorwf	(_nkp+1),w
  1307  03B0  1D03               	skipz
  1308  03B1  2BB3               	goto	u151
  1309  03B2  2BB4               	goto	u150
  1310  03B3                     u151:
  1311  03B3  2BAB               	goto	l30000563
  1312  03B4                     u150:
  1313                           	
  1314  03B4                     l30000564:	
  1315                           	line	341
  1316                           ;UART T9.C: 341: key_ready=0;
  1317  03B4  3000               	movlw	low(0)
  1318  03B5  00DD               	movwf	(_key_ready)
  1319  03B6  3000               	movlw	high(0)
  1320  03B7  00DE               	movwf	((_key_ready))+1
  1321                           	line	342
  1322                           ;UART T9.C: 342: nkp=0;
  1323  03B8  3000               	movlw	low(0)
  1324  03B9  00DF               	movwf	(_nkp)
  1325  03BA  3000               	movlw	high(0)
  1326  03BB  00E0               	movwf	((_nkp))+1
  1327                           	
  1328  03BC                     l58:	
  1329  03BC  0008               	return
  1330                           	opt stack 0
  1331                           GLOBAL	__end_of_key_release
  1332  03BD                     	__end_of_key_release:
  1333                           ; =============== function _key_release ends ============
  1334                           
  1335                           psect	text109,local,class=CODE,delta=2
  1336                           global __ptext109
  1337  041A                     __ptext109:
  1338                           	line	343
  1339                           	signat	_key_release,88
  1340                           	global	_init_uart
  1341                           
  1342                           ; *************** function _init_uart *****************
  1343                           ; Defined at:
  1344                           ;		line 360 in file "D:\ABHISHEK JOSHI\PIC\UART\UART T9\UART T9.C"
  1345                           ; Parameters:    Size  Location     Type
  1346                           ;		None
  1347                           ; Auto vars:     Size  Location     Type
  1348                           ;		None
  1349                           ; Return value:  Size  Location     Type
  1350                           ;		None               void
  1351                           ; Registers used:
  1352                           ;		wreg
  1353                           ; Tracked objects:
  1354                           ;		On entry : 0/0
  1355                           ;		On exit  : 0/0
  1356                           ;		Unchanged: 0/0
  1357                           ; Data sizes:     COMMON   BANK0   BANK1   BANK3   BANK2
  1358                           ;      Locals:         0       0       0       0       0
  1359                           ;      Temp:     0
  1360                           ;      Total:    0
  1361                           ; This function calls:
  1362                           ;		Nothing
  1363                           ; This function is called by:
  1364                           ;		_main
  1365                           ; This function uses a non-reentrant model
  1366                           ; 
  1367                           psect	text109
  1368                           	file	"D:\ABHISHEK JOSHI\PIC\UART\UART T9\UART T9.C"
  1369                           	line	360
  1370                           	global	__size_of_init_uart
  1371  000A                     	__size_of_init_uart	equ	__end_of_init_uart-_init_uart
  1372                           ;UART T9.C: 359: void init_uart()
  1373                           ;UART T9.C: 360: {
  1374                           	
  1375  041A                     _init_uart:	
  1376                           	opt stack 4
  1377                           ; Regs used in _init_uart: [wreg]
  1378                           	line	361
  1379                           	
  1380  041A                     l30000565:	
  1381                           ;UART T9.C: 361: TXSTA=0x24;
  1382  041A  3024               	movlw	(024h)
  1383  041B  1683               	bsf	status, 5	;RP0=1, select bank1
  1384  041C  1303               	bcf	status, 6	;RP1=0, select bank1
  1385  041D  0098               	movwf	(152)^080h	;volatile
  1386                           	line	362
  1387                           ;UART T9.C: 362: SPBRG=25;
  1388  041E  3019               	movlw	(019h)
  1389  041F  0099               	movwf	(153)^080h	;volatile
  1390                           	
  1391  0420                     l30000566:	
  1392                           	line	363
  1393                           ;UART T9.C: 363: SPEN=1;
  1394  0420  1283               	bcf	status, 5	;RP0=0, select bank0
  1395  0421  1303               	bcf	status, 6	;RP1=0, select bank0
  1396  0422  1798               	bsf	(199/8),(199)&7
  1397                           	
  1398  0423                     l65:	
  1399  0423  0008               	return
  1400                           	opt stack 0
  1401                           GLOBAL	__end_of_init_uart
  1402  0424                     	__end_of_init_uart:
  1403                           ; =============== function _init_uart ends ============
  1404                           
  1405                           psect	text110,local,class=CODE,delta=2
  1406                           global __ptext110
  1407  040F                     __ptext110:
  1408                           	line	364
  1409                           	signat	_init_uart,88
  1410                           	global	_init
  1411                           
  1412                           ; *************** function _init *****************
  1413                           ; Defined at:
  1414                           ;		line 83 in file "D:\ABHISHEK JOSHI\PIC\UART\UART T9\UART T9.C"
  1415                           ; Parameters:    Size  Location     Type
  1416                           ;		None
  1417                           ; Auto vars:     Size  Location     Type
  1418                           ;		None
  1419                           ; Return value:  Size  Location     Type
  1420                           ;		None               void
  1421                           ; Registers used:
  1422                           ;		wreg, status,2, status,0, pclath, cstack
  1423                           ; Tracked objects:
  1424                           ;		On entry : 0/0
  1425                           ;		On exit  : 0/0
  1426                           ;		Unchanged: 0/0
  1427                           ; Data sizes:     COMMON   BANK0   BANK1   BANK3   BANK2
  1428                           ;      Locals:         0       0       0       0       0
  1429                           ;      Temp:     0
  1430                           ;      Total:    0
  1431                           ; This function calls:
  1432                           ;		_init_keypad
  1433                           ;		_init_timer
  1434                           ; This function is called by:
  1435                           ;		_main
  1436                           ; This function uses a non-reentrant model
  1437                           ; 
  1438                           psect	text110
  1439                           	file	"D:\ABHISHEK JOSHI\PIC\UART\UART T9\UART T9.C"
  1440                           	line	83
  1441                           	global	__size_of_init
  1442  000B                     	__size_of_init	equ	__end_of_init-_init
  1443                           ;UART T9.C: 82: void init()
  1444                           ;UART T9.C: 83: {
  1445                           	
  1446  040F                     _init:	
  1447                           	opt stack 4
  1448                           ; Regs used in _init: [wreg+status,2+status,0+pclath+cstack]
  1449                           	line	85
  1450                           	
  1451  040F                     l30000567:	
  1452                           ;UART T9.C: 85: init_keypad();
  1453  040F  120A  118A  2357   	fcall	_init_keypad
              120A  118A         
  1454                           	line	86
  1455                           ;UART T9.C: 86: init_timer();
  1456  0414  120A  118A  23CE   	fcall	_init_timer
              120A  118A         
  1457                           	
  1458  0419                     l10:	
  1459  0419  0008               	return
  1460                           	opt stack 0
  1461                           GLOBAL	__end_of_init
  1462  041A                     	__end_of_init:
  1463                           ; =============== function _init ends ============
  1464                           
  1465                           psect	text111,local,class=CODE,delta=2
  1466                           global __ptext111
  1467  02C3                     __ptext111:
  1468                           	line	87
  1469                           	signat	_init,88
  1470                           	global	_home_screen
  1471                           
  1472                           ; *************** function _home_screen *****************
  1473                           ; Defined at:
  1474                           ;		line 379 in file "D:\ABHISHEK JOSHI\PIC\UART\UART T9\UART T9.C"
  1475                           ; Parameters:    Size  Location     Type
  1476                           ;		None
  1477                           ; Auto vars:     Size  Location     Type
  1478                           ;		None
  1479                           ; Return value:  Size  Location     Type
  1480                           ;		None               void
  1481                           ; Registers used:
  1482                           ;		wreg, status,2, status,0, pclath, cstack
  1483                           ; Tracked objects:
  1484                           ;		On entry : 0/0
  1485                           ;		On exit  : 0/0
  1486                           ;		Unchanged: 0/0
  1487                           ; Data sizes:     COMMON   BANK0   BANK1   BANK3   BANK2
  1488                           ;      Locals:         0       0       0       0       0
  1489                           ;      Temp:     0
  1490                           ;      Total:    0
  1491                           ; This function calls:
  1492                           ;		_tx
  1493                           ;		_uart_delay
  1494                           ; This function is called by:
  1495                           ;		_uart_disp
  1496                           ; This function uses a non-reentrant model
  1497                           ; 
  1498                           psect	text111
  1499                           	file	"D:\ABHISHEK JOSHI\PIC\UART\UART T9\UART T9.C"
  1500                           	line	379
  1501                           	global	__size_of_home_screen
  1502  0034                     	__size_of_home_screen	equ	__end_of_home_screen-_home_screen
  1503                           ;UART T9.C: 378: void home_screen()
  1504                           ;UART T9.C: 379: {
  1505                           	
  1506  02C3                     _home_screen:	
  1507                           	opt stack 3
  1508                           ; Regs used in _home_screen: [wreg+status,2+status,0+pclath+cstack]
  1509                           	line	380
  1510                           	
  1511  02C3                     l30000603:	
  1512                           ;UART T9.C: 380: tx(0x1b);
  1513  02C3  301B               	movlw	(01Bh)
  1514  02C4  120A  118A  2404   	fcall	_tx
              120A  118A         
  1515                           	line	381
  1516                           ;UART T9.C: 381: uart_delay(1);
  1517  02C9  3001               	movlw	low(01h)
  1518  02CA  1283               	bcf	status, 5	;RP0=0, select bank0
  1519  02CB  1303               	bcf	status, 6	;RP1=0, select bank0
  1520  02CC  00E7               	movwf	(?_uart_delay)
  1521  02CD  3000               	movlw	high(01h)
  1522  02CE  00E8               	movwf	((?_uart_delay))+1
  1523  02CF  120A  118A  2328   	fcall	_uart_delay
              120A  118A         
  1524                           	line	382
  1525                           ;UART T9.C: 382: tx('[');
  1526  02D4  305B               	movlw	(05Bh)
  1527  02D5  120A  118A  2404   	fcall	_tx
              120A  118A         
  1528                           	line	383
  1529                           ;UART T9.C: 383: uart_delay(1);
  1530  02DA  3001               	movlw	low(01h)
  1531  02DB  1283               	bcf	status, 5	;RP0=0, select bank0
  1532  02DC  1303               	bcf	status, 6	;RP1=0, select bank0
  1533  02DD  00E7               	movwf	(?_uart_delay)
  1534  02DE  3000               	movlw	high(01h)
  1535  02DF  00E8               	movwf	((?_uart_delay))+1
  1536  02E0  120A  118A  2328   	fcall	_uart_delay
              120A  118A         
  1537                           	line	384
  1538                           ;UART T9.C: 384: tx('H');
  1539  02E5  3048               	movlw	(048h)
  1540  02E6  120A  118A  2404   	fcall	_tx
              120A  118A         
  1541                           	line	385
  1542                           ;UART T9.C: 385: uart_delay(1);
  1543  02EB  3001               	movlw	low(01h)
  1544  02EC  1283               	bcf	status, 5	;RP0=0, select bank0
  1545  02ED  1303               	bcf	status, 6	;RP1=0, select bank0
  1546  02EE  00E7               	movwf	(?_uart_delay)
  1547  02EF  3000               	movlw	high(01h)
  1548  02F0  00E8               	movwf	((?_uart_delay))+1
  1549  02F1  120A  118A  2328   	fcall	_uart_delay
              120A  118A         
  1550                           	
  1551  02F6                     l67:	
  1552  02F6  0008               	return
  1553                           	opt stack 0
  1554                           GLOBAL	__end_of_home_screen
  1555  02F7                     	__end_of_home_screen:
  1556                           ; =============== function _home_screen ends ============
  1557                           
  1558                           psect	text112,local,class=CODE,delta=2
  1559                           global __ptext112
  1560  0357                     __ptext112:
  1561                           	line	386
  1562                           	signat	_home_screen,88
  1563                           	global	_init_keypad
  1564                           
  1565                           ; *************** function _init_keypad *****************
  1566                           ; Defined at:
  1567                           ;		line 107 in file "D:\ABHISHEK JOSHI\PIC\UART\UART T9\UART T9.C"
  1568                           ; Parameters:    Size  Location     Type
  1569                           ;		None
  1570                           ; Auto vars:     Size  Location     Type
  1571                           ;		None
  1572                           ; Return value:  Size  Location     Type
  1573                           ;		None               void
  1574                           ; Registers used:
  1575                           ;		wreg
  1576                           ; Tracked objects:
  1577                           ;		On entry : 0/0
  1578                           ;		On exit  : 0/0
  1579                           ;		Unchanged: 0/0
  1580                           ; Data sizes:     COMMON   BANK0   BANK1   BANK3   BANK2
  1581                           ;      Locals:         0       0       0       0       0
  1582                           ;      Temp:     0
  1583                           ;      Total:    0
  1584                           ; This function calls:
  1585                           ;		Nothing
  1586                           ; This function is called by:
  1587                           ;		_init
  1588                           ; This function uses a non-reentrant model
  1589                           ; 
  1590                           psect	text112
  1591                           	file	"D:\ABHISHEK JOSHI\PIC\UART\UART T9\UART T9.C"
  1592                           	line	107
  1593                           	global	__size_of_init_keypad
  1594  001F                     	__size_of_init_keypad	equ	__end_of_init_keypad-_init_keypad
  1595                           ;UART T9.C: 106: void init_keypad()
  1596                           ;UART T9.C: 107: {
  1597                           	
  1598  0357                     _init_keypad:	
  1599                           	opt stack 3
  1600                           ; Regs used in _init_keypad: [wreg]
  1601                           	line	108
  1602                           	
  1603  0357                     l30000569:	
  1604                           ;UART T9.C: 108: RA2=1;
  1605  0357  1283               	bcf	status, 5	;RP0=0, select bank0
  1606  0358  1303               	bcf	status, 6	;RP1=0, select bank0
  1607  0359  1505               	bsf	(42/8),(42)&7
  1608                           	line	109
  1609                           ;UART T9.C: 109: RA3=1;
  1610  035A  1585               	bsf	(43/8),(43)&7
  1611                           	line	110
  1612                           ;UART T9.C: 110: RA4=1;
  1613  035B  1605               	bsf	(44/8),(44)&7
  1614                           	line	111
  1615                           ;UART T9.C: 111: RA5=1;
  1616  035C  1685               	bsf	(45/8),(45)&7
  1617                           	
  1618  035D                     l30000570:	
  1619                           	line	112
  1620                           ;UART T9.C: 112: scan_no=0;
  1621  035D  3000               	movlw	low(0)
  1622  035E  00F7               	movwf	(_scan_no)
  1623  035F  3000               	movlw	high(0)
  1624  0360  00F8               	movwf	((_scan_no))+1
  1625                           	line	113
  1626                           ;UART T9.C: 113: dcount=33;
  1627  0361  3021               	movlw	low(021h)
  1628  0362  00F9               	movwf	(_dcount)
  1629  0363  3000               	movlw	high(021h)
  1630  0364  00FA               	movwf	((_dcount))+1
  1631                           	line	114
  1632                           ;UART T9.C: 114: krcount=32;
  1633  0365  3020               	movlw	low(020h)
  1634  0366  00EB               	movwf	(_krcount)
  1635  0367  3000               	movlw	high(020h)
  1636  0368  00EC               	movwf	((_krcount))+1
  1637                           	line	115
  1638                           ;UART T9.C: 115: key_ready=0;
  1639  0369  3000               	movlw	low(0)
  1640  036A  00DD               	movwf	(_key_ready)
  1641  036B  3000               	movlw	high(0)
  1642  036C  00DE               	movwf	((_key_ready))+1
  1643                           	line	116
  1644                           ;UART T9.C: 116: nkp=0;
  1645  036D  3000               	movlw	low(0)
  1646  036E  00DF               	movwf	(_nkp)
  1647  036F  3000               	movlw	high(0)
  1648  0370  00E0               	movwf	((_nkp))+1
  1649                           	line	117
  1650                           ;UART T9.C: 117: start_buzzer=0;
  1651  0371  3000               	movlw	low(0)
  1652  0372  00E1               	movwf	(_start_buzzer)
  1653  0373  3000               	movlw	high(0)
  1654  0374  00E2               	movwf	((_start_buzzer))+1
  1655                           	
  1656  0375                     l13:	
  1657  0375  0008               	return
  1658                           	opt stack 0
  1659                           GLOBAL	__end_of_init_keypad
  1660  0376                     	__end_of_init_keypad:
  1661                           ; =============== function _init_keypad ends ============
  1662                           
  1663                           psect	text113,local,class=CODE,delta=2
  1664                           global __ptext113
  1665  03CE                     __ptext113:
  1666                           	line	118
  1667                           	signat	_init_keypad,88
  1668                           	global	_init_timer
  1669                           
  1670                           ; *************** function _init_timer *****************
  1671                           ; Defined at:
  1672                           ;		line 90 in file "D:\ABHISHEK JOSHI\PIC\UART\UART T9\UART T9.C"
  1673                           ; Parameters:    Size  Location     Type
  1674                           ;		None
  1675                           ; Auto vars:     Size  Location     Type
  1676                           ;		None
  1677                           ; Return value:  Size  Location     Type
  1678                           ;		None               void
  1679                           ; Registers used:
  1680                           ;		wreg
  1681                           ; Tracked objects:
  1682                           ;		On entry : 0/0
  1683                           ;		On exit  : 0/0
  1684                           ;		Unchanged: 0/0
  1685                           ; Data sizes:     COMMON   BANK0   BANK1   BANK3   BANK2
  1686                           ;      Locals:         0       0       0       0       0
  1687                           ;      Temp:     0
  1688                           ;      Total:    0
  1689                           ; This function calls:
  1690                           ;		Nothing
  1691                           ; This function is called by:
  1692                           ;		_init
  1693                           ; This function uses a non-reentrant model
  1694                           ; 
  1695                           psect	text113
  1696                           	file	"D:\ABHISHEK JOSHI\PIC\UART\UART T9\UART T9.C"
  1697                           	line	90
  1698                           	global	__size_of_init_timer
  1699  000F                     	__size_of_init_timer	equ	__end_of_init_timer-_init_timer
  1700                           ;UART T9.C: 89: void init_timer()
  1701                           ;UART T9.C: 90: {
  1702                           	
  1703  03CE                     _init_timer:	
  1704                           	opt stack 3
  1705                           ; Regs used in _init_timer: [wreg]
  1706                           	line	91
  1707                           	
  1708  03CE                     l30000571:	
  1709                           ;UART T9.C: 91: TMR1H=0xFC;
  1710  03CE  30FC               	movlw	(0FCh)
  1711  03CF  1283               	bcf	status, 5	;RP0=0, select bank0
  1712  03D0  1303               	bcf	status, 6	;RP1=0, select bank0
  1713  03D1  008F               	movwf	(15)	;volatile
  1714                           	line	92
  1715                           ;UART T9.C: 92: TMR1L=0x18;
  1716  03D2  3018               	movlw	(018h)
  1717  03D3  008E               	movwf	(14)	;volatile
  1718                           	line	93
  1719                           ;UART T9.C: 93: T1CON=0x01;
  1720  03D4  3001               	movlw	(01h)
  1721  03D5  0090               	movwf	(16)	;volatile
  1722                           	
  1723  03D6                     l30000572:	
  1724                           	line	94
  1725                           ;UART T9.C: 94: TMR1IE=1;
  1726  03D6  1683               	bsf	status, 5	;RP0=1, select bank1
  1727  03D7  1303               	bcf	status, 6	;RP1=0, select bank1
  1728  03D8  140C               	bsf	(1120/8)^080h,(1120)&7
  1729                           	
  1730  03D9                     l30000573:	
  1731                           	line	95
  1732                           ;UART T9.C: 95: TMR1IF=0;
  1733  03D9  1283               	bcf	status, 5	;RP0=0, select bank0
  1734  03DA  1303               	bcf	status, 6	;RP1=0, select bank0
  1735  03DB  100C               	bcf	(96/8),(96)&7
  1736                           	
  1737  03DC                     l11:	
  1738  03DC  0008               	return
  1739                           	opt stack 0
  1740                           GLOBAL	__end_of_init_timer
  1741  03DD                     	__end_of_init_timer:
  1742                           ; =============== function _init_timer ends ============
  1743                           
  1744                           psect	text114,local,class=CODE,delta=2
  1745                           global __ptext114
  1746  0328                     __ptext114:
  1747                           	line	96
  1748                           	signat	_init_timer,88
  1749                           	global	_uart_delay
  1750                           
  1751                           ; *************** function _uart_delay *****************
  1752                           ; Defined at:
  1753                           ;		line 396 in file "D:\ABHISHEK JOSHI\PIC\UART\UART T9\UART T9.C"
  1754                           ; Parameters:    Size  Location     Type
  1755                           ;  del             2    0[BANK0 ] unsigned int 
  1756                           ; Auto vars:     Size  Location     Type
  1757                           ;  j               2    3[COMMON] int 
  1758                           ;  i               2    1[COMMON] int 
  1759                           ; Return value:  Size  Location     Type
  1760                           ;		None               void
  1761                           ; Registers used:
  1762                           ;		wreg
  1763                           ; Tracked objects:
  1764                           ;		On entry : 0/0
  1765                           ;		On exit  : 0/0
  1766                           ;		Unchanged: 0/0
  1767                           ; Data sizes:     COMMON   BANK0   BANK1   BANK3   BANK2
  1768                           ;      Locals:         5       2       0       0       0
  1769                           ;      Temp:     1
  1770                           ;      Total:    7
  1771                           ; This function calls:
  1772                           ;		Nothing
  1773                           ; This function is called by:
  1774                           ;		_home_screen
  1775                           ; This function uses a non-reentrant model
  1776                           ; 
  1777                           psect	text114
  1778                           	file	"D:\ABHISHEK JOSHI\PIC\UART\UART T9\UART T9.C"
  1779                           	line	396
  1780                           	global	__size_of_uart_delay
  1781  002F                     	__size_of_uart_delay	equ	__end_of_uart_delay-_uart_delay
  1782                           ;UART T9.C: 395: void uart_delay(unsigned int del)
  1783                           ;UART T9.C: 396: {
  1784                           	
  1785  0328                     _uart_delay:	
  1786                           	opt stack 2
  1787                           ; Regs used in _uart_delay: [wreg]
  1788                           	line	398
  1789                           	
  1790  0328                     l30000598:	
  1791                           ;UART T9.C: 397: int j,i;
  1792                           ;UART T9.C: 398: for(i=0;i<=del;i++)
  1793  0328  3000               	movlw	low(0)
  1794  0329  00F1               	movwf	(uart_delay@i)
  1795  032A  3000               	movlw	high(0)
  1796  032B  00F2               	movwf	((uart_delay@i))+1
  1797  032C  2B4A               	goto	l76
  1798                           	
  1799  032D                     l30000599:	
  1800                           	line	399
  1801                           ;UART T9.C: 399: for(j=0;j<=120;j++);
  1802  032D  3000               	movlw	low(0)
  1803  032E  00F3               	movwf	(uart_delay@j)
  1804  032F  3000               	movlw	high(0)
  1805  0330  00F4               	movwf	((uart_delay@j))+1
  1806                           	
  1807  0331                     l30000601:	
  1808  0331  3001               	movlw	low(01h)
  1809  0332  07F3               	addwf	(uart_delay@j),f
  1810  0333  1803               	skipnc
  1811  0334  0AF4               	incf	(uart_delay@j+1),f
  1812  0335  3000               	movlw	high(01h)
  1813  0336  07F4               	addwf	(uart_delay@j+1),f
  1814  0337  0874               	movf	(uart_delay@j+1),w
  1815  0338  3A80               	xorlw	80h
  1816  0339  00F0               	movwf	(??_uart_delay+0+0)
  1817  033A  3080               	movlw	(high(079h))^80h
  1818  033B  0270               	subwf	(??_uart_delay+0+0),w
  1819  033C  1D03               	skipz
  1820  033D  2B40               	goto	u275
  1821  033E  3079               	movlw	low(079h)
  1822  033F  0273               	subwf	(uart_delay@j),w
  1823  0340                     u275:
  1824                           
  1825  0340  1C03               	skipc
  1826  0341  2B43               	goto	u271
  1827  0342  2B44               	goto	u270
  1828  0343                     u271:
  1829  0343  2B31               	goto	l30000601
  1830  0344                     u270:
  1831                           	
  1832  0344                     l30000602:	
  1833                           	line	398
  1834  0344  3001               	movlw	low(01h)
  1835  0345  07F1               	addwf	(uart_delay@i),f
  1836  0346  1803               	skipnc
  1837  0347  0AF2               	incf	(uart_delay@i+1),f
  1838  0348  3000               	movlw	high(01h)
  1839  0349  07F2               	addwf	(uart_delay@i+1),f
  1840                           	
  1841  034A                     l76:	
  1842  034A  0872               	movf	(uart_delay@i+1),w
  1843  034B  1283               	bcf	status, 5	;RP0=0, select bank0
  1844  034C  1303               	bcf	status, 6	;RP1=0, select bank0
  1845  034D  0268               	subwf	(uart_delay@del+1),w
  1846  034E  1D03               	skipz
  1847  034F  2B52               	goto	u285
  1848  0350  0871               	movf	(uart_delay@i),w
  1849  0351  0267               	subwf	(uart_delay@del),w
  1850  0352                     u285:
  1851  0352  1803               	skipnc
  1852  0353  2B55               	goto	u281
  1853  0354  2B56               	goto	u280
  1854  0355                     u281:
  1855  0355  2B2D               	goto	l30000599
  1856  0356                     u280:
  1857                           	
  1858  0356                     l72:	
  1859  0356  0008               	return
  1860                           	opt stack 0
  1861                           GLOBAL	__end_of_uart_delay
  1862  0357                     	__end_of_uart_delay:
  1863                           ; =============== function _uart_delay ends ============
  1864                           
  1865                           psect	text115,local,class=CODE,delta=2
  1866                           global __ptext115
  1867  0404                     __ptext115:
  1868                           	line	401
  1869                           	signat	_uart_delay,4216
  1870                           	global	_tx
  1871                           
  1872                           ; *************** function _tx *****************
  1873                           ; Defined at:
  1874                           ;		line 389 in file "D:\ABHISHEK JOSHI\PIC\UART\UART T9\UART T9.C"
  1875                           ; Parameters:    Size  Location     Type
  1876                           ;  tx_data         1    wreg     unsigned char 
  1877                           ; Auto vars:     Size  Location     Type
  1878                           ;  tx_data         1    0[COMMON] unsigned char 
  1879                           ; Return value:  Size  Location     Type
  1880                           ;		None               void
  1881                           ; Registers used:
  1882                           ;		wreg
  1883                           ; Tracked objects:
  1884                           ;		On entry : 0/0
  1885                           ;		On exit  : 0/0
  1886                           ;		Unchanged: 0/0
  1887                           ; Data sizes:     COMMON   BANK0   BANK1   BANK3   BANK2
  1888                           ;      Locals:         1       0       0       0       0
  1889                           ;      Temp:     0
  1890                           ;      Total:    1
  1891                           ; This function calls:
  1892                           ;		Nothing
  1893                           ; This function is called by:
  1894                           ;		_uart_disp
  1895                           ;		_home_screen
  1896                           ; This function uses a non-reentrant model
  1897                           ; 
  1898                           psect	text115
  1899                           	file	"D:\ABHISHEK JOSHI\PIC\UART\UART T9\UART T9.C"
  1900                           	line	389
  1901                           	global	__size_of_tx
  1902  000B                     	__size_of_tx	equ	__end_of_tx-_tx
  1903                           ;UART T9.C: 388: void tx(unsigned char tx_data)
  1904                           ;UART T9.C: 389: {
  1905                           	
  1906  0404                     _tx:	
  1907                           	opt stack 2
  1908                           ; Regs used in _tx: [wreg]
  1909                           ;tx@tx_data stored from wreg
  1910  0404  00F0               	movwf	(tx@tx_data)
  1911                           	
  1912  0405                     l30000579:	
  1913                           	
  1914  0405                     l69:	
  1915                           	line	390
  1916  0405  1283               	bcf	status, 5	;RP0=0, select bank0
  1917  0406  1303               	bcf	status, 6	;RP1=0, select bank0
  1918  0407  1E0C               	btfss	(100/8),(100)&7
  1919  0408  2C0A               	goto	u181
  1920  0409  2C0B               	goto	u180
  1921  040A                     u181:
  1922  040A  2C05               	goto	l69
  1923  040B                     u180:
  1924                           	
  1925  040B                     l30000580:	
  1926                           	line	391
  1927                           ;UART T9.C: 391: TXREG=tx_data;
  1928  040B  0870               	movf	(tx@tx_data),w
  1929  040C  0099               	movwf	(25)	;volatile
  1930                           	
  1931  040D                     l30000581:	
  1932                           	line	392
  1933                           ;UART T9.C: 392: TXIF=0;
  1934  040D  120C               	bcf	(100/8),(100)&7
  1935                           	
  1936  040E                     l68:	
  1937  040E  0008               	return
  1938                           	opt stack 0
  1939                           GLOBAL	__end_of_tx
  1940  040F                     	__end_of_tx:
  1941                           ; =============== function _tx ends ============
  1942                           
  1943                           psect	text116,local,class=CODE,delta=2
  1944                           global __ptext116
  1945  0376                     __ptext116:
  1946                           	line	393
  1947                           	signat	_tx,4216
  1948                           	global	_isr_t0
  1949                           
  1950                           ; *************** function _isr_t0 *****************
  1951                           ; Defined at:
  1952                           ;		line 48 in file "D:\ABHISHEK JOSHI\PIC\UART\UART T9\UART T9.C"
  1953                           ; Parameters:    Size  Location     Type
  1954                           ;		None
  1955                           ; Auto vars:     Size  Location     Type
  1956                           ;		None
  1957                           ; Return value:  Size  Location     Type
  1958                           ;		None               void
  1959                           ; Registers used:
  1960                           ;		wreg, fsr0l, fsr0h, status,2, status,0, pclath, cstack
  1961                           ; Tracked objects:
  1962                           ;		On entry : 0/0
  1963                           ;		On exit  : 0/0
  1964                           ;		Unchanged: 0/0
  1965                           ; Data sizes:     COMMON   BANK0   BANK1   BANK3   BANK2
  1966                           ;      Locals:         0       0       4       0       0
  1967                           ;      Temp:     4
  1968                           ;      Total:    4
  1969                           ; This function calls:
  1970                           ;		i1_init_timer
  1971                           ;		_buzzer
  1972                           ;		_scanner
  1973                           ; This function is called by:
  1974                           ;		Interrupt level 1
  1975                           ; This function uses a non-reentrant model
  1976                           ; 
  1977                           psect	text116
  1978                           	file	"D:\ABHISHEK JOSHI\PIC\UART\UART T9\UART T9.C"
  1979                           	line	48
  1980                           	global	__size_of_isr_t0
  1981  001C                     	__size_of_isr_t0	equ	__end_of_isr_t0-_isr_t0
  1982                           ;pic168xa.h: 19: volatile unsigned char INDF @ 0x00;
  1983                           ;pic168xa.h: 20: volatile unsigned char TMR0 @ 0x01;
  1984                           ;pic168xa.h: 21: volatile unsigned char PCL @ 0x02;
  1985                           ;pic168xa.h: 22: volatile unsigned char STATUS @ 0x03;
  1986                           ;pic168xa.h: 23: unsigned char FSR @ 0x04;
  1987                           ;pic168xa.h: 24: volatile unsigned char PORTA @ 0x05;
  1988                           ;pic168xa.h: 25: volatile unsigned char PORTB @ 0x06;
  1989                           ;pic168xa.h: 26: volatile unsigned char PORTC @ 0x07;
  1990                           ;pic168xa.h: 31: unsigned char PCLATH @ 0x0A;
  1991                           ;pic168xa.h: 32: volatile unsigned char INTCON @ 0x0B;
  1992                           	
  1993  0376                     _isr_t0:	
  1994                           	opt stack 5
  1995                           ; Regs used in _isr_t0: [wreg-fsr0h+status,2+status,0+pclath+cstack]
  1996                           psect	intentry,class=CODE,delta=2
  1997                           global __pintentry
  1998  0004                     __pintentry:
  1999                           global interrupt_function
  2000  0004                     interrupt_function:
  2001                           	global saved_w
  2002  007F                     	saved_w	set	btemp+1
  2003  0004  00FF               	movwf	saved_w
  2004  0005  0803               	movf	status,w
  2005  0006  1683               	bsf	status, 5	;RP0=1, select bank1
  2006  0007  1303               	bcf	status, 6	;RP1=0, select bank1
  2007  0008  00B9               	movwf	(??_isr_t0+0)^080h
  2008  0009  0804               	movf	fsr0,w
  2009  000A  00BA               	movwf	(??_isr_t0+1)^080h
  2010  000B  080A               	movf	pclath,w
  2011  000C  00BB               	movwf	(??_isr_t0+2)^080h
  2012  000D  087E               	movf	btemp+0,w
  2013  000E  00BC               	movwf	(??_isr_t0+3)^080h
  2014  000F  120A  118A  2B76   	ljmp	_isr_t0
  2015                           psect	text116
  2016                           	line	49
  2017                           	
  2018  0376                     i1l30000683:	
  2019                           ;UART T9.C: 49: init_timer();
  2020  0376  120A  118A  23DD   	fcall	i1_init_timer
              120A  118A         
  2021                           	line	50
  2022                           ;UART T9.C: 50: buzzer();
  2023  037B  120A  118A  23F8   	fcall	_buzzer
              120A  118A         
  2024                           	
  2025  0380                     i1l30000684:	
  2026                           	line	51
  2027                           ;UART T9.C: 51: scanner();
  2028  0380  120A  118A  2015   	fcall	_scanner
              120A  118A         
  2029                           	
  2030  0385                     i1l2:	
  2031  0385  1683               	bsf	status, 5	;RP0=1, select bank1
  2032  0386  1303               	bcf	status, 6	;RP1=0, select bank1
  2033  0387  083C               	movf	(??_isr_t0+3)^080h,w
  2034  0388  00FE               	movwf	btemp+0
  2035  0389  083B               	movf	(??_isr_t0+2)^080h,w
  2036  038A  008A               	movwf	pclath
  2037  038B  083A               	movf	(??_isr_t0+1)^080h,w
  2038  038C  0084               	movwf	fsr0
  2039  038D  0839               	movf	(??_isr_t0+0)^080h,w
  2040  038E  0083               	movwf	status
  2041  038F  0EFF               	swapf	saved_w,f
  2042  0390  0E7F               	swapf	saved_w,w
  2043  0391  0009               	retfie
  2044                           	opt stack 0
  2045                           GLOBAL	__end_of_isr_t0
  2046  0392                     	__end_of_isr_t0:
  2047                           ; =============== function _isr_t0 ends ============
  2048                           
  2049                           psect	text117,local,class=CODE,delta=2
  2050                           global __ptext117
  2051  0015                     __ptext117:
  2052                           	line	52
  2053                           	signat	_isr_t0,88
  2054                           	global	_scanner
  2055                           
  2056                           ; *************** function _scanner *****************
  2057                           ; Defined at:
  2058                           ;		line 121 in file "D:\ABHISHEK JOSHI\PIC\UART\UART T9\UART T9.C"
  2059                           ; Parameters:    Size  Location     Type
  2060                           ;		None
  2061                           ; Auto vars:     Size  Location     Type
  2062                           ;		None
  2063                           ; Return value:  Size  Location     Type
  2064                           ;		None               void
  2065                           ; Registers used:
  2066                           ;		wreg, fsr0l, fsr0h, status,2, status,0, pclath, cstack
  2067                           ; Tracked objects:
  2068                           ;		On entry : 0/0
  2069                           ;		On exit  : 0/0
  2070                           ;		Unchanged: 0/0
  2071                           ; Data sizes:     COMMON   BANK0   BANK1   BANK3   BANK2
  2072                           ;      Locals:         0       2       0       0       0
  2073                           ;      Temp:     2
  2074                           ;      Total:    2
  2075                           ; This function calls:
  2076                           ;		_k1
  2077                           ; This function is called by:
  2078                           ;		_isr_t0
  2079                           ; This function uses a non-reentrant model
  2080                           ; 
  2081                           psect	text117
  2082                           	file	"D:\ABHISHEK JOSHI\PIC\UART\UART T9\UART T9.C"
  2083                           	line	121
  2084                           	global	__size_of_scanner
  2085  01CA                     	__size_of_scanner	equ	__end_of_scanner-_scanner
  2086                           ;UART T9.C: 120: void scanner()
  2087                           ;UART T9.C: 121: {
  2088                           	
  2089  0015                     _scanner:	
  2090                           	opt stack 4
  2091                           ; Regs used in _scanner: [wreg-fsr0h+status,2+status,0+pclath+cstack]
  2092                           	
  2093  0015                     i1l30000632:	
  2094  0015  29A6               	goto	i1l30000682
  2095                           	
  2096  0016                     i1l17:	
  2097                           	line	125
  2098                           ;UART T9.C: 125: RA1=0;
  2099  0016  1283               	bcf	status, 5	;RP0=0, select bank0
  2100  0017  1303               	bcf	status, 6	;RP1=0, select bank0
  2101  0018  1085               	bcf	(41/8),(41)&7
  2102                           	line	126
  2103                           ;UART T9.C: 126: RC0=1;
  2104  0019  1407               	bsf	(56/8),(56)&7
  2105                           	line	127
  2106                           ;UART T9.C: 127: RC1=1;
  2107  001A  1487               	bsf	(57/8),(57)&7
  2108                           	line	128
  2109                           ;UART T9.C: 128: RC2=1;
  2110  001B  1507               	bsf	(58/8),(58)&7
  2111                           	
  2112  001C                     i1l30000633:	
  2113                           	line	130
  2114                           ;UART T9.C: 130: c=RA2;
  2115  001C  1003               	clrc
  2116  001D  1905               	btfsc	(42/8),(42)&7
  2117  001E  1403               	setc
  2118  001F  3000               	movlw	0
  2119  0020  1803               	skipnc
  2120  0021  3001               	movlw	1
  2121                           
  2122  0022  00E9               	movwf	(??_scanner+0+0)
  2123  0023  01EA               	clrf	(??_scanner+0+0+1)
  2124  0024  0869               	movf	0+(??_scanner+0+0),w
  2125  0025  00F5               	movwf	(_c)
  2126  0026  086A               	movf	1+(??_scanner+0+0),w
  2127  0027  00F6               	movwf	(_c+1)
  2128                           	
  2129  0028                     i1l30000634:	
  2130                           	line	131
  2131                           ;UART T9.C: 131: k1();
  2132  0028  120A  118A  21DF   	fcall	_k1
              120A  118A         
  2133                           	
  2134  002D                     i1l30000635:	
  2135                           	line	132
  2136                           ;UART T9.C: 132: scan_no=1;
  2137  002D  3001               	movlw	low(01h)
  2138  002E  00F7               	movwf	(_scan_no)
  2139  002F  3000               	movlw	high(01h)
  2140  0030  00F8               	movwf	((_scan_no))+1
  2141  0031  29DE               	goto	i1l14
  2142                           	
  2143  0032                     i1l30000636:	
  2144                           	line	136
  2145                           ;UART T9.C: 136: c=RA3;
  2146  0032  1003               	clrc
  2147  0033  1283               	bcf	status, 5	;RP0=0, select bank0
  2148  0034  1303               	bcf	status, 6	;RP1=0, select bank0
  2149  0035  1985               	btfsc	(43/8),(43)&7
  2150  0036  1403               	setc
  2151  0037  3000               	movlw	0
  2152  0038  1803               	skipnc
  2153  0039  3001               	movlw	1
  2154                           
  2155  003A  00E9               	movwf	(??_scanner+0+0)
  2156  003B  01EA               	clrf	(??_scanner+0+0+1)
  2157  003C  0869               	movf	0+(??_scanner+0+0),w
  2158  003D  00F5               	movwf	(_c)
  2159  003E  086A               	movf	1+(??_scanner+0+0),w
  2160  003F  00F6               	movwf	(_c+1)
  2161                           	
  2162  0040                     i1l30000637:	
  2163                           	line	137
  2164                           ;UART T9.C: 137: k1();
  2165  0040  120A  118A  21DF   	fcall	_k1
              120A  118A         
  2166                           	
  2167  0045                     i1l30000638:	
  2168                           	line	138
  2169                           ;UART T9.C: 138: scan_no=2;
  2170  0045  3002               	movlw	low(02h)
  2171  0046  00F7               	movwf	(_scan_no)
  2172  0047  3000               	movlw	high(02h)
  2173  0048  00F8               	movwf	((_scan_no))+1
  2174  0049  29DE               	goto	i1l14
  2175                           	
  2176  004A                     i1l30000639:	
  2177                           	line	142
  2178                           ;UART T9.C: 142: c=RA4;
  2179  004A  1003               	clrc
  2180  004B  1283               	bcf	status, 5	;RP0=0, select bank0
  2181  004C  1303               	bcf	status, 6	;RP1=0, select bank0
  2182  004D  1A05               	btfsc	(44/8),(44)&7
  2183  004E  1403               	setc
  2184  004F  3000               	movlw	0
  2185  0050  1803               	skipnc
  2186  0051  3001               	movlw	1
  2187                           
  2188  0052  00E9               	movwf	(??_scanner+0+0)
  2189  0053  01EA               	clrf	(??_scanner+0+0+1)
  2190  0054  0869               	movf	0+(??_scanner+0+0),w
  2191  0055  00F5               	movwf	(_c)
  2192  0056  086A               	movf	1+(??_scanner+0+0),w
  2193  0057  00F6               	movwf	(_c+1)
  2194                           	
  2195  0058                     i1l30000640:	
  2196                           	line	143
  2197                           ;UART T9.C: 143: k1();
  2198  0058  120A  118A  21DF   	fcall	_k1
              120A  118A         
  2199                           	
  2200  005D                     i1l30000641:	
  2201                           	line	144
  2202                           ;UART T9.C: 144: scan_no=3;
  2203  005D  3003               	movlw	low(03h)
  2204  005E  00F7               	movwf	(_scan_no)
  2205  005F  3000               	movlw	high(03h)
  2206  0060  00F8               	movwf	((_scan_no))+1
  2207  0061  29DE               	goto	i1l14
  2208                           	
  2209  0062                     i1l30000642:	
  2210                           	line	149
  2211                           ;UART T9.C: 149: c=RA5;
  2212  0062  1003               	clrc
  2213  0063  1283               	bcf	status, 5	;RP0=0, select bank0
  2214  0064  1303               	bcf	status, 6	;RP1=0, select bank0
  2215  0065  1A85               	btfsc	(45/8),(45)&7
  2216  0066  1403               	setc
  2217  0067  3000               	movlw	0
  2218  0068  1803               	skipnc
  2219  0069  3001               	movlw	1
  2220                           
  2221  006A  00E9               	movwf	(??_scanner+0+0)
  2222  006B  01EA               	clrf	(??_scanner+0+0+1)
  2223  006C  0869               	movf	0+(??_scanner+0+0),w
  2224  006D  00F5               	movwf	(_c)
  2225  006E  086A               	movf	1+(??_scanner+0+0),w
  2226  006F  00F6               	movwf	(_c+1)
  2227                           	
  2228  0070                     i1l30000643:	
  2229                           	line	150
  2230                           ;UART T9.C: 150: k1();
  2231  0070  120A  118A  21DF   	fcall	_k1
              120A  118A         
  2232                           	
  2233  0075                     i1l30000644:	
  2234                           	line	151
  2235                           ;UART T9.C: 151: scan_no=4;
  2236  0075  3004               	movlw	low(04h)
  2237  0076  00F7               	movwf	(_scan_no)
  2238  0077  3000               	movlw	high(04h)
  2239  0078  00F8               	movwf	((_scan_no))+1
  2240  0079  29DE               	goto	i1l14
  2241                           	
  2242  007A                     i1l21:	
  2243                           	line	155
  2244                           ;UART T9.C: 155: RA1=1;
  2245  007A  1283               	bcf	status, 5	;RP0=0, select bank0
  2246  007B  1303               	bcf	status, 6	;RP1=0, select bank0
  2247  007C  1485               	bsf	(41/8),(41)&7
  2248                           	line	156
  2249                           ;UART T9.C: 156: RC0=0;
  2250  007D  1007               	bcf	(56/8),(56)&7
  2251                           	line	157
  2252                           ;UART T9.C: 157: RC1=1;
  2253  007E  1487               	bsf	(57/8),(57)&7
  2254                           	line	158
  2255                           ;UART T9.C: 158: RC2=1;
  2256  007F  1507               	bsf	(58/8),(58)&7
  2257                           	
  2258  0080                     i1l30000645:	
  2259                           	line	160
  2260                           ;UART T9.C: 160: c=RA2;
  2261  0080  1003               	clrc
  2262  0081  1905               	btfsc	(42/8),(42)&7
  2263  0082  1403               	setc
  2264  0083  3000               	movlw	0
  2265  0084  1803               	skipnc
  2266  0085  3001               	movlw	1
  2267                           
  2268  0086  00E9               	movwf	(??_scanner+0+0)
  2269  0087  01EA               	clrf	(??_scanner+0+0+1)
  2270  0088  0869               	movf	0+(??_scanner+0+0),w
  2271  0089  00F5               	movwf	(_c)
  2272  008A  086A               	movf	1+(??_scanner+0+0),w
  2273  008B  00F6               	movwf	(_c+1)
  2274                           	
  2275  008C                     i1l30000646:	
  2276                           	line	161
  2277                           ;UART T9.C: 161: k1();
  2278  008C  120A  118A  21DF   	fcall	_k1
              120A  118A         
  2279                           	
  2280  0091                     i1l30000647:	
  2281                           	line	162
  2282                           ;UART T9.C: 162: scan_no=5;
  2283  0091  3005               	movlw	low(05h)
  2284  0092  00F7               	movwf	(_scan_no)
  2285  0093  3000               	movlw	high(05h)
  2286  0094  00F8               	movwf	((_scan_no))+1
  2287  0095  29DE               	goto	i1l14
  2288                           	
  2289  0096                     i1l30000648:	
  2290                           	line	166
  2291                           ;UART T9.C: 166: c=RA3;
  2292  0096  1003               	clrc
  2293  0097  1283               	bcf	status, 5	;RP0=0, select bank0
  2294  0098  1303               	bcf	status, 6	;RP1=0, select bank0
  2295  0099  1985               	btfsc	(43/8),(43)&7
  2296  009A  1403               	setc
  2297  009B  3000               	movlw	0
  2298  009C  1803               	skipnc
  2299  009D  3001               	movlw	1
  2300                           
  2301  009E  00E9               	movwf	(??_scanner+0+0)
  2302  009F  01EA               	clrf	(??_scanner+0+0+1)
  2303  00A0  0869               	movf	0+(??_scanner+0+0),w
  2304  00A1  00F5               	movwf	(_c)
  2305  00A2  086A               	movf	1+(??_scanner+0+0),w
  2306  00A3  00F6               	movwf	(_c+1)
  2307                           	
  2308  00A4                     i1l30000649:	
  2309                           	line	167
  2310                           ;UART T9.C: 167: k1();
  2311  00A4  120A  118A  21DF   	fcall	_k1
              120A  118A         
  2312                           	
  2313  00A9                     i1l30000650:	
  2314                           	line	168
  2315                           ;UART T9.C: 168: scan_no=6;
  2316  00A9  3006               	movlw	low(06h)
  2317  00AA  00F7               	movwf	(_scan_no)
  2318  00AB  3000               	movlw	high(06h)
  2319  00AC  00F8               	movwf	((_scan_no))+1
  2320  00AD  29DE               	goto	i1l14
  2321                           	
  2322  00AE                     i1l30000651:	
  2323                           	line	172
  2324                           ;UART T9.C: 172: c=RA4;
  2325  00AE  1003               	clrc
  2326  00AF  1283               	bcf	status, 5	;RP0=0, select bank0
  2327  00B0  1303               	bcf	status, 6	;RP1=0, select bank0
  2328  00B1  1A05               	btfsc	(44/8),(44)&7
  2329  00B2  1403               	setc
  2330  00B3  3000               	movlw	0
  2331  00B4  1803               	skipnc
  2332  00B5  3001               	movlw	1
  2333                           
  2334  00B6  00E9               	movwf	(??_scanner+0+0)
  2335  00B7  01EA               	clrf	(??_scanner+0+0+1)
  2336  00B8  0869               	movf	0+(??_scanner+0+0),w
  2337  00B9  00F5               	movwf	(_c)
  2338  00BA  086A               	movf	1+(??_scanner+0+0),w
  2339  00BB  00F6               	movwf	(_c+1)
  2340                           	
  2341  00BC                     i1l30000652:	
  2342                           	line	173
  2343                           ;UART T9.C: 173: k1();
  2344  00BC  120A  118A  21DF   	fcall	_k1
              120A  118A         
  2345                           	
  2346  00C1                     i1l30000653:	
  2347                           	line	174
  2348                           ;UART T9.C: 174: scan_no=7;
  2349  00C1  3007               	movlw	low(07h)
  2350  00C2  00F7               	movwf	(_scan_no)
  2351  00C3  3000               	movlw	high(07h)
  2352  00C4  00F8               	movwf	((_scan_no))+1
  2353  00C5  29DE               	goto	i1l14
  2354                           	
  2355  00C6                     i1l30000654:	
  2356                           	line	179
  2357                           ;UART T9.C: 179: c=RA5;
  2358  00C6  1003               	clrc
  2359  00C7  1283               	bcf	status, 5	;RP0=0, select bank0
  2360  00C8  1303               	bcf	status, 6	;RP1=0, select bank0
  2361  00C9  1A85               	btfsc	(45/8),(45)&7
  2362  00CA  1403               	setc
  2363  00CB  3000               	movlw	0
  2364  00CC  1803               	skipnc
  2365  00CD  3001               	movlw	1
  2366                           
  2367  00CE  00E9               	movwf	(??_scanner+0+0)
  2368  00CF  01EA               	clrf	(??_scanner+0+0+1)
  2369  00D0  0869               	movf	0+(??_scanner+0+0),w
  2370  00D1  00F5               	movwf	(_c)
  2371  00D2  086A               	movf	1+(??_scanner+0+0),w
  2372  00D3  00F6               	movwf	(_c+1)
  2373                           	
  2374  00D4                     i1l30000655:	
  2375                           	line	180
  2376                           ;UART T9.C: 180: k1();
  2377  00D4  120A  118A  21DF   	fcall	_k1
              120A  118A         
  2378                           	
  2379  00D9                     i1l30000656:	
  2380                           	line	181
  2381                           ;UART T9.C: 181: scan_no=8;
  2382  00D9  3008               	movlw	low(08h)
  2383  00DA  00F7               	movwf	(_scan_no)
  2384  00DB  3000               	movlw	high(08h)
  2385  00DC  00F8               	movwf	((_scan_no))+1
  2386  00DD  29DE               	goto	i1l14
  2387                           	
  2388  00DE                     i1l25:	
  2389                           	line	185
  2390                           ;UART T9.C: 185: RA1=1;
  2391  00DE  1283               	bcf	status, 5	;RP0=0, select bank0
  2392  00DF  1303               	bcf	status, 6	;RP1=0, select bank0
  2393  00E0  1485               	bsf	(41/8),(41)&7
  2394                           	line	186
  2395                           ;UART T9.C: 186: RC0=1;
  2396  00E1  1407               	bsf	(56/8),(56)&7
  2397                           	line	187
  2398                           ;UART T9.C: 187: RC1=0;
  2399  00E2  1087               	bcf	(57/8),(57)&7
  2400                           	line	188
  2401                           ;UART T9.C: 188: RC2=1;
  2402  00E3  1507               	bsf	(58/8),(58)&7
  2403                           	
  2404  00E4                     i1l30000657:	
  2405                           	line	190
  2406                           ;UART T9.C: 190: c=RA2;
  2407  00E4  1003               	clrc
  2408  00E5  1905               	btfsc	(42/8),(42)&7
  2409  00E6  1403               	setc
  2410  00E7  3000               	movlw	0
  2411  00E8  1803               	skipnc
  2412  00E9  3001               	movlw	1
  2413                           
  2414  00EA  00E9               	movwf	(??_scanner+0+0)
  2415  00EB  01EA               	clrf	(??_scanner+0+0+1)
  2416  00EC  0869               	movf	0+(??_scanner+0+0),w
  2417  00ED  00F5               	movwf	(_c)
  2418  00EE  086A               	movf	1+(??_scanner+0+0),w
  2419  00EF  00F6               	movwf	(_c+1)
  2420                           	
  2421  00F0                     i1l30000658:	
  2422                           	line	191
  2423                           ;UART T9.C: 191: k1();
  2424  00F0  120A  118A  21DF   	fcall	_k1
              120A  118A         
  2425                           	
  2426  00F5                     i1l30000659:	
  2427                           	line	192
  2428                           ;UART T9.C: 192: scan_no=9;
  2429  00F5  3009               	movlw	low(09h)
  2430  00F6  00F7               	movwf	(_scan_no)
  2431  00F7  3000               	movlw	high(09h)
  2432  00F8  00F8               	movwf	((_scan_no))+1
  2433  00F9  29DE               	goto	i1l14
  2434                           	
  2435  00FA                     i1l30000660:	
  2436                           	line	196
  2437                           ;UART T9.C: 196: c=RA3;
  2438  00FA  1003               	clrc
  2439  00FB  1283               	bcf	status, 5	;RP0=0, select bank0
  2440  00FC  1303               	bcf	status, 6	;RP1=0, select bank0
  2441  00FD  1985               	btfsc	(43/8),(43)&7
  2442  00FE  1403               	setc
  2443  00FF  3000               	movlw	0
  2444  0100  1803               	skipnc
  2445  0101  3001               	movlw	1
  2446                           
  2447  0102  00E9               	movwf	(??_scanner+0+0)
  2448  0103  01EA               	clrf	(??_scanner+0+0+1)
  2449  0104  0869               	movf	0+(??_scanner+0+0),w
  2450  0105  00F5               	movwf	(_c)
  2451  0106  086A               	movf	1+(??_scanner+0+0),w
  2452  0107  00F6               	movwf	(_c+1)
  2453                           	
  2454  0108                     i1l30000661:	
  2455                           	line	197
  2456                           ;UART T9.C: 197: k1();
  2457  0108  120A  118A  21DF   	fcall	_k1
              120A  118A         
  2458                           	
  2459  010D                     i1l30000662:	
  2460                           	line	198
  2461                           ;UART T9.C: 198: scan_no=10;
  2462  010D  300A               	movlw	low(0Ah)
  2463  010E  00F7               	movwf	(_scan_no)
  2464  010F  3000               	movlw	high(0Ah)
  2465  0110  00F8               	movwf	((_scan_no))+1
  2466  0111  29DE               	goto	i1l14
  2467                           	
  2468  0112                     i1l30000663:	
  2469                           	line	202
  2470                           ;UART T9.C: 202: c=RA4;
  2471  0112  1003               	clrc
  2472  0113  1283               	bcf	status, 5	;RP0=0, select bank0
  2473  0114  1303               	bcf	status, 6	;RP1=0, select bank0
  2474  0115  1A05               	btfsc	(44/8),(44)&7
  2475  0116  1403               	setc
  2476  0117  3000               	movlw	0
  2477  0118  1803               	skipnc
  2478  0119  3001               	movlw	1
  2479                           
  2480  011A  00E9               	movwf	(??_scanner+0+0)
  2481  011B  01EA               	clrf	(??_scanner+0+0+1)
  2482  011C  0869               	movf	0+(??_scanner+0+0),w
  2483  011D  00F5               	movwf	(_c)
  2484  011E  086A               	movf	1+(??_scanner+0+0),w
  2485  011F  00F6               	movwf	(_c+1)
  2486                           	
  2487  0120                     i1l30000664:	
  2488                           	line	203
  2489                           ;UART T9.C: 203: k1();
  2490  0120  120A  118A  21DF   	fcall	_k1
              120A  118A         
  2491                           	
  2492  0125                     i1l30000665:	
  2493                           	line	204
  2494                           ;UART T9.C: 204: scan_no=11;
  2495  0125  300B               	movlw	low(0Bh)
  2496  0126  00F7               	movwf	(_scan_no)
  2497  0127  3000               	movlw	high(0Bh)
  2498  0128  00F8               	movwf	((_scan_no))+1
  2499  0129  29DE               	goto	i1l14
  2500                           	
  2501  012A                     i1l30000666:	
  2502                           	line	209
  2503                           ;UART T9.C: 209: c=RA5;
  2504  012A  1003               	clrc
  2505  012B  1283               	bcf	status, 5	;RP0=0, select bank0
  2506  012C  1303               	bcf	status, 6	;RP1=0, select bank0
  2507  012D  1A85               	btfsc	(45/8),(45)&7
  2508  012E  1403               	setc
  2509  012F  3000               	movlw	0
  2510  0130  1803               	skipnc
  2511  0131  3001               	movlw	1
  2512                           
  2513  0132  00E9               	movwf	(??_scanner+0+0)
  2514  0133  01EA               	clrf	(??_scanner+0+0+1)
  2515  0134  0869               	movf	0+(??_scanner+0+0),w
  2516  0135  00F5               	movwf	(_c)
  2517  0136  086A               	movf	1+(??_scanner+0+0),w
  2518  0137  00F6               	movwf	(_c+1)
  2519                           	
  2520  0138                     i1l30000667:	
  2521                           	line	210
  2522                           ;UART T9.C: 210: k1();
  2523  0138  120A  118A  21DF   	fcall	_k1
              120A  118A         
  2524                           	
  2525  013D                     i1l30000668:	
  2526                           	line	211
  2527                           ;UART T9.C: 211: scan_no=12;
  2528  013D  300C               	movlw	low(0Ch)
  2529  013E  00F7               	movwf	(_scan_no)
  2530  013F  3000               	movlw	high(0Ch)
  2531  0140  00F8               	movwf	((_scan_no))+1
  2532  0141  29DE               	goto	i1l14
  2533                           	
  2534  0142                     i1l29:	
  2535                           	line	215
  2536                           ;UART T9.C: 215: RA1=1;
  2537  0142  1283               	bcf	status, 5	;RP0=0, select bank0
  2538  0143  1303               	bcf	status, 6	;RP1=0, select bank0
  2539  0144  1485               	bsf	(41/8),(41)&7
  2540                           	line	216
  2541                           ;UART T9.C: 216: RC0=1;
  2542  0145  1407               	bsf	(56/8),(56)&7
  2543                           	line	217
  2544                           ;UART T9.C: 217: RC1=1;
  2545  0146  1487               	bsf	(57/8),(57)&7
  2546                           	line	218
  2547                           ;UART T9.C: 218: RC2=0;
  2548  0147  1107               	bcf	(58/8),(58)&7
  2549                           	
  2550  0148                     i1l30000669:	
  2551                           	line	220
  2552                           ;UART T9.C: 220: c=RA2;
  2553  0148  1003               	clrc
  2554  0149  1905               	btfsc	(42/8),(42)&7
  2555  014A  1403               	setc
  2556  014B  3000               	movlw	0
  2557  014C  1803               	skipnc
  2558  014D  3001               	movlw	1
  2559                           
  2560  014E  00E9               	movwf	(??_scanner+0+0)
  2561  014F  01EA               	clrf	(??_scanner+0+0+1)
  2562  0150  0869               	movf	0+(??_scanner+0+0),w
  2563  0151  00F5               	movwf	(_c)
  2564  0152  086A               	movf	1+(??_scanner+0+0),w
  2565  0153  00F6               	movwf	(_c+1)
  2566                           	
  2567  0154                     i1l30000670:	
  2568                           	line	221
  2569                           ;UART T9.C: 221: k1();
  2570  0154  120A  118A  21DF   	fcall	_k1
              120A  118A         
  2571                           	
  2572  0159                     i1l30000671:	
  2573                           	line	222
  2574                           ;UART T9.C: 222: scan_no=13;
  2575  0159  300D               	movlw	low(0Dh)
  2576  015A  00F7               	movwf	(_scan_no)
  2577  015B  3000               	movlw	high(0Dh)
  2578  015C  00F8               	movwf	((_scan_no))+1
  2579  015D  29DE               	goto	i1l14
  2580                           	
  2581  015E                     i1l30000672:	
  2582                           	line	226
  2583                           ;UART T9.C: 226: c=RA3;
  2584  015E  1003               	clrc
  2585  015F  1283               	bcf	status, 5	;RP0=0, select bank0
  2586  0160  1303               	bcf	status, 6	;RP1=0, select bank0
  2587  0161  1985               	btfsc	(43/8),(43)&7
  2588  0162  1403               	setc
  2589  0163  3000               	movlw	0
  2590  0164  1803               	skipnc
  2591  0165  3001               	movlw	1
  2592                           
  2593  0166  00E9               	movwf	(??_scanner+0+0)
  2594  0167  01EA               	clrf	(??_scanner+0+0+1)
  2595  0168  0869               	movf	0+(??_scanner+0+0),w
  2596  0169  00F5               	movwf	(_c)
  2597  016A  086A               	movf	1+(??_scanner+0+0),w
  2598  016B  00F6               	movwf	(_c+1)
  2599                           	
  2600  016C                     i1l30000673:	
  2601                           	line	227
  2602                           ;UART T9.C: 227: k1();
  2603  016C  120A  118A  21DF   	fcall	_k1
              120A  118A         
  2604                           	
  2605  0171                     i1l30000674:	
  2606                           	line	228
  2607                           ;UART T9.C: 228: scan_no=14;
  2608  0171  300E               	movlw	low(0Eh)
  2609  0172  00F7               	movwf	(_scan_no)
  2610  0173  3000               	movlw	high(0Eh)
  2611  0174  00F8               	movwf	((_scan_no))+1
  2612  0175  29DE               	goto	i1l14
  2613                           	
  2614  0176                     i1l30000675:	
  2615                           	line	232
  2616                           ;UART T9.C: 232: c=RA4;
  2617  0176  1003               	clrc
  2618  0177  1283               	bcf	status, 5	;RP0=0, select bank0
  2619  0178  1303               	bcf	status, 6	;RP1=0, select bank0
  2620  0179  1A05               	btfsc	(44/8),(44)&7
  2621  017A  1403               	setc
  2622  017B  3000               	movlw	0
  2623  017C  1803               	skipnc
  2624  017D  3001               	movlw	1
  2625                           
  2626  017E  00E9               	movwf	(??_scanner+0+0)
  2627  017F  01EA               	clrf	(??_scanner+0+0+1)
  2628  0180  0869               	movf	0+(??_scanner+0+0),w
  2629  0181  00F5               	movwf	(_c)
  2630  0182  086A               	movf	1+(??_scanner+0+0),w
  2631  0183  00F6               	movwf	(_c+1)
  2632                           	
  2633  0184                     i1l30000676:	
  2634                           	line	233
  2635                           ;UART T9.C: 233: k1();
  2636  0184  120A  118A  21DF   	fcall	_k1
              120A  118A         
  2637                           	
  2638  0189                     i1l30000677:	
  2639                           	line	234
  2640                           ;UART T9.C: 234: scan_no=15;
  2641  0189  300F               	movlw	low(0Fh)
  2642  018A  00F7               	movwf	(_scan_no)
  2643  018B  3000               	movlw	high(0Fh)
  2644  018C  00F8               	movwf	((_scan_no))+1
  2645  018D  29DE               	goto	i1l14
  2646                           	
  2647  018E                     i1l30000678:	
  2648                           	line	238
  2649                           ;UART T9.C: 238: c=RA5;
  2650  018E  1003               	clrc
  2651  018F  1283               	bcf	status, 5	;RP0=0, select bank0
  2652  0190  1303               	bcf	status, 6	;RP1=0, select bank0
  2653  0191  1A85               	btfsc	(45/8),(45)&7
  2654  0192  1403               	setc
  2655  0193  3000               	movlw	0
  2656  0194  1803               	skipnc
  2657  0195  3001               	movlw	1
  2658                           
  2659  0196  00E9               	movwf	(??_scanner+0+0)
  2660  0197  01EA               	clrf	(??_scanner+0+0+1)
  2661  0198  0869               	movf	0+(??_scanner+0+0),w
  2662  0199  00F5               	movwf	(_c)
  2663  019A  086A               	movf	1+(??_scanner+0+0),w
  2664  019B  00F6               	movwf	(_c+1)
  2665                           	
  2666  019C                     i1l30000679:	
  2667                           	line	239
  2668                           ;UART T9.C: 239: k1();
  2669  019C  120A  118A  21DF   	fcall	_k1
              120A  118A         
  2670                           	
  2671  01A1                     i1l30000680:	
  2672                           	line	241
  2673                           ;UART T9.C: 241: scan_no=0;
  2674  01A1  3000               	movlw	low(0)
  2675  01A2  00F7               	movwf	(_scan_no)
  2676  01A3  3000               	movlw	high(0)
  2677  01A4  00F8               	movwf	((_scan_no))+1
  2678  01A5  29DE               	goto	i1l14
  2679                           	
  2680  01A6                     i1l30000682:	
  2681                           	line	122
  2682  01A6  29D9               		goto	i1l30013
  2683  01A7                     i1l30014:
  2684  01A7  0877               	movf (_scan_no),w
  2685  01A8  3A00               	xorlw	0^0
  2686  01A9  1903               	skipnz
  2687  01AA  2816               	goto	i1l17
  2688  01AB  3A01               	xorlw	1^0
  2689  01AC  1903               	skipnz
  2690  01AD  2832               	goto	i1l30000636
  2691  01AE  3A03               	xorlw	2^1
  2692  01AF  1903               	skipnz
  2693  01B0  284A               	goto	i1l30000639
  2694  01B1  3A01               	xorlw	3^2
  2695  01B2  1903               	skipnz
  2696  01B3  2862               	goto	i1l30000642
  2697  01B4  3A07               	xorlw	4^3
  2698  01B5  1903               	skipnz
  2699  01B6  287A               	goto	i1l21
  2700  01B7  3A01               	xorlw	5^4
  2701  01B8  1903               	skipnz
  2702  01B9  2896               	goto	i1l30000648
  2703  01BA  3A03               	xorlw	6^5
  2704  01BB  1903               	skipnz
  2705  01BC  28AE               	goto	i1l30000651
  2706  01BD  3A01               	xorlw	7^6
  2707  01BE  1903               	skipnz
  2708  01BF  28C6               	goto	i1l30000654
  2709  01C0  3A0F               	xorlw	8^7
  2710  01C1  1903               	skipnz
  2711  01C2  28DE               	goto	i1l25
  2712  01C3  3A01               	xorlw	9^8
  2713  01C4  1903               	skipnz
  2714  01C5  28FA               	goto	i1l30000660
  2715  01C6  3A03               	xorlw	10^9
  2716  01C7  1903               	skipnz
  2717  01C8  2912               	goto	i1l30000663
  2718  01C9  3A01               	xorlw	11^10
  2719  01CA  1903               	skipnz
  2720  01CB  292A               	goto	i1l30000666
  2721  01CC  3A07               	xorlw	12^11
  2722  01CD  1903               	skipnz
  2723  01CE  2942               	goto	i1l29
  2724  01CF  3A01               	xorlw	13^12
  2725  01D0  1903               	skipnz
  2726  01D1  295E               	goto	i1l30000672
  2727  01D2  3A03               	xorlw	14^13
  2728  01D3  1903               	skipnz
  2729  01D4  2976               	goto	i1l30000675
  2730  01D5  3A01               	xorlw	15^14
  2731  01D6  1903               	skipnz
  2732  01D7  298E               	goto	i1l30000678
  2733  01D8  29DE               	goto	i1l14
  2734                           
  2735  01D9                     i1l30013:
  2736  01D9  0878               	movf (_scan_no+1),w
  2737  01DA  3A00               	xorlw	0^0
  2738  01DB  1903               	skipnz
  2739  01DC  29A7               	goto	i1l30014
  2740  01DD  29DE               	goto	i1l14
  2741                           
  2742                           	
  2743  01DE                     i1l14:	
  2744  01DE  0008               	return
  2745                           	opt stack 0
  2746                           GLOBAL	__end_of_scanner
  2747  01DF                     	__end_of_scanner:
  2748                           ; =============== function _scanner ends ============
  2749                           
  2750                           psect	text118,local,class=CODE,delta=2
  2751                           global __ptext118
  2752  03F8                     __ptext118:
  2753                           	line	244
  2754                           	signat	_scanner,88
  2755                           	global	_buzzer
  2756                           
  2757                           ; *************** function _buzzer *****************
  2758                           ; Defined at:
  2759                           ;		line 346 in file "D:\ABHISHEK JOSHI\PIC\UART\UART T9\UART T9.C"
  2760                           ; Parameters:    Size  Location     Type
  2761                           ;		None
  2762                           ; Auto vars:     Size  Location     Type
  2763                           ;		None
  2764                           ; Return value:  Size  Location     Type
  2765                           ;		None               void
  2766                           ; Registers used:
  2767                           ;		wreg
  2768                           ; Tracked objects:
  2769                           ;		On entry : 0/0
  2770                           ;		On exit  : 0/0
  2771                           ;		Unchanged: 0/0
  2772                           ; Data sizes:     COMMON   BANK0   BANK1   BANK3   BANK2
  2773                           ;      Locals:         0       0       0       0       0
  2774                           ;      Temp:     0
  2775                           ;      Total:    0
  2776                           ; This function calls:
  2777                           ;		Nothing
  2778                           ; This function is called by:
  2779                           ;		_isr_t0
  2780                           ; This function uses a non-reentrant model
  2781                           ; 
  2782                           psect	text118
  2783                           	file	"D:\ABHISHEK JOSHI\PIC\UART\UART T9\UART T9.C"
  2784                           	line	346
  2785                           	global	__size_of_buzzer
  2786  000C                     	__size_of_buzzer	equ	__end_of_buzzer-_buzzer
  2787                           ;UART T9.C: 345: void buzzer()
  2788                           ;UART T9.C: 346: {
  2789                           	
  2790  03F8                     _buzzer:	
  2791                           	opt stack 4
  2792                           ; Regs used in _buzzer: [wreg]
  2793                           	line	347
  2794                           	
  2795  03F8                     i1l30000685:	
  2796                           ;UART T9.C: 347: if(start_buzzer==1)
  2797  03F8  3001               	movlw	01h
  2798  03F9  1283               	bcf	status, 5	;RP0=0, select bank0
  2799  03FA  1303               	bcf	status, 6	;RP1=0, select bank0
  2800  03FB  0661               	xorwf	(_start_buzzer),w
  2801  03FC  0462               	iorwf	(_start_buzzer+1),w
  2802  03FD  1D03               	skipz
  2803  03FE  2C00               	goto	u37_21
  2804  03FF  2C01               	goto	u37_20
  2805  0400                     u37_21:
  2806  0400  2C03               	goto	i1l62
  2807  0401                     u37_20:
  2808                           	
  2809  0401                     i1l30000686:	
  2810                           	line	348
  2811                           ;UART T9.C: 348: RC5=~RC5;
  2812  0401  3020               	movlw	1<<((61)&7)
  2813  0402  0687               	xorwf	((61)/8),f
  2814                           	
  2815  0403                     i1l62:	
  2816  0403  0008               	return
  2817                           	opt stack 0
  2818                           GLOBAL	__end_of_buzzer
  2819  0404                     	__end_of_buzzer:
  2820                           ; =============== function _buzzer ends ============
  2821                           
  2822                           psect	text119,local,class=CODE,delta=2
  2823                           global __ptext119
  2824  03DD                     __ptext119:
  2825                           	line	349
  2826                           	signat	_buzzer,88
  2827                           	global	i1_init_timer
  2828                           
  2829                           ; *************** function i1_init_timer *****************
  2830                           ; Defined at:
  2831                           ;		line 90 in file "D:\ABHISHEK JOSHI\PIC\UART\UART T9\UART T9.C"
  2832                           ; Parameters:    Size  Location     Type
  2833                           ;		None
  2834                           ; Auto vars:     Size  Location     Type
  2835                           ;		None
  2836                           ; Return value:  Size  Location     Type
  2837                           ;		None               void
  2838                           ; Registers used:
  2839                           ;		wreg
  2840                           ; Tracked objects:
  2841                           ;		On entry : 0/0
  2842                           ;		On exit  : 0/0
  2843                           ;		Unchanged: 0/0
  2844                           ; Data sizes:     COMMON   BANK0   BANK1   BANK3   BANK2
  2845                           ;      Locals:         0       0       0       0       0
  2846                           ;      Temp:     0
  2847                           ;      Total:    0
  2848                           ; This function calls:
  2849                           ;		Nothing
  2850                           ; This function is called by:
  2851                           ;		_isr_t0
  2852                           ; This function uses a non-reentrant model
  2853                           ; 
  2854                           psect	text119
  2855                           	file	"D:\ABHISHEK JOSHI\PIC\UART\UART T9\UART T9.C"
  2856                           	line	90
  2857                           	global	__size_ofi1_init_timer
  2858  000F                     	__size_ofi1_init_timer	equ	__end_ofi1_init_timer-i1_init_timer
  2859                           ;UART T9.C: 89: void init_timer()
  2860                           ;UART T9.C: 90: {
  2861                           	
  2862  03DD                     i1_init_timer:	
  2863                           	opt stack 4
  2864                           ; Regs used in i1_init_timer: [wreg]
  2865                           	line	91
  2866                           	
  2867  03DD                     i1l30000687:	
  2868                           ;UART T9.C: 91: TMR1H=0xFC;
  2869  03DD  30FC               	movlw	(0FCh)
  2870  03DE  1283               	bcf	status, 5	;RP0=0, select bank0
  2871  03DF  1303               	bcf	status, 6	;RP1=0, select bank0
  2872  03E0  008F               	movwf	(15)	;volatile
  2873                           	line	92
  2874                           ;UART T9.C: 92: TMR1L=0x18;
  2875  03E1  3018               	movlw	(018h)
  2876  03E2  008E               	movwf	(14)	;volatile
  2877                           	line	93
  2878                           ;UART T9.C: 93: T1CON=0x01;
  2879  03E3  3001               	movlw	(01h)
  2880  03E4  0090               	movwf	(16)	;volatile
  2881                           	
  2882  03E5                     i1l30000688:	
  2883                           	line	94
  2884                           ;UART T9.C: 94: TMR1IE=1;
  2885  03E5  1683               	bsf	status, 5	;RP0=1, select bank1
  2886  03E6  1303               	bcf	status, 6	;RP1=0, select bank1
  2887  03E7  140C               	bsf	(1120/8)^080h,(1120)&7
  2888                           	
  2889  03E8                     i1l30000689:	
  2890                           	line	95
  2891                           ;UART T9.C: 95: TMR1IF=0;
  2892  03E8  1283               	bcf	status, 5	;RP0=0, select bank0
  2893  03E9  1303               	bcf	status, 6	;RP1=0, select bank0
  2894  03EA  100C               	bcf	(96/8),(96)&7
  2895                           	
  2896  03EB                     i1l11:	
  2897  03EB  0008               	return
  2898                           	opt stack 0
  2899                           GLOBAL	__end_ofi1_init_timer
  2900  03EC                     	__end_ofi1_init_timer:
  2901                           ; =============== function i1_init_timer ends ============
  2902                           
  2903                           psect	text120,local,class=CODE,delta=2
  2904                           global __ptext120
  2905  01DF                     __ptext120:
  2906                           	line	96
  2907                           	signat	i1_init_timer,88
  2908                           	global	_k1
  2909                           
  2910                           ; *************** function _k1 *****************
  2911                           ; Defined at:
  2912                           ;		line 247 in file "D:\ABHISHEK JOSHI\PIC\UART\UART T9\UART T9.C"
  2913                           ; Parameters:    Size  Location     Type
  2914                           ;		None
  2915                           ; Auto vars:     Size  Location     Type
  2916                           ;		None
  2917                           ; Return value:  Size  Location     Type
  2918                           ;		None               void
  2919                           ; Registers used:
  2920                           ;		wreg, status,2, status,0
  2921                           ; Tracked objects:
  2922                           ;		On entry : 0/0
  2923                           ;		On exit  : 0/0
  2924                           ;		Unchanged: 0/0
  2925                           ; Data sizes:     COMMON   BANK0   BANK1   BANK3   BANK2
  2926                           ;      Locals:         0       0       0       0       0
  2927                           ;      Temp:     0
  2928                           ;      Total:    0
  2929                           ; This function calls:
  2930                           ;		Nothing
  2931                           ; This function is called by:
  2932                           ;		_scanner
  2933                           ; This function uses a non-reentrant model
  2934                           ; 
  2935                           psect	text120
  2936                           	file	"D:\ABHISHEK JOSHI\PIC\UART\UART T9\UART T9.C"
  2937                           	line	247
  2938                           	global	__size_of_k1
  2939  0071                     	__size_of_k1	equ	__end_of_k1-_k1
  2940                           ;UART T9.C: 246: void k1()
  2941                           ;UART T9.C: 247: {
  2942                           	
  2943  01DF                     _k1:	
  2944                           	opt stack 3
  2945                           ; Regs used in _k1: [wreg+status,2+status,0]
  2946                           	line	248
  2947                           	
  2948  01DF                     i1l30000618:	
  2949                           ;UART T9.C: 248: if(key_ready==1)
  2950  01DF  3001               	movlw	01h
  2951  01E0  1283               	bcf	status, 5	;RP0=0, select bank0
  2952  01E1  1303               	bcf	status, 6	;RP1=0, select bank0
  2953  01E2  065D               	xorwf	(_key_ready),w
  2954  01E3  045E               	iorwf	(_key_ready+1),w
  2955  01E4  1D03               	skipz
  2956  01E5  29E7               	goto	u30_21
  2957  01E6  29E8               	goto	u30_20
  2958  01E7                     u30_21:
  2959  01E7  2A0E               	goto	i1l30000624
  2960  01E8                     u30_20:
  2961                           	
  2962  01E8                     i1l30000619:	
  2963                           	line	250
  2964                           ;UART T9.C: 249: {
  2965                           ;UART T9.C: 250: if(c==0)
  2966  01E8  0876               	movf	((_c+1)),w
  2967  01E9  0475               	iorwf	((_c)),w
  2968  01EA  1D03               	skipz
  2969  01EB  29ED               	goto	u31_21
  2970  01EC  29EE               	goto	u31_20
  2971  01ED                     u31_21:
  2972  01ED  29F3               	goto	i1l30000621
  2973  01EE                     u31_20:
  2974                           	
  2975  01EE                     i1l30000620:	
  2976                           	line	252
  2977                           ;UART T9.C: 251: {
  2978                           ;UART T9.C: 252: krcount=32;
  2979  01EE  3020               	movlw	low(020h)
  2980  01EF  00EB               	movwf	(_krcount)
  2981  01F0  3000               	movlw	high(020h)
  2982  01F1  00EC               	movwf	((_krcount))+1
  2983  01F2  2A4F               	goto	i1l33
  2984                           	
  2985  01F3                     i1l30000621:	
  2986                           	line	256
  2987                           ;UART T9.C: 254: else
  2988                           ;UART T9.C: 255: {
  2989                           ;UART T9.C: 256: krcount=krcount-1;
  2990  01F3  086B               	movf	(_krcount),w
  2991  01F4  3EFF               	addlw	low(-1)
  2992  01F5  00EB               	movwf	(_krcount)
  2993  01F6  086C               	movf	(_krcount+1),w
  2994  01F7  1803               	skipnc
  2995  01F8  3E01               	addlw	1
  2996  01F9  3EFF               	addlw	high(-1)
  2997  01FA  00EC               	movwf	1+(_krcount)
  2998                           	
  2999  01FB                     i1l30000622:	
  3000                           	line	258
  3001                           ;UART T9.C: 258: if(krcount==0)
  3002  01FB  086C               	movf	((_krcount+1)),w
  3003  01FC  046B               	iorwf	((_krcount)),w
  3004  01FD  1D03               	skipz
  3005  01FE  2A00               	goto	u32_21
  3006  01FF  2A01               	goto	u32_20
  3007  0200                     u32_21:
  3008  0200  2A4F               	goto	i1l33
  3009  0201                     u32_20:
  3010                           	
  3011  0201                     i1l30000623:	
  3012                           	line	260
  3013                           ;UART T9.C: 259: {
  3014                           ;UART T9.C: 260: nkp=1;
  3015  0201  3001               	movlw	low(01h)
  3016  0202  00DF               	movwf	(_nkp)
  3017  0203  3000               	movlw	high(01h)
  3018  0204  00E0               	movwf	((_nkp))+1
  3019                           	line	261
  3020                           ;UART T9.C: 261: start_buzzer=0;
  3021  0205  3000               	movlw	low(0)
  3022  0206  00E1               	movwf	(_start_buzzer)
  3023  0207  3000               	movlw	high(0)
  3024  0208  00E2               	movwf	((_start_buzzer))+1
  3025                           	line	262
  3026                           ;UART T9.C: 262: krcount=32;
  3027  0209  3020               	movlw	low(020h)
  3028  020A  00EB               	movwf	(_krcount)
  3029  020B  3000               	movlw	high(020h)
  3030  020C  00EC               	movwf	((_krcount))+1
  3031  020D  2A4F               	goto	i1l33
  3032                           	
  3033  020E                     i1l30000624:	
  3034                           	line	266
  3035                           ;UART T9.C: 266: else if(dcount==33)
  3036  020E  3021               	movlw	021h
  3037  020F  0679               	xorwf	(_dcount),w
  3038  0210  047A               	iorwf	(_dcount+1),w
  3039  0211  1D03               	skipz
  3040  0212  2A14               	goto	u33_21
  3041  0213  2A15               	goto	u33_20
  3042  0214                     u33_21:
  3043  0214  2A2A               	goto	i1l30000627
  3044  0215                     u33_20:
  3045                           	
  3046  0215                     i1l30000625:	
  3047                           	line	268
  3048                           ;UART T9.C: 267: {
  3049                           ;UART T9.C: 268: if(c==0)
  3050  0215  0876               	movf	((_c+1)),w
  3051  0216  0475               	iorwf	((_c)),w
  3052  0217  1D03               	skipz
  3053  0218  2A1A               	goto	u34_21
  3054  0219  2A1B               	goto	u34_20
  3055  021A                     u34_21:
  3056  021A  2A4F               	goto	i1l33
  3057  021B                     u34_20:
  3058                           	
  3059  021B                     i1l30000626:	
  3060                           	line	270
  3061                           ;UART T9.C: 269: {
  3062                           ;UART T9.C: 270: dcount=dcount-1;
  3063  021B  0879               	movf	(_dcount),w
  3064  021C  3EFF               	addlw	low(-1)
  3065  021D  00F9               	movwf	(_dcount)
  3066  021E  087A               	movf	(_dcount+1),w
  3067  021F  1803               	skipnc
  3068  0220  3E01               	addlw	1
  3069  0221  3EFF               	addlw	high(-1)
  3070  0222  00FA               	movwf	1+(_dcount)
  3071                           	line	271
  3072                           ;UART T9.C: 271: key_code=scan_no;
  3073  0223  0878               	movf	(_scan_no+1),w
  3074  0224  01DC               	clrf	(_key_code+1)
  3075  0225  07DC               	addwf	(_key_code+1)
  3076  0226  0877               	movf	(_scan_no),w
  3077  0227  01DB               	clrf	(_key_code)
  3078  0228  07DB               	addwf	(_key_code)
  3079                           
  3080  0229  2A4F               	goto	i1l33
  3081                           	
  3082  022A                     i1l30000627:	
  3083                           	line	278
  3084                           ;UART T9.C: 276: else
  3085                           ;UART T9.C: 277: {
  3086                           ;UART T9.C: 278: dcount=dcount-1;
  3087  022A  0879               	movf	(_dcount),w
  3088  022B  3EFF               	addlw	low(-1)
  3089  022C  00F9               	movwf	(_dcount)
  3090  022D  087A               	movf	(_dcount+1),w
  3091  022E  1803               	skipnc
  3092  022F  3E01               	addlw	1
  3093  0230  3EFF               	addlw	high(-1)
  3094  0231  00FA               	movwf	1+(_dcount)
  3095                           	
  3096  0232                     i1l30000628:	
  3097                           	line	279
  3098                           ;UART T9.C: 279: if(dcount==0)
  3099  0232  087A               	movf	((_dcount+1)),w
  3100  0233  0479               	iorwf	((_dcount)),w
  3101  0234  1D03               	skipz
  3102  0235  2A37               	goto	u35_21
  3103  0236  2A38               	goto	u35_20
  3104  0237                     u35_21:
  3105  0237  2A4F               	goto	i1l33
  3106  0238                     u35_20:
  3107                           	
  3108  0238                     i1l30000629:	
  3109                           	line	281
  3110                           ;UART T9.C: 280: {
  3111                           ;UART T9.C: 281: if(c==0)
  3112  0238  0876               	movf	((_c+1)),w
  3113  0239  0475               	iorwf	((_c)),w
  3114  023A  1D03               	skipz
  3115  023B  2A3D               	goto	u36_21
  3116  023C  2A3E               	goto	u36_20
  3117  023D                     u36_21:
  3118  023D  2A4B               	goto	i1l30000631
  3119  023E                     u36_20:
  3120                           	
  3121  023E                     i1l30000630:	
  3122                           	line	283
  3123                           ;UART T9.C: 282: {
  3124                           ;UART T9.C: 283: key_ready=1;
  3125  023E  3001               	movlw	low(01h)
  3126  023F  00DD               	movwf	(_key_ready)
  3127  0240  3000               	movlw	high(01h)
  3128  0241  00DE               	movwf	((_key_ready))+1
  3129                           	line	284
  3130                           ;UART T9.C: 284: start_buzzer=1;
  3131  0242  3001               	movlw	low(01h)
  3132  0243  00E1               	movwf	(_start_buzzer)
  3133  0244  3000               	movlw	high(01h)
  3134  0245  00E2               	movwf	((_start_buzzer))+1
  3135                           	line	285
  3136                           ;UART T9.C: 285: dcount=33;
  3137  0246  3021               	movlw	low(021h)
  3138  0247  00F9               	movwf	(_dcount)
  3139  0248  3000               	movlw	high(021h)
  3140  0249  00FA               	movwf	((_dcount))+1
  3141  024A  2A4F               	goto	i1l33
  3142                           	
  3143  024B                     i1l30000631:	
  3144                           	line	287
  3145                           ;UART T9.C: 287: else dcount=33;
  3146  024B  3021               	movlw	low(021h)
  3147  024C  00F9               	movwf	(_dcount)
  3148  024D  3000               	movlw	high(021h)
  3149  024E  00FA               	movwf	((_dcount))+1
  3150                           	
  3151  024F                     i1l33:	
  3152  024F  0008               	return
  3153                           	opt stack 0
  3154                           GLOBAL	__end_of_k1
  3155  0250                     	__end_of_k1:
  3156                           ; =============== function _k1 ends ============
  3157                           
  3158                           psect	text121,local,class=CODE,delta=2
  3159                           global __ptext121
  3160  042D                     __ptext121:
  3161                           	line	291
  3162                           	signat	_k1,88
  3163                           	global	btemp
  3164  007E                     	btemp set 07Eh


HI-TECH Software PICC Macro Assembler V9.70 build 5239 
Symbol Table                                                                                   Tue Jan 01 15:43:43 2002

        uart_delay@del 0067                      _a 0055                      _c 0075                      _i 0057  
                    _k 0059                      pc 0002                     l10 0419                     l11 03DC  
                   l13 0375                     _DA 04A5                     _BF 04A0                     _DC 0019  
                   l72 0356                     l64 03F7                     l65 0423                     l58 03BC  
                   l67 02F6                     l68 040E                     l76 034A                     l69 0405  
            tx@tx_data 0070                     _PD 001B                     _RD 0C60                     _UA 04A1  
                   _TO 001C                     _RW 04A2                     _WR 0C61                     _k1 01DF  
                   _tb 0063                     _tx 0404                     fsr 0004            __pbssCOMMON 0075  
         i1_init_timer 03DD                    ?_k1 00B9                    _CM0 04E0                    _CM1 04E1  
                  _CM2 04E2                    ?_tx 0071                    _CKE 04A6                    _CIS 04E3  
                  _CKP 00A4                    _GIE 005F                    _BOR 0470                    _RA0 0028  
                  _RA1 0029                    _RB0 0030                    _RA2 002A                    _RB1 0031  
                  _RA3 002B                    _RC0 0038                    _RB2 0032                    _RA4 002C  
                  _RC1 0039                    _RB3 0033                    _RA5 002D                    _RC2 003A  
                  _RB4 0034                    _RC3 003B                    _RB5 0035                    _RC4 003C  
                  _RB6 0036                    _RC5 003D                    _RB7 0037                    _RC6 003E  
                  _RC7 003F                    u150 03B4                    u151 03B3                    _FSR 0004  
                  _PCL 0002                    u180 040B                    u181 040A                    u270 0344  
                  _PS0 0408                    _PR2 0092                    u271 0343                    _PS1 0409  
                  u280 0356                    _PS2 040A                    _PEN 048A                    _RP0 001D  
                  _IRP 001F                    u281 0355                    _RP1 001E                    u290 0274  
                  u275 0340                    u291 0273                    u285 0352                    i1l2 0385  
                  _SEN 0488                    _PSA 040B                    _POR 0471                    _RX9 00C6  
                  _SMP 04A7                    _TX9 04C6        __size_of_isr_t0 001C                    _ds1 007B  
                  _ds2 0052                    _ds3 0053                    _ds4 0054        __size_of_buzzer 000C  
                  _cnt 00A0                    _nkp 005F                    fsr0 0004                    indf 0000  
 __end_ofi1_init_timer 03EC           ??_init_timer 0070          ??_home_screen 0071           _start_buzzer 0061  
                 ??_k1 0069               _cmd_data 0065             _uart_delay 0328                   ??_tx 0070  
   __end_of_uart_delay 0357                   _ADIE 0466                   _ADIF 0066                   _ADFM 04FF  
                 _ADGO 00FA                   _ADON 00F8                   _CHS0 00FB                   _CHS1 00FC  
                 _CHS2 00FD                   _EEIE 046C                   _EEIF 006C                   _GCEN 048F  
                 _CMIE 046E                   _CMIF 006E                   _BRGH 04C2                   _T0IE 005D  
                 _T0IF 005A                   _CREN 00C4                   _T0CS 040D                   _FERR 00C2  
                 _CVR0 04E8                   _CVR1 04E9                   _CVR2 04EA                   _CVR3 04EB  
                 _T0SE 040C                   _CSRC 04C7                   _INDF 0000                   _PIE1 008C  
                 _PIE2 008D                   _CVRR 04ED                   i1l11 03EB                   _PEIE 005E  
                 i1l21 007A                   _INTE 005C                   i1l14 01DE                   _INTF 0059  
                 _RBIE 005B                   _RBIF 0058                   i1l33 024F                   i1l25 00DE  
                 i1l17 0016                   _RCIE 0465                   _RCEN 048B                   _RCIF 0065  
                 i1l29 0142                   i1l62 0403                   _PCON 008E                   _PIR1 000C  
                 _PIR2 000D                   _OERR 00C1                   _RBPU 040F           __pidataBANK0 028E  
         __pidataBANK1 0392                   _RX9D 00C0                   _TMR0 0001                   _TMR2 0011  
                 _WCOL 00A7                   _SPEN 00C7                   _RSEN 0489                   _TX9D 04C0  
                 _SREN 00C5                   _TRMT 04C1                   _STOP 04A4                   _TXIE 0464  
                 _ZERO 001A                   _WREN 0C62                   _TXEN 04C5                   _TXIF 0064  
                 _SYNC 04C4          ??_key_release 0070          ??_init_keypad 0070       __size_of_scanner 01CA  
                 _disp 0039                   _main 0250                   _init 040F            ?_uart_delay 0067  
                 btemp 007E               _key_code 005B                   start 0012      interrupt_function 0004  
  start_initialization 02F7            uart_delay@i 0071            uart_delay@j 0073               clear_ram 0424  
            __pnvBANK0 006B                _CCP1CON 0017                _CCP2CON 001D                _ACKSTAT 048E  
              ?_isr_t0 00BD                ?_buzzer 0069          ?i1_init_timer 0069                  _C1INV 04E4  
             ??_isr_t0 00B9                  _C2INV 04E5               ??_buzzer 0069                  _C1OUT 04E6  
            _ascii_tab 0020                  _C2OUT 04E7                  _ADCS0 00FE                  _ADCS1 00FF  
                _ADCS2 04FE                  _ADDEN 00C3                  ?_main 0075                  _ACKEN 048C  
            __ptext110 040F                  _ACKDT 048D              __ptext111 02C3              __ptext120 01DF  
            __ptext112 0357              __ptext121 042D              __ptext113 03CE              __ptext114 0328  
            __ptext115 0404              __ptext107 03EC              __ptext116 0376              __ptext108 03AB  
                ?_init 0070              __ptext117 0015              __ptext109 041A              __ptext118 03F8  
            __ptext119 03DD                  _BCLIE 046B                  _BCLIF 006B                  _CCP1X 00BD  
                _CCP1Y 00BC                  _CCP2X 00ED                  _CCP2Y 00EC                  _EEADR 010D  
                _CARRY 0018                  _EEPGD 0C67                  _CMCON 009C           ??_uart_delay 0070  
                _T1CON 0010                  _T2CON 0012                _T1CKPS0 0084                _T1CKPS1 0085  
                _PCFG0 04F8                  _PCFG1 04F9                  _PCFG2 04FA                  _PCFG3 04FB  
              _T2CKPS0 0090                _T2CKPS1 0091                  _CVREN 04EF                  _CVROE 04EE  
                _RCREG 001A                  _RCSTA 0018                  u30_20 01E8                  u30_21 01E7  
                u31_20 01EE                  u31_21 01ED                  u32_20 0201                  u32_21 0200  
                u33_20 0215                  u33_21 0214                  _TMR1H 000F                  _TMR1L 000E  
                u34_20 021B                  u34_21 021A                  _SPBRG 0099                  u35_20 0238  
                u35_21 0237                  _PORTA 0005                  _PORTB 0006                _T1OSCEN 0083  
                _PORTC 0007                  u36_20 023E                  u36_21 023D                  u37_20 0401  
                u37_21 0400                  _START 04A3                  _SSPM0 00A0                  _SSPM1 00A1  
                _SSPM2 00A2                  _SSPM3 00A3                  _TRISA 0085                  _TRISB 0086  
                _TRISC 0087                  _SSPIE 0463                  _SSPIF 0063                  _SSPEN 00A5  
              i1l30013 01D9                i1l30014 01A7                  _SSPOV 00A6                  _WRERR 0C63  
                _TXREG 0019                  _TXSTA 0098              _disp_data 0066          __pidataCOMMON 042C  
      __end_of_scanner 01DF            __size_of_k1 0071            __size_of_tx 000B         __pcstackCOMMON 0070  
              _SSPCON2 0091  __size_ofi1_init_timer 000F             __end_of_k1 0250             __end_of_tx 040F  
              _SSPSTAT 0094                _TOUTPS0 0093                _TOUTPS1 0094                _TOUTPS2 0095  
              _TOUTPS3 0096                  pclath 000A               intlevel1 0004              _key_ready 005D  
                status 0003              _init_uart 041A      __end_of_init_uart 0424             ?_init_uart 0070  
  __size_of_init_timer 000F          __size_of_main 003E             __pbssBANK0 0055          __size_of_init 000B  
             l30000601 0331               l30000602 0344               l30000610 0262               l30000603 02C3  
             l30000611 0267               l30000604 03EC               l30000612 026A               l30000613 026B  
             l30000605 0250               l30000614 0274               l30000606 0257               l30000615 027A  
             l30000607 0259               l30000616 0280               l30000608 025B               l30000617 0285  
             l30000609 025D               l30000570 035D               l30000562 03AB               l30000571 03CE  
             l30000563 03AB               l30000580 040B               l30000572 03D6               l30000564 03B4  
             l30000581 040D               l30000573 03D9               l30000565 041A               l30000566 0420  
             l30000567 040F               l30000569 0357               l30000579 0405               l30000598 0328  
             l30000599 032D            ??_init_uart 0070             __pnvCOMMON 0079              _uart_disp 03EC  
               ??_main 0071      __end_of_uart_disp 03F8                 ??_init 0070             __pmaintext 0250  
           ?_uart_disp 0075                _scan_no 0077                _scanner 0015                _krcount 006B  
             ?_scanner 00B9             __pintentry 0004              ??_scanner 0069                 _ADCON0 001F  
               _ADCON1 009F                 _CCP1M0 00B8                 _CCP1M1 00B9                 _CCP1M2 00BA  
               _CCP1M3 00BB                 _CCP2M0 00E8                 _CCP2M1 00E9                 _CCP2M2 00EA  
               _CCP2M3 00EB                 _CCP1IE 0462                 _CCP1IF 0062                 _CCP2IE 0468  
               _CCP2IF 0068                 _ADRESH 001E                 _EEADRH 010F                 _ADRESL 009E  
               _EEADRL 010D                 _EEDATA 010C                 _CCPR1H 0016                 _EEDATH 010E  
               _CCPR2H 001C                 _CCPR1L 0015                 _CCPR2L 001B                 _EECON1 018C  
               _EECON2 018D           __end_of_main 028E            ??_uart_disp 0071           __end_of_init 041A  
               _GODONE 00FA   end_of_initialization 0324                 _CVRCON 009D                 _T1SYNC 0082  
               _INTEDG 040E                 _PCLATH 000A                 _INTCON 000B          __pcstackBANK0 0067  
        __pcstackBANK1 00B9         __end_of_isr_t0 0392         __end_of_buzzer 0404                 _TMR0IE 005D  
               _TMR0IF 005A                 _TMR1IE 0460                 _TMR1IF 0060                 _TMR1CS 0081  
               _TMR2IE 0461                 _TMR2IF 0061                 _OPTION 0081                 _TMR1ON 0080  
               _TMR2ON 0092                 _SSPADD 0093                 _TRISA0 0428                 _TRISA1 0429  
               _TRISB0 0430                 _TRISA2 042A                 _TRISB1 0431                 _TRISA3 042B  
               _TRISC0 0438                 _TRISB2 0432                 _TRISA4 042C                 _TRISC1 0439  
               _TRISB3 0433                 _TRISA5 042D                 _TRISC2 043A                 _TRISB4 0434  
               _TRISC3 043B                 _TRISB5 0435                 _TRISC4 043C                 _TRISB6 0436  
               _TRISC5 043D                 _TRISB7 0437                 _TRISC6 043E                 _TRISC7 043F  
               _STATUS 0003                 _SSPCON 0014                 _SSPBUF 0013                init_ram 03C1  
  __size_of_uart_delay 002F            _home_screen 02C3     __size_of_init_uart 000A    __end_of_home_screen 02F7  
               _dcount 0079            _key_release 03AB                 _isr_t0 0376                 _buzzer 03F8  
           i1l30000620 01EE             i1l30000621 01F3             i1l30000630 023E             i1l30000622 01FB  
           i1l30000631 024B             i1l30000623 0201             i1l30000624 020E             i1l30000640 0058  
           i1l30000632 0015             i1l30000625 0215             i1l30000641 005D             i1l30000633 001C  
           i1l30000626 021B             i1l30000618 01DF             i1l30000650 00A9             i1l30000642 0062  
           i1l30000634 0028             i1l30000627 022A             i1l30000619 01E8             i1l30000651 00AE  
           i1l30000643 0070             i1l30000635 002D             i1l30000628 0232             i1l30000660 00FA  
           i1l30000652 00BC             i1l30000644 0075             i1l30000636 0032             i1l30000629 0238  
           i1l30000661 0108             i1l30000653 00C1             i1l30000645 0080             i1l30000637 0040  
           i1l30000670 0154             i1l30000662 010D             i1l30000654 00C6             i1l30000646 008C  
           i1l30000638 0045             i1l30000671 0159             i1l30000663 0112             i1l30000655 00D4  
           i1l30000647 0091             i1l30000639 004A             i1l30000680 01A1             i1l30000672 015E  
           i1l30000664 0120             i1l30000656 00D9             i1l30000648 0096             i1l30000673 016C  
           i1l30000665 0125             i1l30000657 00E4             i1l30000649 00A4             i1l30000674 0171  
           i1l30000666 012A             i1l30000658 00F0             i1l30000682 01A6             i1l30000675 0176  
           i1l30000667 0138             i1l30000659 00F5             i1l30000683 0376             i1l30000676 0184  
           i1l30000668 013D             i1l30000684 0380             i1l30000685 03F8             i1l30000677 0189  
           i1l30000669 0148             i1l30000686 0401             i1l30000678 018E             i1l30000687 03DD  
           i1l30000679 019C             i1l30000688 03E5             i1l30000689 03E8            _init_keypad 0357  
            init_fetch 03BD    __end_of_key_release 03BD         ??i1_init_timer 0069    __end_of_init_keypad 0376  
               clrloop 0425           ?_home_screen 0075     __size_of_uart_disp 000C                 saved_w 007F  
 __size_of_home_screen 0034             _init_timer 03CE     __end_of_init_timer 03DD           ?_key_release 0070  
         ?_init_keypad 0070   __size_of_key_release 0012            ?_init_timer 0070   __size_of_init_keypad 001F  
          __pdataBANK0 0020            __pdataBANK1 00A0           __pdataCOMMON 007B  
