

HI-TECH Software PIC LITE Macro Assembler V9.70 build 5239 
                                                                                               Tue Jan 01 15:29:27 2002

HI-TECH Software Omniscient Code Generator (Lite mode) build 5239
     1  0000                     opt subtitle "HI-TECH Software Omniscient Code Generator (Lite mode) build 5239"
     2                           
     3                           opt pagewidth 120
     4                           
     5                           	opt lm
     6                           
     7                           	processor	16F876A
     8                           clrc	macro
     9                           	bcf	3,0
    10  0000                     	endm
    11                           clrz	macro
    12                           	bcf	3,2
    13  0000                     	endm
    14                           setc	macro
    15                           	bsf	3,0
    16  0000                     	endm
    17                           setz	macro
    18                           	bsf	3,2
    19  0000                     	endm
    20                           skipc	macro
    21                           	btfss	3,0
    22  0000                     	endm
    23                           skipz	macro
    24                           	btfss	3,2
    25  0000                     	endm
    26                           skipnc	macro
    27                           	btfsc	3,0
    28  0000                     	endm
    29                           skipnz	macro
    30                           	btfsc	3,2
    31  0000                     	endm
    32  0000                     indf	equ	0
    33  0000                     indf0	equ	0
    34  0002                     pc	equ	2
    35  0002                     pcl	equ	2
    36  0003                     status	equ	3
    37  0004                     fsr	equ	4
    38  0004                     fsr0	equ	4
    39  0001                     c	equ	1
    40  0000                     z	equ	0
    41  000A                     pclath	equ	10
    42                           ;COMMON:	_main->_delay
    43                           ;BANK0:	_main->_delay
    44                           	FNCALL	_main,_init_uart
    45                           	FNCALL	_main,_init
    46                           	FNCALL	_main,_uart_disp
    47                           	FNCALL	_main,_delay
    48                           	FNCALL	_main,_incrementd
    49                           	FNCALL	_uart_disp,_home_screen
    50                           	FNCALL	_uart_disp,_tx
    51                           	FNCALL	_uart_disp,_uart_delay
    52                           	FNCALL	_init,_init_timer
    53                           	FNCALL	_home_screen,_tx
    54                           	FNCALL	_home_screen,_uart_delay
    55                           	FNROOT	_main
    56                           	FNCALL	_isr_t0,i1_init_timer
    57                           	FNCALL	_isr_t0,_scanner
    58                           	FNCALL	intlevel1,_isr_t0
    59                           	global	intlevel1
    60                           	FNROOT	intlevel1
    61                           	global	_disp
    62                           	global	_cnt
    63                           	global	_ds1
    64                           	global	_ds2
    65                           	global	_ds3
    66                           	global	_ds4
    67                           psect	idataBANK0,class=CODE,space=0,delta=2
    68                           global __pidataBANK0
    69  0222                     __pidataBANK0:
    70                           	file	"D:\ABHISHEK JOSHI\PIC\UART\UART T8\UART T8.C"
    71                           	line	16
    72                           
    73                           ;initializer for _disp
    74  0222  34FC               	retlw	0FCh
    75  0223  3460               	retlw	060h
    76  0224  34DA               	retlw	0DAh
    77  0225  34F2               	retlw	0F2h
    78  0226  3466               	retlw	066h
    79  0227  34B6               	retlw	0B6h
    80  0228  34BE               	retlw	0BEh
    81  0229  34E0               	retlw	0E0h
    82  022A  34FE               	retlw	0FEh
    83  022B  34F6               	retlw	0F6h
    84  022C  34FF               	retlw	0FFh
    85  022D  34FF               	retlw	0FFh
    86  022E  34FF               	retlw	0FFh
    87  022F  34FF               	retlw	0FFh
    88  0230  34FF               	retlw	0FFh
    89  0231  34FF               	retlw	0FFh
    90  0232  34FF               	retlw	0FFh
    91  0233  34EE               	retlw	0EEh
    92  0234  343E               	retlw	03Eh
    93  0235  349C               	retlw	09Ch
    94  0236  347A               	retlw	07Ah
    95  0237  349E               	retlw	09Eh
    96  0238  348E               	retlw	08Eh
    97  0239  3400               	retlw	0
    98  023A  3400               	retlw	0
    99                           	line	15
   100                           
   101                           ;initializer for _cnt
   102  023B  3443               	retlw	043h
   103  023C  344F               	retlw	04Fh
   104  023D  3455               	retlw	055h
   105  023E  344E               	retlw	04Eh
   106  023F  3454               	retlw	054h
   107  0240  3445               	retlw	045h
   108  0241  3452               	retlw	052h
   109  0242  3400               	retlw	0
   110  0243  3400               	retlw	0
   111  0244  3400               	retlw	0
   112                           psect	idataCOMMON,class=CODE,space=0,delta=2
   113                           global __pidataCOMMON
   114  02AA                     __pidataCOMMON:
   115                           	line	17
   116                           
   117                           ;initializer for _ds1
   118  02AA  3430               	retlw	030h
   119                           
   120                           ;initializer for _ds2
   121  02AB  3430               	retlw	030h
   122                           
   123                           ;initializer for _ds3
   124  02AC  3430               	retlw	030h
   125                           
   126                           ;initializer for _ds4
   127  02AD  3430               	retlw	030h
   128                           	global	_i
   129                           	global	_k
   130                           	global	_scan_no
   131                           	global	_cmd_data
   132                           	global	_ADCON0
   133  001F                     _ADCON0  equ     31
   134                           	global	_ADRESH
   135  001E                     _ADRESH  equ     30
   136                           	global	_CCP1CON
   137  0017                     _CCP1CON  equ     23
   138                           	global	_CCP2CON
   139  001D                     _CCP2CON  equ     29
   140                           	global	_CCPR1H
   141  0016                     _CCPR1H  equ     22
   142                           	global	_CCPR1L
   143  0015                     _CCPR1L  equ     21
   144                           	global	_CCPR2H
   145  001C                     _CCPR2H  equ     28
   146                           	global	_CCPR2L
   147  001B                     _CCPR2L  equ     27
   148                           	global	_FSR
   149  0004                     _FSR  equ     4
   150                           	global	_INDF
   151  0000                     _INDF  equ     0
   152                           	global	_INTCON
   153  000B                     _INTCON  equ     11
   154                           	global	_PCL
   155  0002                     _PCL  equ     2
   156                           	global	_PCLATH
   157  000A                     _PCLATH  equ     10
   158                           	global	_PIR1
   159  000C                     _PIR1  equ     12
   160                           	global	_PIR2
   161  000D                     _PIR2  equ     13
   162                           	global	_PORTA
   163  0005                     _PORTA  equ     5
   164                           	global	_PORTB
   165  0006                     _PORTB  equ     6
   166                           	global	_PORTC
   167  0007                     _PORTC  equ     7
   168                           	global	_RCREG
   169  001A                     _RCREG  equ     26
   170                           	global	_RCSTA
   171  0018                     _RCSTA  equ     24
   172                           	global	_SSPBUF
   173  0013                     _SSPBUF  equ     19
   174                           	global	_SSPCON
   175  0014                     _SSPCON  equ     20
   176                           	global	_STATUS
   177  0003                     _STATUS  equ     3
   178                           	global	_T1CON
   179  0010                     _T1CON  equ     16
   180                           	global	_T2CON
   181  0012                     _T2CON  equ     18
   182                           	global	_TMR0
   183  0001                     _TMR0  equ     1
   184                           	global	_TMR1H
   185  000F                     _TMR1H  equ     15
   186                           	global	_TMR1L
   187  000E                     _TMR1L  equ     14
   188                           	global	_TMR2
   189  0011                     _TMR2  equ     17
   190                           	global	_TXREG
   191  0019                     _TXREG  equ     25
   192                           	global	_ADCS0
   193  00FE                     _ADCS0  equ     254
   194                           	global	_ADCS1
   195  00FF                     _ADCS1  equ     255
   196                           	global	_ADDEN
   197  00C3                     _ADDEN  equ     195
   198                           	global	_ADGO
   199  00FA                     _ADGO  equ     250
   200                           	global	_ADIF
   201  0066                     _ADIF  equ     102
   202                           	global	_ADON
   203  00F8                     _ADON  equ     248
   204                           	global	_BCLIF
   205  006B                     _BCLIF  equ     107
   206                           	global	_CARRY
   207  0018                     _CARRY  equ     24
   208                           	global	_CCP1IF
   209  0062                     _CCP1IF  equ     98
   210                           	global	_CCP1M0
   211  00B8                     _CCP1M0  equ     184
   212+                          	global	_CCP1M1
   213+ 00B9                     _CCP1M1  equ     185
   214                           	global	_CCP1M2
   215  00BA                     _CCP1M2  equ     186
   216                           	global	_CCP1M3
   217  00BB                     _CCP1M3  equ     187
   218+                          	global	_CCP1X
   219+ 00BD                     _CCP1X  equ     189
   220+                          	global	_CCP1Y
   221+ 00BC                     _CCP1Y  equ     188
   222+                          	global	_CCP2IF
   223+ 0068                     _CCP2IF  equ     104
   224+                          	global	_CCP2M0
   225+ 00E8                     _CCP2M0  equ     232
   226                           	global	_CCP2M1
   227  00E9                     _CCP2M1  equ     233
   228+                          	global	_CCP2M2
   229+ 00EA                     _CCP2M2  equ     234
   230                           	global	_CCP2M3
   231  00EB                     _CCP2M3  equ     235
   232+                          	global	_CCP2X
   233+ 00ED                     _CCP2X  equ     237
   234+                          	global	_CCP2Y
   235+ 00EC                     _CCP2Y  equ     236
   236+                          	global	_CHS0
   237+ 00FB                     _CHS0  equ     251
   238+                          	global	_CHS1
   239+ 00FC                     _CHS1  equ     252
   240+                          	global	_CHS2
   241+ 00FD                     _CHS2  equ     253
   242                           	global	_CKP
   243  00A4                     _CKP  equ     164
   244+                          	global	_CMIF
   245+ 006E                     _CMIF  equ     110
   246+                          	global	_CREN
   247+ 00C4                     _CREN  equ     196
   248+                          	global	_DC
   249+ 0019                     _DC  equ     25
   250+                          	global	_EEIF
   251+ 006C                     _EEIF  equ     108
   252+                          	global	_FERR
   253+ 00C2                     _FERR  equ     194
   254                           	global	_GIE
   255  005F                     _GIE  equ     95
   256+                          	global	_GODONE
   257+ 00FA                     _GODONE  equ     250
   258                           	global	_INTE
   259  005C                     _INTE  equ     92
   260+                          	global	_INTF
   261+ 0059                     _INTF  equ     89
   262+                          	global	_IRP
   263+ 001F                     _IRP  equ     31
   264+                          	global	_OERR
   265+ 00C1                     _OERR  equ     193
   266+                          	global	_PD
   267+ 001B                     _PD  equ     27
   268+                          	global	_PEIE
   269+ 005E                     _PEIE  equ     94
   270                           	global	_RA0
   271  0028                     _RA0  equ     40
   272+                          	global	_RA1
   273+ 0029                     _RA1  equ     41
   274+                          	global	_RA2
   275+ 002A                     _RA2  equ     42
   276+                          	global	_RA3
   277+ 002B                     _RA3  equ     43
   278+                          	global	_RA4
   279+ 002C                     _RA4  equ     44
   280+                          	global	_RA5
   281+ 002D                     _RA5  equ     45
   282                           	global	_RB0
   283  0030                     _RB0  equ     48
   284+                          	global	_RB1
   285+ 0031                     _RB1  equ     49
   286                           	global	_RB2
   287  0032                     _RB2  equ     50
   288+                          	global	_RB3
   289+ 0033                     _RB3  equ     51
   290+                          	global	_RB4
   291+ 0034                     _RB4  equ     52
   292+                          	global	_RB5
   293+ 0035                     _RB5  equ     53
   294+                          	global	_RB6
   295+ 0036                     _RB6  equ     54
   296+                          	global	_RB7
   297+ 0037                     _RB7  equ     55
   298                           	global	_RBIE
   299  005B                     _RBIE  equ     91
   300+                          	global	_RBIF
   301+ 0058                     _RBIF  equ     88
   302+                          	global	_RC0
   303+ 0038                     _RC0  equ     56
   304+                          	global	_RC1
   305+ 0039                     _RC1  equ     57
   306+                          	global	_RC2
   307+ 003A                     _RC2  equ     58
   308+                          	global	_RC3
   309+ 003B                     _RC3  equ     59
   310                           	global	_RC4
   311  003C                     _RC4  equ     60
   312+                          	global	_RC5
   313+ 003D                     _RC5  equ     61
   314                           	global	_RC6
   315  003E                     _RC6  equ     62
   316+                          	global	_RC7
   317+ 003F                     _RC7  equ     63
   318+                          	global	_RCIF
   319+ 0065                     _RCIF  equ     101
   320+                          	global	_RP0
   321+ 001D                     _RP0  equ     29
   322+                          	global	_RP1
   323+ 001E                     _RP1  equ     30
   324+                          	global	_RX9
   325+ 00C6                     _RX9  equ     198
   326                           	global	_RX9D
   327  00C0                     _RX9D  equ     192
   328+                          	global	_SPEN
   329+ 00C7                     _SPEN  equ     199
   330+                          	global	_SREN
   331+ 00C5                     _SREN  equ     197
   332+                          	global	_SSPEN
   333+ 00A5                     _SSPEN  equ     165
   334                           	global	_SSPIF
   335  0063                     _SSPIF  equ     99
   336+                          	global	_SSPM0
   337+ 00A0                     _SSPM0  equ     160
   338                           	global	_SSPM1
   339  00A1                     _SSPM1  equ     161
   340+                          	global	_SSPM2
   341+ 00A2                     _SSPM2  equ     162
   342                           	global	_SSPM3
   343  00A3                     _SSPM3  equ     163
   344+                          	global	_SSPOV
   345+ 00A6                     _SSPOV  equ     166
   346+                          	global	_T0IE
   347+ 005D                     _T0IE  equ     93
   348+                          	global	_T0IF
   349+ 005A                     _T0IF  equ     90
   350+                          	global	_T1CKPS0
   351+ 0084                     _T1CKPS0  equ     132
   352+                          	global	_T1CKPS1
   353+ 0085                     _T1CKPS1  equ     133
   354                           	global	_T1OSCEN
   355  0083                     _T1OSCEN  equ     131
   356                           	global	_T1SYNC
   357  0082                     _T1SYNC  equ     130
   358+                          	global	_T2CKPS0
   359+ 0090                     _T2CKPS0  equ     144
   360+                          	global	_T2CKPS1
   361+ 0091                     _T2CKPS1  equ     145
   362                           	global	_TMR0IE
   363  005D                     _TMR0IE  equ     93
   364+                          	global	_TMR0IF
   365+ 005A                     _TMR0IF  equ     90
   366                           	global	_TMR1CS
   367  0081                     _TMR1CS  equ     129
   368+                          	global	_TMR1IF
   369+ 0060                     _TMR1IF  equ     96
   370                           	global	_TMR1ON
   371  0080                     _TMR1ON  equ     128
   372+                          	global	_TMR2IF
   373+ 0061                     _TMR2IF  equ     97
   374+                          	global	_TMR2ON
   375+ 0092                     _TMR2ON  equ     146
   376+                          	global	_TO
   377+ 001C                     _TO  equ     28
   378+                          	global	_TOUTPS0
   379+ 0093                     _TOUTPS0  equ     147
   380+                          	global	_TOUTPS1
   381+ 0094                     _TOUTPS1  equ     148
   382                           	global	_TOUTPS2
   383  0095                     _TOUTPS2  equ     149
   384+                          	global	_TOUTPS3
   385+ 0096                     _TOUTPS3  equ     150
   386+                          	global	_TXIF
   387+ 0064                     _TXIF  equ     100
   388+                          	global	_WCOL
   389+ 00A7                     _WCOL  equ     167
   390+                          	global	_ZERO
   391+ 001A                     _ZERO  equ     26
   392+                          	global	_ADCON1
   393+ 009F                     _ADCON1  equ     159
   394                           	global	_ADRESL
   395  009E                     _ADRESL  equ     158
   396+                          	global	_CMCON
   397+ 009C                     _CMCON  equ     156
   398                           	global	_CVRCON
   399  009D                     _CVRCON  equ     157
   400+                          	global	_OPTION
   401+ 0081                     _OPTION  equ     129
   402+                          	global	_PCON
   403+ 008E                     _PCON  equ     142
   404+                          	global	_PIE1
   405+ 008C                     _PIE1  equ     140
   406+                          	global	_PIE2
   407+ 008D                     _PIE2  equ     141
   408+                          	global	_PR2
   409+ 0092                     _PR2  equ     146
   410                           	global	_SPBRG
   411  0099                     _SPBRG  equ     153
   412+                          	global	_SSPADD
   413+ 0093                     _SSPADD  equ     147
   414+                          	global	_SSPCON2
   415+ 0091                     _SSPCON2  equ     145
   416+                          	global	_SSPSTAT
   417+ 0094                     _SSPSTAT  equ     148
   418                           	global	_TRISA
   419  0085                     _TRISA  equ     133
   420                           	global	_TRISB
   421  0086                     _TRISB  equ     134
   422+                          	global	_TRISC
   423+ 0087                     _TRISC  equ     135
   424                           	global	_TXSTA
   425  0098                     _TXSTA  equ     152
   426                           	global	_ACKDT
   427  048D                     _ACKDT  equ     1165
   428+                          	global	_ACKEN
   429+ 048C                     _ACKEN  equ     1164
   430                           	global	_ACKSTAT
   431  048E                     _ACKSTAT  equ     1166
   432+                          	global	_ADCS2
   433+ 04FE                     _ADCS2  equ     1278
   434                           	global	_ADFM
   435  04FF                     _ADFM  equ     1279
   436+                          	global	_ADIE
   437+ 0466                     _ADIE  equ     1126
   438+                          	global	_BCLIE
   439+ 046B                     _BCLIE  equ     1131
   440+                          	global	_BF
   441+ 04A0                     _BF  equ     1184
   442+                          	global	_BOR
   443+ 0470                     _BOR  equ     1136
   444+                          	global	_BRGH
   445+ 04C2                     _BRGH  equ     1218
   446                           	global	_C1INV
   447  04E4                     _C1INV  equ     1252
   448                           	global	_C1OUT
   449  04E6                     _C1OUT  equ     1254
   450+                          	global	_C2INV
   451+ 04E5                     _C2INV  equ     1253
   452+                          	global	_C2OUT
   453+ 04E7                     _C2OUT  equ     1255
   454+                          	global	_CCP1IE
   455+ 0462                     _CCP1IE  equ     1122
   456+                          	global	_CCP2IE
   457+ 0468                     _CCP2IE  equ     1128
   458                           	global	_CIS
   459  04E3                     _CIS  equ     1251
   460+                          	global	_CKE
   461+ 04A6                     _CKE  equ     1190
   462                           	global	_CM0
   463  04E0                     _CM0  equ     1248
   464+                          	global	_CM1
   465+ 04E1                     _CM1  equ     1249
   466+                          	global	_CM2
   467+ 04E2                     _CM2  equ     1250
   468+                          	global	_CMIE
   469+ 046E                     _CMIE  equ     1134
   470+                          	global	_CSRC
   471+ 04C7                     _CSRC  equ     1223
   472+                          	global	_CVR0
   473+ 04E8                     _CVR0  equ     1256
   474                           	global	_CVR1
   475  04E9                     _CVR1  equ     1257
   476+                          	global	_CVR2
   477+ 04EA                     _CVR2  equ     1258
   478+                          	global	_CVR3
   479+ 04EB                     _CVR3  equ     1259
   480+                          	global	_CVREN
   481+ 04EF                     _CVREN  equ     1263
   482+                          	global	_CVROE
   483+ 04EE                     _CVROE  equ     1262
   484+                          	global	_CVRR
   485+ 04ED                     _CVRR  equ     1261
   486                           	global	_DA
   487  04A5                     _DA  equ     1189
   488+                          	global	_EEIE
   489+ 046C                     _EEIE  equ     1132
   490                           	global	_GCEN
   491  048F                     _GCEN  equ     1167
   492+                          	global	_INTEDG
   493+ 040E                     _INTEDG  equ     1038
   494+                          	global	_PCFG0
   495+ 04F8                     _PCFG0  equ     1272
   496+                          	global	_PCFG1
   497+ 04F9                     _PCFG1  equ     1273
   498+                          	global	_PCFG2
   499+ 04FA                     _PCFG2  equ     1274
   500+                          	global	_PCFG3
   501+ 04FB                     _PCFG3  equ     1275
   502                           	global	_PEN
   503  048A                     _PEN  equ     1162
   504+                          	global	_POR
   505+ 0471                     _POR  equ     1137
   506+                          	global	_PS0
   507+ 0408                     _PS0  equ     1032
   508+                          	global	_PS1
   509+ 0409                     _PS1  equ     1033
   510+                          	global	_PS2
   511+ 040A                     _PS2  equ     1034
   512+                          	global	_PSA
   513+ 040B                     _PSA  equ     1035
   514                           	global	_RBPU
   515  040F                     _RBPU  equ     1039
   516+                          	global	_RCEN
   517+ 048B                     _RCEN  equ     1163
   518                           	global	_RCIE
   519  0465                     _RCIE  equ     1125
   520+                          	global	_RSEN
   521+ 0489                     _RSEN  equ     1161
   522+                          	global	_RW
   523+ 04A2                     _RW  equ     1186
   524+                          	global	_SEN
   525+ 0488                     _SEN  equ     1160
   526+                          	global	_SMP
   527+ 04A7                     _SMP  equ     1191
   528+                          	global	_SSPIE
   529+ 0463                     _SSPIE  equ     1123
   530                           	global	_START
   531  04A3                     _START  equ     1187
   532+                          	global	_STOP
   533+ 04A4                     _STOP  equ     1188
   534+                          	global	_SYNC
   535+ 04C4                     _SYNC  equ     1220
   536+                          	global	_T0CS
   537+ 040D                     _T0CS  equ     1037
   538+                          	global	_T0SE
   539+ 040C                     _T0SE  equ     1036
   540+                          	global	_TMR1IE
   541+ 0460                     _TMR1IE  equ     1120
   542                           	global	_TMR2IE
   543  0461                     _TMR2IE  equ     1121
   544+                          	global	_TRISA0
   545+ 0428                     _TRISA0  equ     1064
   546                           	global	_TRISA1
   547  0429                     _TRISA1  equ     1065
   548+                          	global	_TRISA2
   549+ 042A                     _TRISA2  equ     1066
   550+                          	global	_TRISA3
   551+ 042B                     _TRISA3  equ     1067
   552+                          	global	_TRISA4
   553+ 042C                     _TRISA4  equ     1068
   554+                          	global	_TRISA5
   555+ 042D                     _TRISA5  equ     1069
   556+                          	global	_TRISB0
   557+ 0430                     _TRISB0  equ     1072
   558                           	global	_TRISB1
   559  0431                     _TRISB1  equ     1073
   560+                          	global	_TRISB2
   561+ 0432                     _TRISB2  equ     1074
   562+                          	global	_TRISB3
   563+ 0433                     _TRISB3  equ     1075
   564+                          	global	_TRISB4
   565+ 0434                     _TRISB4  equ     1076
   566                           	global	_TRISB5
   567  0435                     _TRISB5  equ     1077
   568+                          	global	_TRISB6
   569+ 0436                     _TRISB6  equ     1078
   570                           	global	_TRISB7
   571  0437                     _TRISB7  equ     1079
   572+                          	global	_TRISC0
   573+ 0438                     _TRISC0  equ     1080
   574                           	global	_TRISC1
   575  0439                     _TRISC1  equ     1081
   576+                          	global	_TRISC2
   577+ 043A                     _TRISC2  equ     1082
   578+                          	global	_TRISC3
   579+ 043B                     _TRISC3  equ     1083
   580+                          	global	_TRISC4
   581+ 043C                     _TRISC4  equ     1084
   582+                          	global	_TRISC5
   583+ 043D                     _TRISC5  equ     1085
   584+                          	global	_TRISC6
   585+ 043E                     _TRISC6  equ     1086
   586                           	global	_TRISC7
   587  043F                     _TRISC7  equ     1087
   588                           	global	_TRMT
   589  04C1                     _TRMT  equ     1217
   590+                          	global	_TX9
   591+ 04C6                     _TX9  equ     1222
   592+                          	global	_TX9D
   593+ 04C0                     _TX9D  equ     1216
   594                           	global	_TXEN
   595  04C5                     _TXEN  equ     1221
   596+                          	global	_TXIE
   597+ 0464                     _TXIE  equ     1124
   598                           	global	_UA
   599  04A1                     _UA  equ     1185
   600+                          	global	_EEADR
   601+ 010D                     _EEADR  equ     269
   602                           	global	_EEADRH
   603  010F                     _EEADRH  equ     271
   604+                          	global	_EEADRL
   605+ 010D                     _EEADRL  equ     269
   606+                          	global	_EEDATA
   607+ 010C                     _EEDATA  equ     268
   608+                          	global	_EEDATH
   609+ 010E                     _EEDATH  equ     270
   610+                          	global	_EECON1
   611+ 018C                     _EECON1  equ     396
   612                           	global	_EECON2
   613  018D                     _EECON2  equ     397
   614                           	global	_EEPGD
   615  0C67                     _EEPGD  equ     3175
   616                           	global	_RD
   617  0C60                     _RD  equ     3168
   618                           	global	_WR
   619  0C61                     _WR  equ     3169
   620                           	global	_WREN
   621  0C62                     _WREN  equ     3170
   622                           	global	_WRERR
   623  0C63                     _WRERR  equ     3171
   624                           	file	"UART T8.as"
   625                           	line	#
   626                           psect cinit,class=CODE,delta=2
   627                           global start_initialization
   628  01FC                     start_initialization:
   629                           
   630                           psect	bssCOMMON,class=COMMON,space=1
   631                           global __pbssCOMMON
   632  0079                     __pbssCOMMON:
   633  0079                     _scan_no:
   634  0079                            ds      2
   635                           
   636  007B                     _cmd_data:
   637  007B                            ds      1
   638                           
   639                           psect	dataCOMMON,class=COMMON,space=1
   640                           global __pdataCOMMON
   641  0075                     __pdataCOMMON:
   642                           	file	"D:\ABHISHEK JOSHI\PIC\UART\UART T8\UART T8.C"
   643                           	line	17
   644  0075                     _ds1:
   645  0075                            ds      1
   646                           
   647                           psect	dataCOMMON
   648                           	file	"D:\ABHISHEK JOSHI\PIC\UART\UART T8\UART T8.C"
   649                           	line	17
   650  0076                     _ds2:
   651  0076                            ds      1
   652                           
   653                           psect	dataCOMMON
   654                           	file	"D:\ABHISHEK JOSHI\PIC\UART\UART T8\UART T8.C"
   655                           	line	17
   656  0077                     _ds3:
   657  0077                            ds      1
   658                           
   659                           psect	dataCOMMON
   660                           	file	"D:\ABHISHEK JOSHI\PIC\UART\UART T8\UART T8.C"
   661                           	line	17
   662  0078                     _ds4:
   663  0078                            ds      1
   664                           
   665                           psect	bssBANK0,class=BANK0,space=1
   666                           global __pbssBANK0
   667  0049                     __pbssBANK0:
   668  0049                     _i:
   669  0049                            ds      2
   670                           
   671  004B                     _k:
   672  004B                            ds      2
   673                           
   674                           psect	dataBANK0,class=BANK0,space=1
   675                           global __pdataBANK0
   676  0020                     __pdataBANK0:
   677                           	file	"D:\ABHISHEK JOSHI\PIC\UART\UART T8\UART T8.C"
   678                           	line	16
   679  0020                     _disp:
   680  0020                            ds      25
   681                           
   682                           psect	dataBANK0
   683                           	file	"D:\ABHISHEK JOSHI\PIC\UART\UART T8\UART T8.C"
   684                           	line	15
   685  0039                     _cnt:
   686  0039                            ds      10
   687                           
   688                           ; Clear objects allocated to COMMON
   689                           psect cinit,class=CODE,delta=2
   690  01FC  01F9               	clrf	((__pbssCOMMON)+0)&07Fh
   691  01FD  01FA               	clrf	((__pbssCOMMON)+1)&07Fh
   692  01FE  01FB               	clrf	((__pbssCOMMON)+2)&07Fh
   693                           ; Clear objects allocated to BANK0
   694                           psect cinit,class=CODE,delta=2
   695  01FF  01C9               	clrf	((__pbssBANK0)+0)&07Fh
   696  0200  01CA               	clrf	((__pbssBANK0)+1)&07Fh
   697  0201  01CB               	clrf	((__pbssBANK0)+2)&07Fh
   698  0202  01CC               	clrf	((__pbssBANK0)+3)&07Fh
   699                           global btemp
   700                           psect inittext,class=CODE,delta=2
   701                           global init_fetch,btemp
   702                           ;	Called with low address in FSR and high address in W
   703  025C                     init_fetch:
   704  025C  087E               	movf btemp,w
   705  025D  008A               	movwf pclath
   706  025E  087F               	movf btemp+1,w
   707  025F  0082               	movwf pc
   708                           global init_ram
   709                           ;Called with:
   710                           ;	high address of idata address in btemp 
   711                           ;	low address of idata address in btemp+1 
   712                           ;	low address of data in FSR
   713                           ;	high address + 1 of data in btemp-1
   714  0260                     init_ram:
   715  0260  225C  120A  118A   	fcall init_fetch
   716  0263  0080               	movwf indf,f
   717  0264  0A84               	incf fsr,f
   718  0265  0804               	movf fsr,w
   719  0266  067D               	xorwf btemp-1,w
   720  0267  1903               	btfsc status,2
   721  0268  3400               	retlw 0
   722  0269  0AFF               	incf btemp+1,f
   723  026A  1903               	btfsc status,2
   724  026B  0AFE               	incf btemp,f
   725  026C  2A60               	goto init_ram
   726                           ; Initialize objects allocated to COMMON
   727                           psect cinit,class=CODE,delta=2
   728                           global init_ram, __pidataCOMMON
   729  0203  3079               	movlw low(__pdataCOMMON+4)
   730  0204  00FD               	movwf btemp-1,f
   731  0205  3002               	movlw high(__pidataCOMMON)
   732  0206  00FE               	movwf btemp,f
   733  0207  30AA               	movlw low(__pidataCOMMON)
   734  0208  00FF               	movwf btemp+1,f
   735  0209  3075               	movlw low(__pdataCOMMON)
   736  020A  0084               	movwf fsr,f
   737  020B  120A  118A  2260   	fcall init_ram
              120A  118A         
   738                           ; Initialize objects allocated to BANK0
   739                           psect cinit,class=CODE,delta=2
   740                           global init_ram, __pidataBANK0
   741  0210  1383               	bcf	status, 7	;select IRP bank0
   742  0211  3043               	movlw low(__pdataBANK0+35)
   743  0212  00FD               	movwf btemp-1,f
   744  0213  3002               	movlw high(__pidataBANK0)
   745  0214  00FE               	movwf btemp,f
   746  0215  3022               	movlw low(__pidataBANK0)
   747  0216  00FF               	movwf btemp+1,f
   748  0217  3020               	movlw low(__pdataBANK0)
   749  0218  0084               	movwf fsr,f
   750  0219  120A  118A  2260   	fcall init_ram
              120A  118A         
   751                           psect cinit,class=CODE,delta=2
   752                           global end_of_initialization
   753                           
   754                           ;End of C runtime variable initationation code
   755                           
   756  021E                     end_of_initialization:
   757  021E  0183               clrf status
   758  021F  120A  118A  2901   ljmp _main	;jump to C main() function
   759                           psect	cstackCOMMON,class=COMMON,space=1
   760                           global __pcstackCOMMON
   761  0070                     __pcstackCOMMON:
   762                           	global	??_init_uart
   763  0070                     ??_init_uart: ;@ 0x0
   764                           	global	?_init
   765  0070                     ?_init: ;@ 0x0
   766                           	global	??_incrementd
   767  0070                     ??_incrementd: ;@ 0x0
   768                           	global	?_init_uart
   769  0070                     ?_init_uart: ;@ 0x0
   770                           	global	??_init
   771  0070                     ??_init: ;@ 0x0
   772                           	global	??_tx
   773  0070                     ??_tx: ;@ 0x0
   774                           	global	??_uart_delay
   775  0070                     ??_uart_delay: ;@ 0x0
   776                           	global	?_init_timer
   777  0070                     ?_init_timer: ;@ 0x0
   778                           	global	??_init_timer
   779  0070                     ??_init_timer: ;@ 0x0
   780                           	global	?_incrementd
   781  0070                     ?_incrementd: ;@ 0x0
   782                           	global	??_delay
   783  0070                     ??_delay: ;@ 0x0
   784                           	global	tx@tx_data
   785  0070                     tx@tx_data:	; 1 bytes @ 0x0
   786  0070                     	ds	1
   787                           	global	??_home_screen
   788  0071                     ??_home_screen: ;@ 0x1
   789                           	global	??_main
   790  0071                     ??_main: ;@ 0x1
   791                           	global	?_tx
   792  0071                     ?_tx: ;@ 0x1
   793                           	global	??_uart_disp
   794  0071                     ??_uart_disp: ;@ 0x1
   795                           	global	delay@d1
   796  0071                     delay@d1:	; 2 bytes @ 0x1
   797                           	global	uart_delay@i
   798  0071                     uart_delay@i:	; 2 bytes @ 0x1
   799  0071                     	ds	2
   800                           	global	delay@d2
   801  0073                     delay@d2:	; 2 bytes @ 0x3
   802                           	global	uart_delay@j
   803  0073                     uart_delay@j:	; 2 bytes @ 0x3
   804  0073                     	ds	2
   805                           	global	?_main
   806  0075                     ?_main: ;@ 0x5
   807                           	global	?_uart_disp
   808  0075                     ?_uart_disp: ;@ 0x5
   809                           	global	?_home_screen
   810  0075                     ?_home_screen: ;@ 0x5
   811                           psect	cstackBANK0,class=BANK0,space=1
   812                           global __pcstackBANK0
   813  0043                     __pcstackBANK0:
   814                           	global	?_uart_delay
   815  0043                     ?_uart_delay: ;@ 0x0
   816                           	global	?_delay
   817  0043                     ?_delay: ;@ 0x0
   818                           	global	delay@del
   819  0043                     delay@del:	; 2 bytes @ 0x0
   820                           	global	uart_delay@del
   821  0043                     uart_delay@del:	; 2 bytes @ 0x0
   822  0043                     	ds	2
   823                           	global	??_scanner
   824  0045                     ??_scanner: ;@ 0x2
   825                           	global	?i1_init_timer
   826  0045                     ?i1_init_timer: ;@ 0x2
   827                           	global	??i1_init_timer
   828  0045                     ??i1_init_timer: ;@ 0x2
   829                           	global	??_isr_t0
   830  0045                     ??_isr_t0: ;@ 0x2
   831                           	global	?_scanner
   832  0045                     ?_scanner: ;@ 0x2
   833  0045                     	ds	4
   834                           	global	?_isr_t0
   835  0049                     ?_isr_t0: ;@ 0x6
   836                           ;Data sizes: Strings 0, constant 0, data 39, bss 7, persistent 0 stack 0
   837                           ;Auto spaces:   Size  Autos    Used
   838                           ; COMMON          14      5      12
   839                           ; BANK0           80      6      45
   840                           ; BANK1           80      0       0
   841                           ; BANK3           96      0       0
   842                           ; BANK2           96      0       0
   843                           
   844                           
   845                           ;Pointer list with targets:
   846                           
   847                           
   848                           
   849                           ;Main: autosize = 0, tempsize = 0, incstack = 0, save=0
   850                           
   851                           
   852                           ;Call graph:                      Base Space Used Autos Args Refs Density
   853                           ;_main                                                0    0  224   0.00
   854                           ;          _init_uart
   855                           ;               _init
   856                           ;          _uart_disp
   857                           ;              _delay
   858                           ;         _incrementd
   859                           ;  _uart_disp                                         0    0  156   0.00
   860                           ;        _home_screen
   861                           ;                 _tx
   862                           ;         _uart_delay
   863                           ;  _delay                                             5    2   68   0.00
   864                           ;                                    0 COMMO    5
   865                           ;                                    0 BANK0    2
   866                           ;  _incrementd                                        0    0    0   0.00
   867                           ;  _init_uart                                         0    0    0   0.00
   868                           ;  _init                                              0    0    0   0.00
   869                           ;         _init_timer
   870                           ;    _init_timer                                      0    0    0   0.00
   871                           ;    _home_screen                                     0    0   78   0.00
   872                           ;                 _tx
   873                           ;         _uart_delay
   874                           ;      _tx                                            1    0   10   0.00
   875                           ;                                    0 COMMO    1
   876                           ;      _uart_delay                                    5    2   68   0.00
   877                           ;                                    0 COMMO    5
   878                           ;                                    0 BANK0    2
   879                           ; Estimated maximum call depth 3
   880                           ;_isr_t0                                              4    0    0   0.00
   881                           ;                                    2 BANK0    4
   882                           ;       i1_init_timer
   883                           ;            _scanner
   884                           ;  _scanner                                           0    0    0   0.00
   885                           ;  i1_init_timer                                      0    0    0   0.00
   886                           ; Estimated maximum call depth 1
   887                           ; Address spaces:
   888                           
   889                           ;Name               Size   Autos  Total    Cost      Usage
   890                           ;BITCOMMON            E      0       0       0        0.0%
   891                           ;CODE                 0      0       0       0        0.0%
   892                           ;NULL                 0      0       0       0        0.0%
   893                           ;COMMON               E      5       C       1       85.7%
   894                           ;SFR0                 0      0       0       1        0.0%
   895                           ;BITSFR0              0      0       0       1        0.0%
   896                           ;BITSFR1              0      0       0       2        0.0%
   897                           ;SFR1                 0      0       0       2        0.0%
   898                           ;ABS                  0      0      39       2        0.0%
   899                           ;STACK                0      0       0       3        0.0%
   900                           ;BITBANK0            50      0       0       4        0.0%
   901                           ;SFR3                 0      0       0       4        0.0%
   902                           ;BITSFR3              0      0       0       4        0.0%
   903                           ;BANK0               50      6      2D       5       56.3%
   904                           ;BITSFR2              0      0       0       5        0.0%
   905                           ;SFR2                 0      0       0       5        0.0%
   906                           ;BITBANK1            50      0       0       6        0.0%
   907                           ;BANK1               50      0       0       7        0.0%
   908                           ;BITBANK3            60      0       0       8        0.0%
   909                           ;BANK3               60      0       0       9        0.0%
   910                           ;BITBANK2            60      0       0      10        0.0%
   911                           ;BANK2               60      0       0      11        0.0%
   912                           ;DATA                 0      0      39      12        0.0%
   913                           ;EEDATA             100      0       0    1000        0.0%
   914                           
   915                           	global	_main
   916                           psect	maintext,local,class=CODE,delta=2
   917                           global __pmaintext
   918  0101                     __pmaintext:
   919                           
   920                           ; *************** function _main *****************
   921                           ; Defined at:
   922                           ;		line 43 in file "D:\ABHISHEK JOSHI\PIC\UART\UART T8\UART T8.C"
   923                           ; Parameters:    Size  Location     Type
   924                           ;		None
   925                           ; Auto vars:     Size  Location     Type
   926                           ;		None
   927                           ; Return value:  Size  Location     Type
   928                           ;		None               void
   929                           ; Registers used:
   930                           ;		wreg, fsr0l, fsr0h, fsr1l, fsr1h, status,2, status,0, btemp+0, btemp+1, btemp+2, btem
                                 p+3, pclath, cstack
   931                           ; Tracked objects:
   932                           ;		On entry : 17F/0
   933                           ;		On exit  : 0/0
   934                           ;		Unchanged: 0/0
   935                           ; Data sizes:     COMMON   BANK0   BANK1   BANK3   BANK2
   936                           ;      Locals:         0       0       0       0       0
   937                           ;      Temp:     0
   938                           ;      Total:    0
   939                           ; This function calls:
   940                           ;		_init_uart
   941                           ;		_init
   942                           ;		_uart_disp
   943                           ;		_delay
   944                           ;		_incrementd
   945                           ; This function is called by:
   946                           ;		Startup code after reset
   947                           ; This function uses a non-reentrant model
   948                           ; 
   949                           psect	maintext
   950                           	file	"D:\ABHISHEK JOSHI\PIC\UART\UART T8\UART T8.C"
   951                           	line	43
   952                           	global	__size_of_main
   953  0035                     	__size_of_main	equ	__end_of_main-_main
   954                           ;UART T8.C: 42: void main()
   955                           ;UART T8.C: 43: {
   956                           	
   957  0101                     _main:	
   958                           	opt stack 6
   959                           ; Regs used in _main: [allreg]
   960                           	line	44
   961                           	
   962  0101                     l30000452:	
   963                           ;UART T8.C: 44: TRISB=0x00;
   964  0101  1003               	clrc
   965  0102  3000               	movlw	0
   966  0103  1803               	btfsc	status,0
   967  0104  3001               	movlw	1
   968  0105  1683               	bsf	status, 5	;RP0=1, select bank1
   969  0106  1303               	bcf	status, 6	;RP1=0, select bank1
   970  0107  0086               	movwf	(134)^080h	;volatile
   971                           	line	45
   972                           ;UART T8.C: 45: TRISA=0x00;
   973  0108  1003               	clrc
   974  0109  3000               	movlw	0
   975  010A  1803               	btfsc	status,0
   976  010B  3001               	movlw	1
   977  010C  0085               	movwf	(133)^080h	;volatile
   978                           	
   979  010D                     l30000453:	
   980                           	line	46
   981                           ;UART T8.C: 46: TRISC=0xC0;
   982  010D  30C0               	movlw	(0C0h)
   983  010E  0087               	movwf	(135)^080h	;volatile
   984                           	
   985  010F                     l30000454:	
   986                           	line	47
   987                           ;UART T8.C: 47: init_uart();
   988  010F  120A  118A  22A0   	fcall	_init_uart
              120A  118A         
   989                           	
   990  0114                     l30000455:	
   991                           	line	49
   992                           ;UART T8.C: 49: init();
   993  0114  120A  118A  2296   	fcall	_init
              120A  118A         
   994                           	
   995  0119                     l30000456:	
   996                           	line	50
   997                           ;UART T8.C: 50: GIE=1;
   998  0119  1283               	bcf	status, 5	;RP0=0, select bank0
   999  011A  1303               	bcf	status, 6	;RP1=0, select bank0
  1000  011B  178B               	bsf	(95/8),(95)&7
  1001                           	
  1002  011C                     l30000457:	
  1003                           	line	51
  1004                           ;UART T8.C: 51: PEIE=1;
  1005  011C  170B               	bsf	(94/8),(94)&7
  1006                           	
  1007  011D                     l30000458:	
  1008                           	line	61
  1009                           ;UART T8.C: 60: {
  1010                           ;UART T8.C: 61: uart_disp();
  1011  011D  120A  118A  20B7   	fcall	_uart_disp
              120A  118A         
  1012                           	
  1013  0122                     l30000459:	
  1014                           	line	62
  1015                           ;UART T8.C: 62: delay(1000);
  1016  0122  30E8               	movlw	low(03E8h)
  1017  0123  1283               	bcf	status, 5	;RP0=0, select bank0
  1018  0124  1303               	bcf	status, 6	;RP1=0, select bank0
  1019  0125  00C3               	movwf	(?_delay)
  1020  0126  3003               	movlw	high(03E8h)
  1021  0127  00C4               	movwf	((?_delay))+1
  1022  0128  120A  118A  21CD   	fcall	_delay
              120A  118A         
  1023                           	
  1024  012D                     l30000460:	
  1025                           	line	63
  1026                           ;UART T8.C: 63: incrementd();
  1027  012D  120A  118A  216A   	fcall	_incrementd
              120A  118A         
  1028  0132  291D               	goto	l30000458
  1029                           	global	start
  1030  0133  120A  118A  2812   	ljmp	start
  1031                           	opt stack 0
  1032                           GLOBAL	__end_of_main
  1033  0136                     	__end_of_main:
  1034                           ; =============== function _main ends ============
  1035                           
  1036                           psect	maintext
  1037                           	line	66
  1038                           	signat	_main,88
  1039                           	global	_uart_disp
  1040                           psect	text76,local,class=CODE,delta=2
  1041                           global __ptext76
  1042  00B7                     __ptext76:
  1043                           
  1044                           ; *************** function _uart_disp *****************
  1045                           ; Defined at:
  1046                           ;		line 223 in file "D:\ABHISHEK JOSHI\PIC\UART\UART T8\UART T8.C"
  1047                           ; Parameters:    Size  Location     Type
  1048                           ;		None
  1049                           ; Auto vars:     Size  Location     Type
  1050                           ;		None
  1051                           ; Return value:  Size  Location     Type
  1052                           ;		None               void
  1053                           ; Registers used:
  1054                           ;		wreg, fsr0l, fsr0h, fsr1l, fsr1h, status,2, status,0, btemp+0, btemp+1, btemp+2, btem
                                 p+3, pclath, cstack
  1055                           ; Tracked objects:
  1056                           ;		On entry : 0/0
  1057                           ;		On exit  : 0/0
  1058                           ;		Unchanged: 0/0
  1059                           ; Data sizes:     COMMON   BANK0   BANK1   BANK3   BANK2
  1060                           ;      Locals:         0       0       0       0       0
  1061                           ;      Temp:     0
  1062                           ;      Total:    0
  1063                           ; This function calls:
  1064                           ;		_home_screen
  1065                           ;		_tx
  1066                           ;		_uart_delay
  1067                           ; This function is called by:
  1068                           ;		_main
  1069                           ; This function uses a non-reentrant model
  1070                           ; 
  1071                           psect	text76
  1072                           	file	"D:\ABHISHEK JOSHI\PIC\UART\UART T8\UART T8.C"
  1073                           	line	223
  1074                           	global	__size_of_uart_disp
  1075  004A                     	__size_of_uart_disp	equ	__end_of_uart_disp-_uart_disp
  1076                           ;UART T8.C: 222: void uart_disp()
  1077                           ;UART T8.C: 223: {
  1078                           	
  1079  00B7                     _uart_disp:	
  1080                           	opt stack 5
  1081                           ; Regs used in _uart_disp: [allreg]
  1082                           	line	224
  1083                           	
  1084  00B7                     l30000443:	
  1085                           ;UART T8.C: 224: home_screen();
  1086  00B7  120A  118A  2136   	fcall	_home_screen
              120A  118A         
  1087                           	
  1088  00BC                     l30000444:	
  1089                           	line	225
  1090                           ;UART T8.C: 225: tx(ds4);
  1091  00BC  0878               	movf	(_ds4),w
  1092  00BD  120A  118A  228B   	fcall	_tx
              120A  118A         
  1093                           	
  1094  00C2                     l30000445:	
  1095                           	line	226
  1096                           ;UART T8.C: 226: uart_delay(1);
  1097  00C2  3001               	movlw	low(01h)
  1098  00C3  1283               	bcf	status, 5	;RP0=0, select bank0
  1099  00C4  1303               	bcf	status, 6	;RP1=0, select bank0
  1100  00C5  00C3               	movwf	(?_uart_delay)
  1101  00C6  3000               	movlw	high(01h)
  1102  00C7  00C4               	movwf	((?_uart_delay))+1
  1103  00C8  120A  118A  219E   	fcall	_uart_delay
              120A  118A         
  1104                           	
  1105  00CD                     l30000446:	
  1106                           	line	227
  1107                           ;UART T8.C: 227: tx(ds3);
  1108  00CD  0877               	movf	(_ds3),w
  1109  00CE  120A  118A  228B   	fcall	_tx
              120A  118A         
  1110                           	
  1111  00D3                     l30000447:	
  1112                           	line	228
  1113                           ;UART T8.C: 228: uart_delay(1);
  1114  00D3  3001               	movlw	low(01h)
  1115  00D4  1283               	bcf	status, 5	;RP0=0, select bank0
  1116  00D5  1303               	bcf	status, 6	;RP1=0, select bank0
  1117  00D6  00C3               	movwf	(?_uart_delay)
  1118  00D7  3000               	movlw	high(01h)
  1119  00D8  00C4               	movwf	((?_uart_delay))+1
  1120  00D9  120A  118A  219E   	fcall	_uart_delay
              120A  118A         
  1121                           	
  1122  00DE                     l30000448:	
  1123                           	line	229
  1124                           ;UART T8.C: 229: tx(ds2);
  1125  00DE  0876               	movf	(_ds2),w
  1126  00DF  120A  118A  228B   	fcall	_tx
              120A  118A         
  1127                           	
  1128  00E4                     l30000449:	
  1129                           	line	230
  1130                           ;UART T8.C: 230: uart_delay(1);
  1131  00E4  3001               	movlw	low(01h)
  1132  00E5  1283               	bcf	status, 5	;RP0=0, select bank0
  1133  00E6  1303               	bcf	status, 6	;RP1=0, select bank0
  1134  00E7  00C3               	movwf	(?_uart_delay)
  1135  00E8  3000               	movlw	high(01h)
  1136  00E9  00C4               	movwf	((?_uart_delay))+1
  1137  00EA  120A  118A  219E   	fcall	_uart_delay
              120A  118A         
  1138                           	
  1139  00EF                     l30000450:	
  1140                           	line	231
  1141                           ;UART T8.C: 231: tx(ds1);
  1142  00EF  0875               	movf	(_ds1),w
  1143  00F0  120A  118A  228B   	fcall	_tx
              120A  118A         
  1144                           	
  1145  00F5                     l30000451:	
  1146                           	line	232
  1147                           ;UART T8.C: 232: uart_delay(1);
  1148  00F5  3001               	movlw	low(01h)
  1149  00F6  1283               	bcf	status, 5	;RP0=0, select bank0
  1150  00F7  1303               	bcf	status, 6	;RP1=0, select bank0
  1151  00F8  00C3               	movwf	(?_uart_delay)
  1152  00F9  3000               	movlw	high(01h)
  1153  00FA  00C4               	movwf	((?_uart_delay))+1
  1154  00FB  120A  118A  219E   	fcall	_uart_delay
              120A  118A         
  1155                           	
  1156  0100                     l41:	
  1157  0100  0008               	return
  1158                           	opt stack 0
  1159                           GLOBAL	__end_of_uart_disp
  1160  0101                     	__end_of_uart_disp:
  1161                           ; =============== function _uart_disp ends ============
  1162                           
  1163                           psect	text77,local,class=CODE,delta=2
  1164                           global __ptext77
  1165  01CD                     __ptext77:
  1166                           	line	233
  1167                           	signat	_uart_disp,88
  1168                           	global	_delay
  1169                           
  1170                           ; *************** function _delay *****************
  1171                           ; Defined at:
  1172                           ;		line 179 in file "D:\ABHISHEK JOSHI\PIC\UART\UART T8\UART T8.C"
  1173                           ; Parameters:    Size  Location     Type
  1174                           ;  del             2    0[BANK0 ] unsigned int 
  1175                           ; Auto vars:     Size  Location     Type
  1176                           ;  d2              2    3[COMMON] int 
  1177                           ;  d1              2    1[COMMON] int 
  1178                           ; Return value:  Size  Location     Type
  1179                           ;		None               void
  1180                           ; Registers used:
  1181                           ;		wreg
  1182                           ; Tracked objects:
  1183                           ;		On entry : 0/0
  1184                           ;		On exit  : 0/0
  1185                           ;		Unchanged: 0/0
  1186                           ; Data sizes:     COMMON   BANK0   BANK1   BANK3   BANK2
  1187                           ;      Locals:         5       2       0       0       0
  1188                           ;      Temp:     1
  1189                           ;      Total:    7
  1190                           ; This function calls:
  1191                           ;		Nothing
  1192                           ; This function is called by:
  1193                           ;		_main
  1194                           ; This function uses a non-reentrant model
  1195                           ; 
  1196                           psect	text77
  1197                           	file	"D:\ABHISHEK JOSHI\PIC\UART\UART T8\UART T8.C"
  1198                           	line	179
  1199                           	global	__size_of_delay
  1200  002F                     	__size_of_delay	equ	__end_of_delay-_delay
  1201                           ;UART T8.C: 178: void delay(unsigned int del)
  1202                           ;UART T8.C: 179: {
  1203                           	
  1204  01CD                     _delay:	
  1205                           	opt stack 5
  1206                           ; Regs used in _delay: [wreg]
  1207                           	line	181
  1208                           	
  1209  01CD                     l30000462:	
  1210                           ;UART T8.C: 180: int d1,d2;
  1211                           ;UART T8.C: 181: for(d1=0;d1<=del;d1++)
  1212  01CD  3000               	movlw	low(0)
  1213  01CE  00F1               	movwf	(delay@d1)
  1214  01CF  3000               	movlw	high(0)
  1215  01D0  00F2               	movwf	((delay@d1))+1
  1216  01D1  29EF               	goto	l32
  1217                           	
  1218  01D2                     l30000463:	
  1219                           	line	182
  1220                           ;UART T8.C: 182: for(d2=0;d2<=120;d2++);
  1221  01D2  3000               	movlw	low(0)
  1222  01D3  00F3               	movwf	(delay@d2)
  1223  01D4  3000               	movlw	high(0)
  1224  01D5  00F4               	movwf	((delay@d2))+1
  1225                           	
  1226  01D6                     l30000465:	
  1227  01D6  3001               	movlw	low(01h)
  1228  01D7  07F3               	addwf	(delay@d2),f
  1229  01D8  1803               	skipnc
  1230  01D9  0AF4               	incf	(delay@d2+1),f
  1231  01DA  3000               	movlw	high(01h)
  1232  01DB  07F4               	addwf	(delay@d2+1),f
  1233  01DC  0874               	movf	(delay@d2+1),w
  1234  01DD  3A80               	xorlw	80h
  1235  01DE  00F0               	movwf	(??_delay+0+0)
  1236  01DF  3080               	movlw	(high(079h))^80h
  1237  01E0  0270               	subwf	(??_delay+0+0),w
  1238  01E1  1D03               	skipz
  1239  01E2  29E5               	goto	u125
  1240  01E3  3079               	movlw	low(079h)
  1241  01E4  0273               	subwf	(delay@d2),w
  1242  01E5                     u125:
  1243                           
  1244  01E5  1C03               	skipc
  1245  01E6  29E8               	goto	u121
  1246  01E7  29E9               	goto	u120
  1247  01E8                     u121:
  1248  01E8  29D6               	goto	l30000465
  1249  01E9                     u120:
  1250                           	
  1251  01E9                     l30000466:	
  1252                           	line	181
  1253  01E9  3001               	movlw	low(01h)
  1254  01EA  07F1               	addwf	(delay@d1),f
  1255  01EB  1803               	skipnc
  1256  01EC  0AF2               	incf	(delay@d1+1),f
  1257  01ED  3000               	movlw	high(01h)
  1258  01EE  07F2               	addwf	(delay@d1+1),f
  1259                           	
  1260  01EF                     l32:	
  1261  01EF  0872               	movf	(delay@d1+1),w
  1262  01F0  1283               	bcf	status, 5	;RP0=0, select bank0
  1263  01F1  1303               	bcf	status, 6	;RP1=0, select bank0
  1264  01F2  0244               	subwf	(delay@del+1),w
  1265  01F3  1D03               	skipz
  1266  01F4  29F7               	goto	u135
  1267  01F5  0871               	movf	(delay@d1),w
  1268  01F6  0243               	subwf	(delay@del),w
  1269  01F7                     u135:
  1270  01F7  1803               	skipnc
  1271  01F8  29FA               	goto	u131
  1272  01F9  29FB               	goto	u130
  1273  01FA                     u131:
  1274  01FA  29D2               	goto	l30000463
  1275  01FB                     u130:
  1276                           	
  1277  01FB                     l28:	
  1278  01FB  0008               	return
  1279                           	opt stack 0
  1280                           GLOBAL	__end_of_delay
  1281  01FC                     	__end_of_delay:
  1282                           ; =============== function _delay ends ============
  1283                           
  1284                           psect	text78,local,class=CODE,delta=2
  1285                           global __ptext78
  1286  016A                     __ptext78:
  1287                           	line	183
  1288                           	signat	_delay,4216
  1289                           	global	_incrementd
  1290                           
  1291                           ; *************** function _incrementd *****************
  1292                           ; Defined at:
  1293                           ;		line 188 in file "D:\ABHISHEK JOSHI\PIC\UART\UART T8\UART T8.C"
  1294                           ; Parameters:    Size  Location     Type
  1295                           ;		None
  1296                           ; Auto vars:     Size  Location     Type
  1297                           ;		None
  1298                           ; Return value:  Size  Location     Type
  1299                           ;		None               void
  1300                           ; Registers used:
  1301                           ;		wreg, status,2, status,0
  1302                           ; Tracked objects:
  1303                           ;		On entry : 0/0
  1304                           ;		On exit  : 0/0
  1305                           ;		Unchanged: 0/0
  1306                           ; Data sizes:     COMMON   BANK0   BANK1   BANK3   BANK2
  1307                           ;      Locals:         0       0       0       0       0
  1308                           ;      Temp:     0
  1309                           ;      Total:    0
  1310                           ; This function calls:
  1311                           ;		Nothing
  1312                           ; This function is called by:
  1313                           ;		_main
  1314                           ; This function uses a non-reentrant model
  1315                           ; 
  1316                           psect	text78
  1317                           	file	"D:\ABHISHEK JOSHI\PIC\UART\UART T8\UART T8.C"
  1318                           	line	188
  1319                           	global	__size_of_incrementd
  1320  0034                     	__size_of_incrementd	equ	__end_of_incrementd-_incrementd
  1321                           ;UART T8.C: 187: void incrementd()
  1322                           ;UART T8.C: 188: {
  1323                           	
  1324  016A                     _incrementd:	
  1325                           	opt stack 5
  1326                           ; Regs used in _incrementd: [wreg+status,2+status,0]
  1327                           	line	190
  1328                           	
  1329  016A                     l30000406:	
  1330                           ;UART T8.C: 190: ds1=ds1+1;
  1331  016A  0875               	movf	(_ds1),w
  1332  016B  3E01               	addlw	01h
  1333  016C  00F5               	movwf	(_ds1)
  1334                           	
  1335  016D                     l30000407:	
  1336                           	line	191
  1337                           ;UART T8.C: 191: if (ds1>'9')
  1338  016D  303A               	movlw	(03Ah)
  1339  016E  0275               	subwf	(_ds1),w
  1340  016F  1C03               	skipc
  1341  0170  2972               	goto	u31
  1342  0171  2973               	goto	u30
  1343  0172                     u31:
  1344  0172  299D               	goto	l36
  1345  0173                     u30:
  1346                           	
  1347  0173                     l30000408:	
  1348                           	line	193
  1349                           ;UART T8.C: 192: {
  1350                           ;UART T8.C: 193: ds1='0';
  1351  0173  3030               	movlw	(030h)
  1352  0174  00F5               	movwf	(_ds1)
  1353                           	
  1354  0175                     l30000409:	
  1355                           	line	194
  1356                           ;UART T8.C: 194: ds2=ds2+1;
  1357  0175  0876               	movf	(_ds2),w
  1358  0176  3E01               	addlw	01h
  1359  0177  00F6               	movwf	(_ds2)
  1360                           	
  1361  0178                     l30000410:	
  1362                           	line	196
  1363                           ;UART T8.C: 196: if (ds2>'9')
  1364  0178  303A               	movlw	(03Ah)
  1365  0179  0276               	subwf	(_ds2),w
  1366  017A  1C03               	skipc
  1367  017B  297D               	goto	u41
  1368  017C  297E               	goto	u40
  1369  017D                     u41:
  1370  017D  299D               	goto	l36
  1371  017E                     u40:
  1372                           	
  1373  017E                     l30000411:	
  1374                           	line	198
  1375                           ;UART T8.C: 197: {
  1376                           ;UART T8.C: 198: ds2='0';
  1377  017E  3030               	movlw	(030h)
  1378  017F  00F6               	movwf	(_ds2)
  1379                           	
  1380  0180                     l30000412:	
  1381                           	line	199
  1382                           ;UART T8.C: 199: ds3=ds3+1;
  1383  0180  0877               	movf	(_ds3),w
  1384  0181  3E01               	addlw	01h
  1385  0182  00F7               	movwf	(_ds3)
  1386                           	
  1387  0183                     l30000413:	
  1388                           	line	201
  1389                           ;UART T8.C: 201: if (ds3>'9')
  1390  0183  303A               	movlw	(03Ah)
  1391  0184  0277               	subwf	(_ds3),w
  1392  0185  1C03               	skipc
  1393  0186  2988               	goto	u51
  1394  0187  2989               	goto	u50
  1395  0188                     u51:
  1396  0188  299D               	goto	l36
  1397  0189                     u50:
  1398                           	
  1399  0189                     l30000414:	
  1400                           	line	203
  1401                           ;UART T8.C: 202: {
  1402                           ;UART T8.C: 203: ds3='0';
  1403  0189  3030               	movlw	(030h)
  1404  018A  00F7               	movwf	(_ds3)
  1405                           	
  1406  018B                     l30000415:	
  1407                           	line	204
  1408                           ;UART T8.C: 204: ds4=ds4+1;
  1409  018B  0878               	movf	(_ds4),w
  1410  018C  3E01               	addlw	01h
  1411  018D  00F8               	movwf	(_ds4)
  1412                           	
  1413  018E                     l30000416:	
  1414                           	line	206
  1415                           ;UART T8.C: 206: if(ds4>'9')
  1416  018E  303A               	movlw	(03Ah)
  1417  018F  0278               	subwf	(_ds4),w
  1418  0190  1C03               	skipc
  1419  0191  2993               	goto	u61
  1420  0192  2994               	goto	u60
  1421  0193                     u61:
  1422  0193  299D               	goto	l38
  1423  0194                     u60:
  1424                           	
  1425  0194                     l30000417:	
  1426                           	line	208
  1427                           ;UART T8.C: 207: {
  1428                           ;UART T8.C: 208: ds1='0';
  1429  0194  3030               	movlw	(030h)
  1430  0195  00F5               	movwf	(_ds1)
  1431                           	line	209
  1432                           ;UART T8.C: 209: ds2='0';
  1433  0196  3030               	movlw	(030h)
  1434  0197  00F6               	movwf	(_ds2)
  1435                           	line	210
  1436                           ;UART T8.C: 210: ds3='0';
  1437  0198  3030               	movlw	(030h)
  1438  0199  00F7               	movwf	(_ds3)
  1439                           	line	211
  1440                           ;UART T8.C: 211: ds4='0';
  1441  019A  3030               	movlw	(030h)
  1442  019B  00F8               	movwf	(_ds4)
  1443  019C  299D               	goto	l36
  1444                           	
  1445  019D                     l38:	
  1446                           	
  1447  019D                     l36:	
  1448  019D  0008               	return
  1449                           	opt stack 0
  1450                           GLOBAL	__end_of_incrementd
  1451  019E                     	__end_of_incrementd:
  1452                           ; =============== function _incrementd ends ============
  1453                           
  1454                           psect	text79,local,class=CODE,delta=2
  1455                           global __ptext79
  1456  02A0                     __ptext79:
  1457                           	line	220
  1458                           	signat	_incrementd,88
  1459                           	global	_init_uart
  1460                           
  1461                           ; *************** function _init_uart *****************
  1462                           ; Defined at:
  1463                           ;		line 236 in file "D:\ABHISHEK JOSHI\PIC\UART\UART T8\UART T8.C"
  1464                           ; Parameters:    Size  Location     Type
  1465                           ;		None
  1466                           ; Auto vars:     Size  Location     Type
  1467                           ;		None
  1468                           ; Return value:  Size  Location     Type
  1469                           ;		None               void
  1470                           ; Registers used:
  1471                           ;		wreg
  1472                           ; Tracked objects:
  1473                           ;		On entry : 0/0
  1474                           ;		On exit  : 0/0
  1475                           ;		Unchanged: 0/0
  1476                           ; Data sizes:     COMMON   BANK0   BANK1   BANK3   BANK2
  1477                           ;      Locals:         0       0       0       0       0
  1478                           ;      Temp:     0
  1479                           ;      Total:    0
  1480                           ; This function calls:
  1481                           ;		Nothing
  1482                           ; This function is called by:
  1483                           ;		_main
  1484                           ; This function uses a non-reentrant model
  1485                           ; 
  1486                           psect	text79
  1487                           	file	"D:\ABHISHEK JOSHI\PIC\UART\UART T8\UART T8.C"
  1488                           	line	236
  1489                           	global	__size_of_init_uart
  1490  000A                     	__size_of_init_uart	equ	__end_of_init_uart-_init_uart
  1491                           ;UART T8.C: 235: void init_uart()
  1492                           ;UART T8.C: 236: {
  1493                           	
  1494  02A0                     _init_uart:	
  1495                           	opt stack 5
  1496                           ; Regs used in _init_uart: [wreg]
  1497                           	line	237
  1498                           	
  1499  02A0                     l30000419:	
  1500                           ;UART T8.C: 237: TXSTA=0x24;
  1501  02A0  3024               	movlw	(024h)
  1502  02A1  1683               	bsf	status, 5	;RP0=1, select bank1
  1503  02A2  1303               	bcf	status, 6	;RP1=0, select bank1
  1504  02A3  0098               	movwf	(152)^080h	;volatile
  1505                           	line	238
  1506                           ;UART T8.C: 238: SPBRG=25;
  1507  02A4  3019               	movlw	(019h)
  1508  02A5  0099               	movwf	(153)^080h	;volatile
  1509                           	
  1510  02A6                     l30000420:	
  1511                           	line	239
  1512                           ;UART T8.C: 239: SPEN=1;
  1513  02A6  1283               	bcf	status, 5	;RP0=0, select bank0
  1514  02A7  1303               	bcf	status, 6	;RP1=0, select bank0
  1515  02A8  1798               	bsf	(199/8),(199)&7
  1516                           	
  1517  02A9                     l42:	
  1518  02A9  0008               	return
  1519                           	opt stack 0
  1520                           GLOBAL	__end_of_init_uart
  1521  02AA                     	__end_of_init_uart:
  1522                           ; =============== function _init_uart ends ============
  1523                           
  1524                           psect	text80,local,class=CODE,delta=2
  1525                           global __ptext80
  1526  0296                     __ptext80:
  1527                           	line	240
  1528                           	signat	_init_uart,88
  1529                           	global	_init
  1530                           
  1531                           ; *************** function _init *****************
  1532                           ; Defined at:
  1533                           ;		line 69 in file "D:\ABHISHEK JOSHI\PIC\UART\UART T8\UART T8.C"
  1534                           ; Parameters:    Size  Location     Type
  1535                           ;		None
  1536                           ; Auto vars:     Size  Location     Type
  1537                           ;		None
  1538                           ; Return value:  Size  Location     Type
  1539                           ;		None               void
  1540                           ; Registers used:
  1541                           ;		wreg, fsr0l, fsr0h, fsr1l, fsr1h, status,2, status,0, btemp+0, btemp+1, btemp+2, btem
                                 p+3, pclath, cstack
  1542                           ; Tracked objects:
  1543                           ;		On entry : 0/0
  1544                           ;		On exit  : 0/0
  1545                           ;		Unchanged: 0/0
  1546                           ; Data sizes:     COMMON   BANK0   BANK1   BANK3   BANK2
  1547                           ;      Locals:         0       0       0       0       0
  1548                           ;      Temp:     0
  1549                           ;      Total:    0
  1550                           ; This function calls:
  1551                           ;		_init_timer
  1552                           ; This function is called by:
  1553                           ;		_main
  1554                           ; This function uses a non-reentrant model
  1555                           ; 
  1556                           psect	text80
  1557                           	file	"D:\ABHISHEK JOSHI\PIC\UART\UART T8\UART T8.C"
  1558                           	line	69
  1559                           	global	__size_of_init
  1560  000A                     	__size_of_init	equ	__end_of_init-_init
  1561                           ;UART T8.C: 68: void init()
  1562                           ;UART T8.C: 69: {
  1563                           	
  1564  0296                     _init:	
  1565                           	opt stack 5
  1566                           ; Regs used in _init: [allreg]
  1567                           	line	70
  1568                           	
  1569  0296                     l30000377:	
  1570                           ;UART T8.C: 70: scan_no=0;
  1571  0296  3000               	movlw	low(0)
  1572  0297  00F9               	movwf	(_scan_no)
  1573  0298  3000               	movlw	high(0)
  1574  0299  00FA               	movwf	((_scan_no))+1
  1575                           	
  1576  029A                     l30000378:	
  1577                           	line	71
  1578                           ;UART T8.C: 71: init_timer();
  1579  029A  120A  118A  226D   	fcall	_init_timer
              120A  118A         
  1580                           	
  1581  029F                     l7:	
  1582  029F  0008               	return
  1583                           	opt stack 0
  1584                           GLOBAL	__end_of_init
  1585  02A0                     	__end_of_init:
  1586                           ; =============== function _init ends ============
  1587                           
  1588                           psect	text81,local,class=CODE,delta=2
  1589                           global __ptext81
  1590  026D                     __ptext81:
  1591                           	line	72
  1592                           	signat	_init,88
  1593                           	global	_init_timer
  1594                           
  1595                           ; *************** function _init_timer *****************
  1596                           ; Defined at:
  1597                           ;		line 75 in file "D:\ABHISHEK JOSHI\PIC\UART\UART T8\UART T8.C"
  1598                           ; Parameters:    Size  Location     Type
  1599                           ;		None
  1600                           ; Auto vars:     Size  Location     Type
  1601                           ;		None
  1602                           ; Return value:  Size  Location     Type
  1603                           ;		None               void
  1604                           ; Registers used:
  1605                           ;		wreg
  1606                           ; Tracked objects:
  1607                           ;		On entry : 0/0
  1608                           ;		On exit  : 0/0
  1609                           ;		Unchanged: 0/0
  1610                           ; Data sizes:     COMMON   BANK0   BANK1   BANK3   BANK2
  1611                           ;      Locals:         0       0       0       0       0
  1612                           ;      Temp:     0
  1613                           ;      Total:    0
  1614                           ; This function calls:
  1615                           ;		Nothing
  1616                           ; This function is called by:
  1617                           ;		_init
  1618                           ; This function uses a non-reentrant model
  1619                           ; 
  1620                           psect	text81
  1621                           	file	"D:\ABHISHEK JOSHI\PIC\UART\UART T8\UART T8.C"
  1622                           	line	75
  1623                           	global	__size_of_init_timer
  1624  000F                     	__size_of_init_timer	equ	__end_of_init_timer-_init_timer
  1625                           ;UART T8.C: 74: void init_timer()
  1626                           ;UART T8.C: 75: {
  1627                           	
  1628  026D                     _init_timer:	
  1629                           	opt stack 4
  1630                           ; Regs used in _init_timer: [wreg]
  1631                           	line	76
  1632                           	
  1633  026D                     l30000379:	
  1634                           ;UART T8.C: 76: TMR1H=0xFC;
  1635  026D  30FC               	movlw	(0FCh)
  1636  026E  1283               	bcf	status, 5	;RP0=0, select bank0
  1637  026F  1303               	bcf	status, 6	;RP1=0, select bank0
  1638  0270  008F               	movwf	(15)	;volatile
  1639                           	line	77
  1640                           ;UART T8.C: 77: TMR1L=0x18;
  1641  0271  3018               	movlw	(018h)
  1642  0272  008E               	movwf	(14)	;volatile
  1643                           	line	78
  1644                           ;UART T8.C: 78: T1CON=0x01;
  1645  0273  3001               	movlw	(01h)
  1646  0274  0090               	movwf	(16)	;volatile
  1647                           	
  1648  0275                     l30000380:	
  1649                           	line	79
  1650                           ;UART T8.C: 79: TMR1IE=1;
  1651  0275  1683               	bsf	status, 5	;RP0=1, select bank1
  1652  0276  1303               	bcf	status, 6	;RP1=0, select bank1
  1653  0277  140C               	bsf	(1120/8)^080h,(1120)&7
  1654                           	
  1655  0278                     l30000381:	
  1656                           	line	80
  1657                           ;UART T8.C: 80: TMR1IF=0;
  1658  0278  1283               	bcf	status, 5	;RP0=0, select bank0
  1659  0279  1303               	bcf	status, 6	;RP1=0, select bank0
  1660  027A  100C               	bcf	(96/8),(96)&7
  1661                           	
  1662  027B                     l8:	
  1663  027B  0008               	return
  1664                           	opt stack 0
  1665                           GLOBAL	__end_of_init_timer
  1666  027C                     	__end_of_init_timer:
  1667                           ; =============== function _init_timer ends ============
  1668                           
  1669                           psect	text82,local,class=CODE,delta=2
  1670                           global __ptext82
  1671  0136                     __ptext82:
  1672                           	line	81
  1673                           	signat	_init_timer,88
  1674                           	global	_home_screen
  1675                           
  1676                           ; *************** function _home_screen *****************
  1677                           ; Defined at:
  1678                           ;		line 255 in file "D:\ABHISHEK JOSHI\PIC\UART\UART T8\UART T8.C"
  1679                           ; Parameters:    Size  Location     Type
  1680                           ;		None
  1681                           ; Auto vars:     Size  Location     Type
  1682                           ;		None
  1683                           ; Return value:  Size  Location     Type
  1684                           ;		None               void
  1685                           ; Registers used:
  1686                           ;		wreg, status,2, status,0, pclath, cstack
  1687                           ; Tracked objects:
  1688                           ;		On entry : 0/0
  1689                           ;		On exit  : 0/0
  1690                           ;		Unchanged: 0/0
  1691                           ; Data sizes:     COMMON   BANK0   BANK1   BANK3   BANK2
  1692                           ;      Locals:         0       0       0       0       0
  1693                           ;      Temp:     0
  1694                           ;      Total:    0
  1695                           ; This function calls:
  1696                           ;		_tx
  1697                           ;		_uart_delay
  1698                           ; This function is called by:
  1699                           ;		_uart_disp
  1700                           ; This function uses a non-reentrant model
  1701                           ; 
  1702                           psect	text82
  1703                           	file	"D:\ABHISHEK JOSHI\PIC\UART\UART T8\UART T8.C"
  1704                           	line	255
  1705                           	global	__size_of_home_screen
  1706  0034                     	__size_of_home_screen	equ	__end_of_home_screen-_home_screen
  1707                           ;UART T8.C: 254: void home_screen()
  1708                           ;UART T8.C: 255: {
  1709                           	
  1710  0136                     _home_screen:	
  1711                           	opt stack 4
  1712                           ; Regs used in _home_screen: [wreg+status,2+status,0+pclath+cstack]
  1713                           	line	256
  1714                           	
  1715  0136                     l30000461:	
  1716                           ;UART T8.C: 256: tx(0x1b);
  1717  0136  301B               	movlw	(01Bh)
  1718  0137  120A  118A  228B   	fcall	_tx
              120A  118A         
  1719                           	line	257
  1720                           ;UART T8.C: 257: uart_delay(1);
  1721  013C  3001               	movlw	low(01h)
  1722  013D  1283               	bcf	status, 5	;RP0=0, select bank0
  1723  013E  1303               	bcf	status, 6	;RP1=0, select bank0
  1724  013F  00C3               	movwf	(?_uart_delay)
  1725  0140  3000               	movlw	high(01h)
  1726  0141  00C4               	movwf	((?_uart_delay))+1
  1727  0142  120A  118A  219E   	fcall	_uart_delay
              120A  118A         
  1728                           	line	258
  1729                           ;UART T8.C: 258: tx('[');
  1730  0147  305B               	movlw	(05Bh)
  1731  0148  120A  118A  228B   	fcall	_tx
              120A  118A         
  1732                           	line	259
  1733                           ;UART T8.C: 259: uart_delay(1);
  1734  014D  3001               	movlw	low(01h)
  1735  014E  1283               	bcf	status, 5	;RP0=0, select bank0
  1736  014F  1303               	bcf	status, 6	;RP1=0, select bank0
  1737  0150  00C3               	movwf	(?_uart_delay)
  1738  0151  3000               	movlw	high(01h)
  1739  0152  00C4               	movwf	((?_uart_delay))+1
  1740  0153  120A  118A  219E   	fcall	_uart_delay
              120A  118A         
  1741                           	line	260
  1742                           ;UART T8.C: 260: tx('H');
  1743  0158  3048               	movlw	(048h)
  1744  0159  120A  118A  228B   	fcall	_tx
              120A  118A         
  1745                           	line	261
  1746                           ;UART T8.C: 261: uart_delay(1);
  1747  015E  3001               	movlw	low(01h)
  1748  015F  1283               	bcf	status, 5	;RP0=0, select bank0
  1749  0160  1303               	bcf	status, 6	;RP1=0, select bank0
  1750  0161  00C3               	movwf	(?_uart_delay)
  1751  0162  3000               	movlw	high(01h)
  1752  0163  00C4               	movwf	((?_uart_delay))+1
  1753  0164  120A  118A  219E   	fcall	_uart_delay
              120A  118A         
  1754                           	
  1755  0169                     l44:	
  1756  0169  0008               	return
  1757                           	opt stack 0
  1758                           GLOBAL	__end_of_home_screen
  1759  016A                     	__end_of_home_screen:
  1760                           ; =============== function _home_screen ends ============
  1761                           
  1762                           psect	text83,local,class=CODE,delta=2
  1763                           global __ptext83
  1764  028B                     __ptext83:
  1765                           	line	262
  1766                           	signat	_home_screen,88
  1767                           	global	_tx
  1768                           
  1769                           ; *************** function _tx *****************
  1770                           ; Defined at:
  1771                           ;		line 265 in file "D:\ABHISHEK JOSHI\PIC\UART\UART T8\UART T8.C"
  1772                           ; Parameters:    Size  Location     Type
  1773                           ;  tx_data         1    wreg     unsigned char 
  1774                           ; Auto vars:     Size  Location     Type
  1775                           ;  tx_data         1    0[COMMON] unsigned char 
  1776                           ; Return value:  Size  Location     Type
  1777                           ;		None               void
  1778                           ; Registers used:
  1779                           ;		wreg
  1780                           ; Tracked objects:
  1781                           ;		On entry : 0/0
  1782                           ;		On exit  : 0/0
  1783                           ;		Unchanged: 0/0
  1784                           ; Data sizes:     COMMON   BANK0   BANK1   BANK3   BANK2
  1785                           ;      Locals:         1       0       0       0       0
  1786                           ;      Temp:     0
  1787                           ;      Total:    1
  1788                           ; This function calls:
  1789                           ;		Nothing
  1790                           ; This function is called by:
  1791                           ;		_uart_disp
  1792                           ;		_home_screen
  1793                           ; This function uses a non-reentrant model
  1794                           ; 
  1795                           psect	text83
  1796                           	file	"D:\ABHISHEK JOSHI\PIC\UART\UART T8\UART T8.C"
  1797                           	line	265
  1798                           	global	__size_of_tx
  1799  000B                     	__size_of_tx	equ	__end_of_tx-_tx
  1800                           ;UART T8.C: 264: void tx(unsigned char tx_data)
  1801                           ;UART T8.C: 265: {
  1802                           	
  1803  028B                     _tx:	
  1804                           	opt stack 3
  1805                           ; Regs used in _tx: [wreg]
  1806                           ;tx@tx_data stored from wreg
  1807  028B  00F0               	movwf	(tx@tx_data)
  1808                           	
  1809  028C                     l30000422:	
  1810                           	
  1811  028C                     l46:	
  1812                           	line	266
  1813  028C  1283               	bcf	status, 5	;RP0=0, select bank0
  1814  028D  1303               	bcf	status, 6	;RP1=0, select bank0
  1815  028E  1E0C               	btfss	(100/8),(100)&7
  1816  028F  2A91               	goto	u71
  1817  0290  2A92               	goto	u70
  1818  0291                     u71:
  1819  0291  2A8C               	goto	l46
  1820  0292                     u70:
  1821                           	
  1822  0292                     l30000423:	
  1823                           	line	267
  1824                           ;UART T8.C: 267: TXREG=tx_data;
  1825  0292  0870               	movf	(tx@tx_data),w
  1826  0293  0099               	movwf	(25)	;volatile
  1827                           	
  1828  0294                     l30000424:	
  1829                           	line	268
  1830                           ;UART T8.C: 268: TXIF=0;
  1831  0294  120C               	bcf	(100/8),(100)&7
  1832                           	
  1833  0295                     l45:	
  1834  0295  0008               	return
  1835                           	opt stack 0
  1836                           GLOBAL	__end_of_tx
  1837  0296                     	__end_of_tx:
  1838                           ; =============== function _tx ends ============
  1839                           
  1840                           psect	text84,local,class=CODE,delta=2
  1841                           global __ptext84
  1842  019E                     __ptext84:
  1843                           	line	269
  1844                           	signat	_tx,4216
  1845                           	global	_uart_delay
  1846                           
  1847                           ; *************** function _uart_delay *****************
  1848                           ; Defined at:
  1849                           ;		line 272 in file "D:\ABHISHEK JOSHI\PIC\UART\UART T8\UART T8.C"
  1850                           ; Parameters:    Size  Location     Type
  1851                           ;  del             2    0[BANK0 ] unsigned int 
  1852                           ; Auto vars:     Size  Location     Type
  1853                           ;  j               2    3[COMMON] int 
  1854                           ;  i               2    1[COMMON] int 
  1855                           ; Return value:  Size  Location     Type
  1856                           ;		None               void
  1857                           ; Registers used:
  1858                           ;		wreg
  1859                           ; Tracked objects:
  1860                           ;		On entry : 0/0
  1861                           ;		On exit  : 0/0
  1862                           ;		Unchanged: 0/0
  1863                           ; Data sizes:     COMMON   BANK0   BANK1   BANK3   BANK2
  1864                           ;      Locals:         5       2       0       0       0
  1865                           ;      Temp:     1
  1866                           ;      Total:    7
  1867                           ; This function calls:
  1868                           ;		Nothing
  1869                           ; This function is called by:
  1870                           ;		_uart_disp
  1871                           ;		_home_screen
  1872                           ; This function uses a non-reentrant model
  1873                           ; 
  1874                           psect	text84
  1875                           	file	"D:\ABHISHEK JOSHI\PIC\UART\UART T8\UART T8.C"
  1876                           	line	272
  1877                           	global	__size_of_uart_delay
  1878  002F                     	__size_of_uart_delay	equ	__end_of_uart_delay-_uart_delay
  1879                           ;UART T8.C: 271: void uart_delay(unsigned int del)
  1880                           ;UART T8.C: 272: {
  1881                           	
  1882  019E                     _uart_delay:	
  1883                           	opt stack 3
  1884                           ; Regs used in _uart_delay: [wreg]
  1885                           	line	274
  1886                           	
  1887  019E                     l30000438:	
  1888                           ;UART T8.C: 273: int j,i;
  1889                           ;UART T8.C: 274: for(i=0;i<=del;i++)
  1890  019E  3000               	movlw	low(0)
  1891  019F  00F1               	movwf	(uart_delay@i)
  1892  01A0  3000               	movlw	high(0)
  1893  01A1  00F2               	movwf	((uart_delay@i))+1
  1894  01A2  29C0               	goto	l53
  1895                           	
  1896  01A3                     l30000439:	
  1897                           	line	275
  1898                           ;UART T8.C: 275: for(j=0;j<=120;j++);
  1899  01A3  3000               	movlw	low(0)
  1900  01A4  00F3               	movwf	(uart_delay@j)
  1901  01A5  3000               	movlw	high(0)
  1902  01A6  00F4               	movwf	((uart_delay@j))+1
  1903                           	
  1904  01A7                     l30000441:	
  1905  01A7  3001               	movlw	low(01h)
  1906  01A8  07F3               	addwf	(uart_delay@j),f
  1907  01A9  1803               	skipnc
  1908  01AA  0AF4               	incf	(uart_delay@j+1),f
  1909  01AB  3000               	movlw	high(01h)
  1910  01AC  07F4               	addwf	(uart_delay@j+1),f
  1911  01AD  0874               	movf	(uart_delay@j+1),w
  1912  01AE  3A80               	xorlw	80h
  1913  01AF  00F0               	movwf	(??_uart_delay+0+0)
  1914  01B0  3080               	movlw	(high(079h))^80h
  1915  01B1  0270               	subwf	(??_uart_delay+0+0),w
  1916  01B2  1D03               	skipz
  1917  01B3  29B6               	goto	u105
  1918  01B4  3079               	movlw	low(079h)
  1919  01B5  0273               	subwf	(uart_delay@j),w
  1920  01B6                     u105:
  1921                           
  1922  01B6  1C03               	skipc
  1923  01B7  29B9               	goto	u101
  1924  01B8  29BA               	goto	u100
  1925  01B9                     u101:
  1926  01B9  29A7               	goto	l30000441
  1927  01BA                     u100:
  1928                           	
  1929  01BA                     l30000442:	
  1930                           	line	274
  1931  01BA  3001               	movlw	low(01h)
  1932  01BB  07F1               	addwf	(uart_delay@i),f
  1933  01BC  1803               	skipnc
  1934  01BD  0AF2               	incf	(uart_delay@i+1),f
  1935  01BE  3000               	movlw	high(01h)
  1936  01BF  07F2               	addwf	(uart_delay@i+1),f
  1937                           	
  1938  01C0                     l53:	
  1939  01C0  0872               	movf	(uart_delay@i+1),w
  1940  01C1  1283               	bcf	status, 5	;RP0=0, select bank0
  1941  01C2  1303               	bcf	status, 6	;RP1=0, select bank0
  1942  01C3  0244               	subwf	(uart_delay@del+1),w
  1943  01C4  1D03               	skipz
  1944  01C5  29C8               	goto	u115
  1945  01C6  0871               	movf	(uart_delay@i),w
  1946  01C7  0243               	subwf	(uart_delay@del),w
  1947  01C8                     u115:
  1948  01C8  1803               	skipnc
  1949  01C9  29CB               	goto	u111
  1950  01CA  29CC               	goto	u110
  1951  01CB                     u111:
  1952  01CB  29A3               	goto	l30000439
  1953  01CC                     u110:
  1954                           	
  1955  01CC                     l49:	
  1956  01CC  0008               	return
  1957                           	opt stack 0
  1958                           GLOBAL	__end_of_uart_delay
  1959  01CD                     	__end_of_uart_delay:
  1960                           ; =============== function _uart_delay ends ============
  1961                           
  1962                           psect	text85,local,class=CODE,delta=2
  1963                           global __ptext85
  1964  0245                     __ptext85:
  1965                           	line	277
  1966                           	signat	_uart_delay,4216
  1967                           	global	_isr_t0
  1968                           
  1969                           ; *************** function _isr_t0 *****************
  1970                           ; Defined at:
  1971                           ;		line 37 in file "D:\ABHISHEK JOSHI\PIC\UART\UART T8\UART T8.C"
  1972                           ; Parameters:    Size  Location     Type
  1973                           ;		None
  1974                           ; Auto vars:     Size  Location     Type
  1975                           ;		None
  1976                           ; Return value:  Size  Location     Type
  1977                           ;		None               void
  1978                           ; Registers used:
  1979                           ;		wreg, fsr0l, fsr0h, status,2, status,0, pclath, cstack
  1980                           ; Tracked objects:
  1981                           ;		On entry : 0/0
  1982                           ;		On exit  : 0/0
  1983                           ;		Unchanged: 0/0
  1984                           ; Data sizes:     COMMON   BANK0   BANK1   BANK3   BANK2
  1985                           ;      Locals:         0       4       0       0       0
  1986                           ;      Temp:     4
  1987                           ;      Total:    4
  1988                           ; This function calls:
  1989                           ;		i1_init_timer
  1990                           ;		_scanner
  1991                           ; This function is called by:
  1992                           ;		Interrupt level 1
  1993                           ; This function uses a non-reentrant model
  1994                           ; 
  1995                           psect	text85
  1996                           	file	"D:\ABHISHEK JOSHI\PIC\UART\UART T8\UART T8.C"
  1997                           	line	37
  1998                           	global	__size_of_isr_t0
  1999  0017                     	__size_of_isr_t0	equ	__end_of_isr_t0-_isr_t0
  2000                           ;pic168xa.h: 19: volatile unsigned char INDF @ 0x00;
  2001                           ;pic168xa.h: 20: volatile unsigned char TMR0 @ 0x01;
  2002                           ;pic168xa.h: 21: volatile unsigned char PCL @ 0x02;
  2003                           ;pic168xa.h: 22: volatile unsigned char STATUS @ 0x03;
  2004                           ;pic168xa.h: 23: unsigned char FSR @ 0x04;
  2005                           ;pic168xa.h: 24: volatile unsigned char PORTA @ 0x05;
  2006                           ;pic168xa.h: 25: volatile unsigned char PORTB @ 0x06;
  2007                           ;pic168xa.h: 26: volatile unsigned char PORTC @ 0x07;
  2008                           ;pic168xa.h: 31: unsigned char PCLATH @ 0x0A;
  2009                           ;pic168xa.h: 32: volatile unsigned char INTCON @ 0x0B;
  2010                           	
  2011  0245                     _isr_t0:	
  2012                           	opt stack 5
  2013                           ; Regs used in _isr_t0: [wreg-fsr0h+status,2+status,0+pclath+cstack]
  2014                           psect	intentry,class=CODE,delta=2
  2015                           global __pintentry
  2016  0004                     __pintentry:
  2017                           global interrupt_function
  2018  0004                     interrupt_function:
  2019                           	global saved_w
  2020  007F                     	saved_w	set	btemp+1
  2021  0004  00FF               	movwf	saved_w
  2022  0005  0803               	movf	status,w
  2023  0006  1283               	bcf	status, 5	;RP0=0, select bank0
  2024  0007  1303               	bcf	status, 6	;RP1=0, select bank0
  2025  0008  00C5               	movwf	(??_isr_t0+0)
  2026  0009  0804               	movf	fsr0,w
  2027  000A  00C6               	movwf	(??_isr_t0+1)
  2028  000B  080A               	movf	pclath,w
  2029  000C  00C7               	movwf	(??_isr_t0+2)
  2030  000D  087E               	movf	btemp+0,w
  2031  000E  00C8               	movwf	(??_isr_t0+3)
  2032  000F  120A  118A  2A45   	ljmp	_isr_t0
  2033                           psect	text85
  2034                           	line	38
  2035                           	
  2036  0245                     i1l30000486:	
  2037                           ;UART T8.C: 38: init_timer();
  2038  0245  120A  118A  227C   	fcall	i1_init_timer
              120A  118A         
  2039                           	
  2040  024A                     i1l30000487:	
  2041                           	line	39
  2042                           ;UART T8.C: 39: scanner();
  2043  024A  120A  118A  2015   	fcall	_scanner
              120A  118A         
  2044                           	
  2045  024F                     i1l2:	
  2046  024F  1283               	bcf	status, 5	;RP0=0, select bank0
  2047  0250  1303               	bcf	status, 6	;RP1=0, select bank0
  2048  0251  0848               	movf	(??_isr_t0+3),w
  2049  0252  00FE               	movwf	btemp+0
  2050  0253  0847               	movf	(??_isr_t0+2),w
  2051  0254  008A               	movwf	pclath
  2052  0255  0846               	movf	(??_isr_t0+1),w
  2053  0256  0084               	movwf	fsr0
  2054  0257  0845               	movf	(??_isr_t0+0),w
  2055  0258  0083               	movwf	status
  2056  0259  0EFF               	swapf	saved_w,f
  2057  025A  0E7F               	swapf	saved_w,w
  2058  025B  0009               	retfie
  2059                           	opt stack 0
  2060                           GLOBAL	__end_of_isr_t0
  2061  025C                     	__end_of_isr_t0:
  2062                           ; =============== function _isr_t0 ends ============
  2063                           
  2064                           psect	text86,local,class=CODE,delta=2
  2065                           global __ptext86
  2066  0015                     __ptext86:
  2067                           	line	40
  2068                           	signat	_isr_t0,88
  2069                           	global	_scanner
  2070                           
  2071                           ; *************** function _scanner *****************
  2072                           ; Defined at:
  2073                           ;		line 84 in file "D:\ABHISHEK JOSHI\PIC\UART\UART T8\UART T8.C"
  2074                           ; Parameters:    Size  Location     Type
  2075                           ;		None
  2076                           ; Auto vars:     Size  Location     Type
  2077                           ;		None
  2078                           ; Return value:  Size  Location     Type
  2079                           ;		None               void
  2080                           ; Registers used:
  2081                           ;		wreg, fsr0l, fsr0h, status,2, status,0
  2082                           ; Tracked objects:
  2083                           ;		On entry : 0/0
  2084                           ;		On exit  : 0/0
  2085                           ;		Unchanged: 0/0
  2086                           ; Data sizes:     COMMON   BANK0   BANK1   BANK3   BANK2
  2087                           ;      Locals:         0       0       0       0       0
  2088                           ;      Temp:     0
  2089                           ;      Total:    0
  2090                           ; This function calls:
  2091                           ;		Nothing
  2092                           ; This function is called by:
  2093                           ;		_isr_t0
  2094                           ; This function uses a non-reentrant model
  2095                           ; 
  2096                           psect	text86
  2097                           	file	"D:\ABHISHEK JOSHI\PIC\UART\UART T8\UART T8.C"
  2098                           	line	84
  2099                           	global	__size_of_scanner
  2100  00A2                     	__size_of_scanner	equ	__end_of_scanner-_scanner
  2101                           ;UART T8.C: 83: void scanner()
  2102                           ;UART T8.C: 84: {
  2103                           	
  2104  0015                     _scanner:	
  2105                           	opt stack 4
  2106                           ; Regs used in _scanner: [wreg-fsr0h+status,2+status,0]
  2107                           	
  2108  0015                     i1l30000467:	
  2109  0015  287E               	goto	i1l30000485
  2110                           	
  2111  0016                     i1l12:	
  2112                           	line	88
  2113                           ;UART T8.C: 88: RA1=0;
  2114  0016  1283               	bcf	status, 5	;RP0=0, select bank0
  2115  0017  1303               	bcf	status, 6	;RP1=0, select bank0
  2116  0018  1085               	bcf	(41/8),(41)&7
  2117                           	line	89
  2118                           ;UART T8.C: 89: RC0=1;
  2119  0019  1407               	bsf	(56/8),(56)&7
  2120                           	line	90
  2121                           ;UART T8.C: 90: RC1=1;
  2122  001A  1487               	bsf	(57/8),(57)&7
  2123                           	line	91
  2124                           ;UART T8.C: 91: RC2=1;
  2125  001B  1507               	bsf	(58/8),(58)&7
  2126                           	
  2127  001C                     i1l30000468:	
  2128                           	line	93
  2129                           ;UART T8.C: 93: scan_no=1;
  2130  001C  3001               	movlw	low(01h)
  2131  001D  00F9               	movwf	(_scan_no)
  2132  001E  3000               	movlw	high(01h)
  2133  001F  00FA               	movwf	((_scan_no))+1
  2134  0020  28B6               	goto	i1l9
  2135                           	
  2136  0021                     i1l30000469:	
  2137                           	line	97
  2138                           ;UART T8.C: 97: scan_no=2;
  2139  0021  3002               	movlw	low(02h)
  2140  0022  00F9               	movwf	(_scan_no)
  2141  0023  3000               	movlw	high(02h)
  2142  0024  00FA               	movwf	((_scan_no))+1
  2143  0025  28B6               	goto	i1l9
  2144                           	
  2145  0026                     i1l30000470:	
  2146                           	line	101
  2147                           ;UART T8.C: 101: scan_no=3;
  2148  0026  3003               	movlw	low(03h)
  2149  0027  00F9               	movwf	(_scan_no)
  2150  0028  3000               	movlw	high(03h)
  2151  0029  00FA               	movwf	((_scan_no))+1
  2152  002A  28B6               	goto	i1l9
  2153                           	
  2154  002B                     i1l30000471:	
  2155                           	line	106
  2156                           ;UART T8.C: 106: scan_no=4;
  2157  002B  3004               	movlw	low(04h)
  2158  002C  00F9               	movwf	(_scan_no)
  2159  002D  3000               	movlw	high(04h)
  2160  002E  00FA               	movwf	((_scan_no))+1
  2161  002F  28B6               	goto	i1l9
  2162                           	
  2163  0030                     i1l16:	
  2164                           	line	110
  2165                           ;UART T8.C: 110: RA1=1;
  2166  0030  1283               	bcf	status, 5	;RP0=0, select bank0
  2167  0031  1303               	bcf	status, 6	;RP1=0, select bank0
  2168  0032  1485               	bsf	(41/8),(41)&7
  2169                           	line	111
  2170                           ;UART T8.C: 111: RC0=0;
  2171  0033  1007               	bcf	(56/8),(56)&7
  2172                           	line	112
  2173                           ;UART T8.C: 112: RC1=1;
  2174  0034  1487               	bsf	(57/8),(57)&7
  2175                           	line	113
  2176                           ;UART T8.C: 113: RC2=1;
  2177  0035  1507               	bsf	(58/8),(58)&7
  2178                           	
  2179  0036                     i1l30000472:	
  2180                           	line	115
  2181                           ;UART T8.C: 115: scan_no=5;
  2182  0036  3005               	movlw	low(05h)
  2183  0037  00F9               	movwf	(_scan_no)
  2184  0038  3000               	movlw	high(05h)
  2185  0039  00FA               	movwf	((_scan_no))+1
  2186  003A  28B6               	goto	i1l9
  2187                           	
  2188  003B                     i1l30000473:	
  2189                           	line	119
  2190                           ;UART T8.C: 119: scan_no=6;
  2191  003B  3006               	movlw	low(06h)
  2192  003C  00F9               	movwf	(_scan_no)
  2193  003D  3000               	movlw	high(06h)
  2194  003E  00FA               	movwf	((_scan_no))+1
  2195  003F  28B6               	goto	i1l9
  2196                           	
  2197  0040                     i1l30000474:	
  2198                           	line	123
  2199                           ;UART T8.C: 123: scan_no=7;
  2200  0040  3007               	movlw	low(07h)
  2201  0041  00F9               	movwf	(_scan_no)
  2202  0042  3000               	movlw	high(07h)
  2203  0043  00FA               	movwf	((_scan_no))+1
  2204  0044  28B6               	goto	i1l9
  2205                           	
  2206  0045                     i1l30000475:	
  2207                           	line	128
  2208                           ;UART T8.C: 128: scan_no=8;
  2209  0045  3008               	movlw	low(08h)
  2210  0046  00F9               	movwf	(_scan_no)
  2211  0047  3000               	movlw	high(08h)
  2212  0048  00FA               	movwf	((_scan_no))+1
  2213  0049  28B6               	goto	i1l9
  2214                           	
  2215  004A                     i1l20:	
  2216                           	line	132
  2217                           ;UART T8.C: 132: RA1=1;
  2218  004A  1283               	bcf	status, 5	;RP0=0, select bank0
  2219  004B  1303               	bcf	status, 6	;RP1=0, select bank0
  2220  004C  1485               	bsf	(41/8),(41)&7
  2221                           	line	133
  2222                           ;UART T8.C: 133: RC0=1;
  2223  004D  1407               	bsf	(56/8),(56)&7
  2224                           	line	134
  2225                           ;UART T8.C: 134: RC1=0;
  2226  004E  1087               	bcf	(57/8),(57)&7
  2227                           	line	135
  2228                           ;UART T8.C: 135: RC2=1;
  2229  004F  1507               	bsf	(58/8),(58)&7
  2230                           	
  2231  0050                     i1l30000476:	
  2232                           	line	137
  2233                           ;UART T8.C: 137: scan_no=9;
  2234  0050  3009               	movlw	low(09h)
  2235  0051  00F9               	movwf	(_scan_no)
  2236  0052  3000               	movlw	high(09h)
  2237  0053  00FA               	movwf	((_scan_no))+1
  2238  0054  28B6               	goto	i1l9
  2239                           	
  2240  0055                     i1l30000477:	
  2241                           	line	141
  2242                           ;UART T8.C: 141: scan_no=10;
  2243  0055  300A               	movlw	low(0Ah)
  2244  0056  00F9               	movwf	(_scan_no)
  2245  0057  3000               	movlw	high(0Ah)
  2246  0058  00FA               	movwf	((_scan_no))+1
  2247  0059  28B6               	goto	i1l9
  2248                           	
  2249  005A                     i1l30000478:	
  2250                           	line	145
  2251                           ;UART T8.C: 145: scan_no=11;
  2252  005A  300B               	movlw	low(0Bh)
  2253  005B  00F9               	movwf	(_scan_no)
  2254  005C  3000               	movlw	high(0Bh)
  2255  005D  00FA               	movwf	((_scan_no))+1
  2256  005E  28B6               	goto	i1l9
  2257                           	
  2258  005F                     i1l30000479:	
  2259                           	line	150
  2260                           ;UART T8.C: 150: scan_no=12;
  2261  005F  300C               	movlw	low(0Ch)
  2262  0060  00F9               	movwf	(_scan_no)
  2263  0061  3000               	movlw	high(0Ch)
  2264  0062  00FA               	movwf	((_scan_no))+1
  2265  0063  28B6               	goto	i1l9
  2266                           	
  2267  0064                     i1l24:	
  2268                           	line	154
  2269                           ;UART T8.C: 154: RA1=1;
  2270  0064  1283               	bcf	status, 5	;RP0=0, select bank0
  2271  0065  1303               	bcf	status, 6	;RP1=0, select bank0
  2272  0066  1485               	bsf	(41/8),(41)&7
  2273                           	line	155
  2274                           ;UART T8.C: 155: RC0=1;
  2275  0067  1407               	bsf	(56/8),(56)&7
  2276                           	line	156
  2277                           ;UART T8.C: 156: RC1=1;
  2278  0068  1487               	bsf	(57/8),(57)&7
  2279                           	line	157
  2280                           ;UART T8.C: 157: RC2=0;
  2281  0069  1107               	bcf	(58/8),(58)&7
  2282                           	
  2283  006A                     i1l30000480:	
  2284                           	line	159
  2285                           ;UART T8.C: 159: scan_no=13;
  2286  006A  300D               	movlw	low(0Dh)
  2287  006B  00F9               	movwf	(_scan_no)
  2288  006C  3000               	movlw	high(0Dh)
  2289  006D  00FA               	movwf	((_scan_no))+1
  2290  006E  28B6               	goto	i1l9
  2291                           	
  2292  006F                     i1l30000481:	
  2293                           	line	163
  2294                           ;UART T8.C: 163: scan_no=14;
  2295  006F  300E               	movlw	low(0Eh)
  2296  0070  00F9               	movwf	(_scan_no)
  2297  0071  3000               	movlw	high(0Eh)
  2298  0072  00FA               	movwf	((_scan_no))+1
  2299  0073  28B6               	goto	i1l9
  2300                           	
  2301  0074                     i1l30000482:	
  2302                           	line	167
  2303                           ;UART T8.C: 167: scan_no=15;
  2304  0074  300F               	movlw	low(0Fh)
  2305  0075  00F9               	movwf	(_scan_no)
  2306  0076  3000               	movlw	high(0Fh)
  2307  0077  00FA               	movwf	((_scan_no))+1
  2308  0078  28B6               	goto	i1l9
  2309                           	
  2310  0079                     i1l30000483:	
  2311                           	line	172
  2312                           ;UART T8.C: 172: scan_no=0;
  2313  0079  3000               	movlw	low(0)
  2314  007A  00F9               	movwf	(_scan_no)
  2315  007B  3000               	movlw	high(0)
  2316  007C  00FA               	movwf	((_scan_no))+1
  2317  007D  28B6               	goto	i1l9
  2318                           	
  2319  007E                     i1l30000485:	
  2320                           	line	85
  2321  007E  28B1               		goto	i1l30015
  2322  007F                     i1l30016:
  2323  007F  0879               	movf (_scan_no),w
  2324  0080  3A00               	xorlw	0^0
  2325  0081  1903               	skipnz
  2326  0082  2816               	goto	i1l12
  2327  0083  3A01               	xorlw	1^0
  2328  0084  1903               	skipnz
  2329  0085  2821               	goto	i1l30000469
  2330  0086  3A03               	xorlw	2^1
  2331  0087  1903               	skipnz
  2332  0088  2826               	goto	i1l30000470
  2333  0089  3A01               	xorlw	3^2
  2334  008A  1903               	skipnz
  2335  008B  282B               	goto	i1l30000471
  2336  008C  3A07               	xorlw	4^3
  2337  008D  1903               	skipnz
  2338  008E  2830               	goto	i1l16
  2339  008F  3A01               	xorlw	5^4
  2340  0090  1903               	skipnz
  2341  0091  283B               	goto	i1l30000473
  2342  0092  3A03               	xorlw	6^5
  2343  0093  1903               	skipnz
  2344  0094  2840               	goto	i1l30000474
  2345  0095  3A01               	xorlw	7^6
  2346  0096  1903               	skipnz
  2347  0097  2845               	goto	i1l30000475
  2348  0098  3A0F               	xorlw	8^7
  2349  0099  1903               	skipnz
  2350  009A  284A               	goto	i1l20
  2351  009B  3A01               	xorlw	9^8
  2352  009C  1903               	skipnz
  2353  009D  2855               	goto	i1l30000477
  2354  009E  3A03               	xorlw	10^9
  2355  009F  1903               	skipnz
  2356  00A0  285A               	goto	i1l30000478
  2357  00A1  3A01               	xorlw	11^10
  2358  00A2  1903               	skipnz
  2359  00A3  285F               	goto	i1l30000479
  2360  00A4  3A07               	xorlw	12^11
  2361  00A5  1903               	skipnz
  2362  00A6  2864               	goto	i1l24
  2363  00A7  3A01               	xorlw	13^12
  2364  00A8  1903               	skipnz
  2365  00A9  286F               	goto	i1l30000481
  2366  00AA  3A03               	xorlw	14^13
  2367  00AB  1903               	skipnz
  2368  00AC  2874               	goto	i1l30000482
  2369  00AD  3A01               	xorlw	15^14
  2370  00AE  1903               	skipnz
  2371  00AF  2879               	goto	i1l30000483
  2372  00B0  28B6               	goto	i1l9
  2373                           
  2374  00B1                     i1l30015:
  2375  00B1  087A               	movf (_scan_no+1),w
  2376  00B2  3A00               	xorlw	0^0
  2377  00B3  1903               	skipnz
  2378  00B4  287F               	goto	i1l30016
  2379  00B5  28B6               	goto	i1l9
  2380                           
  2381                           	
  2382  00B6                     i1l9:	
  2383  00B6  0008               	return
  2384                           	opt stack 0
  2385                           GLOBAL	__end_of_scanner
  2386  00B7                     	__end_of_scanner:
  2387                           ; =============== function _scanner ends ============
  2388                           
  2389                           psect	text87,local,class=CODE,delta=2
  2390                           global __ptext87
  2391  027C                     __ptext87:
  2392                           	line	175
  2393                           	signat	_scanner,88
  2394                           	global	i1_init_timer
  2395                           
  2396                           ; *************** function i1_init_timer *****************
  2397                           ; Defined at:
  2398                           ;		line 75 in file "D:\ABHISHEK JOSHI\PIC\UART\UART T8\UART T8.C"
  2399                           ; Parameters:    Size  Location     Type
  2400                           ;		None
  2401                           ; Auto vars:     Size  Location     Type
  2402                           ;		None
  2403                           ; Return value:  Size  Location     Type
  2404                           ;		None               void
  2405                           ; Registers used:
  2406                           ;		wreg
  2407                           ; Tracked objects:
  2408                           ;		On entry : 0/0
  2409                           ;		On exit  : 0/0
  2410                           ;		Unchanged: 0/0
  2411                           ; Data sizes:     COMMON   BANK0   BANK1   BANK3   BANK2
  2412                           ;      Locals:         0       0       0       0       0
  2413                           ;      Temp:     0
  2414                           ;      Total:    0
  2415                           ; This function calls:
  2416                           ;		Nothing
  2417                           ; This function is called by:
  2418                           ;		_isr_t0
  2419                           ; This function uses a non-reentrant model
  2420                           ; 
  2421                           psect	text87
  2422                           	file	"D:\ABHISHEK JOSHI\PIC\UART\UART T8\UART T8.C"
  2423                           	line	75
  2424                           	global	__size_ofi1_init_timer
  2425  000F                     	__size_ofi1_init_timer	equ	__end_ofi1_init_timer-i1_init_timer
  2426                           ;UART T8.C: 74: void init_timer()
  2427                           ;UART T8.C: 75: {
  2428                           	
  2429  027C                     i1_init_timer:	
  2430                           	opt stack 4
  2431                           ; Regs used in i1_init_timer: [wreg]
  2432                           	line	76
  2433                           	
  2434  027C                     i1l30000488:	
  2435                           ;UART T8.C: 76: TMR1H=0xFC;
  2436  027C  30FC               	movlw	(0FCh)
  2437  027D  1283               	bcf	status, 5	;RP0=0, select bank0
  2438  027E  1303               	bcf	status, 6	;RP1=0, select bank0
  2439  027F  008F               	movwf	(15)	;volatile
  2440                           	line	77
  2441                           ;UART T8.C: 77: TMR1L=0x18;
  2442  0280  3018               	movlw	(018h)
  2443  0281  008E               	movwf	(14)	;volatile
  2444                           	line	78
  2445                           ;UART T8.C: 78: T1CON=0x01;
  2446  0282  3001               	movlw	(01h)
  2447  0283  0090               	movwf	(16)	;volatile
  2448                           	
  2449  0284                     i1l30000489:	
  2450                           	line	79
  2451                           ;UART T8.C: 79: TMR1IE=1;
  2452  0284  1683               	bsf	status, 5	;RP0=1, select bank1
  2453  0285  1303               	bcf	status, 6	;RP1=0, select bank1
  2454  0286  140C               	bsf	(1120/8)^080h,(1120)&7
  2455                           	
  2456  0287                     i1l30000490:	
  2457                           	line	80
  2458                           ;UART T8.C: 80: TMR1IF=0;
  2459  0287  1283               	bcf	status, 5	;RP0=0, select bank0
  2460  0288  1303               	bcf	status, 6	;RP1=0, select bank0
  2461  0289  100C               	bcf	(96/8),(96)&7
  2462                           	
  2463  028A                     i1l8:	
  2464  028A  0008               	return
  2465                           	opt stack 0
  2466                           GLOBAL	__end_ofi1_init_timer
  2467  028B                     	__end_ofi1_init_timer:
  2468                           ; =============== function i1_init_timer ends ============
  2469                           
  2470                           psect	text88,local,class=CODE,delta=2
  2471                           global __ptext88
  2472  02AE                     __ptext88:
  2473                           	line	81
  2474                           	signat	i1_init_timer,88
  2475                           	global	btemp
  2476  007E                     	btemp set 07Eh


HI-TECH Software PICC Macro Assembler V9.70 build 5239 
Symbol Table                                                                                   Tue Jan 01 15:29:27 2002

        uart_delay@del 0043                      l7 029F                      l8 027B                      _i 0049  
                    _k 004B                      pc 0002         __size_of_delay 002F                     _DA 04A5  
                   _BF 04A0                     _DC 0019                     l32 01EF                     l41 0100  
                   l42 02A9                     l44 0169                     l36 019D                     l28 01FB  
                   l53 01C0                     l45 0295                     l46 028C                     l38 019D  
                   l49 01CC              tx@tx_data 0070                     _PD 001B                     _RD 0C60  
                   _UA 04A1                     u30 0173                     u31 0172                     u40 017E  
                   u41 017D                     u50 0189                     u51 0188                     u60 0194  
                   u61 0193                     u70 0292                     u71 0291                     _TO 001C  
                   _RW 04A2                     _WR 0C61                     _tx 028B                     fsr 0004  
         ??_incrementd 0070            __pbssCOMMON 0079           i1_init_timer 027C                    _CM0 04E0  
                  _CM1 04E1                    _CM2 04E2                    ?_tx 0071                    _CKE 04A6  
                  _CIS 04E3                    _CKP 00A4                    _GIE 005F                    _BOR 0470  
                  _RA0 0028                    _RA1 0029                    _RB0 0030                    _RA2 002A  
                  _RB1 0031                    _RA3 002B                    _RC0 0038                    _RB2 0032  
                  _RA4 002C                    _RC1 0039                    _RB3 0033                    _RA5 002D  
                  _RC2 003A                    _RB4 0034                    _RC3 003B                    _RB5 0035  
                  _RC4 003C                    _RB6 0036                    _RC5 003D                    _RB7 0037  
                  u100 01BA                    _RC6 003E                    u101 01B9                    _RC7 003F  
                  u110 01CC                    u111 01CB                    u120 01E9                    u105 01B6  
                  u121 01E8                    u130 01FB                    u115 01C8                    u131 01FA  
                  u125 01E5                    u135 01F7                    _FSR 0004                    _PCL 0002  
                  _PS0 0408                    _PR2 0092                    _PS1 0409                    _PS2 040A  
                  _PEN 048A                    _RP0 001D                    _IRP 001F                    _RP1 001E  
                  i1l2 024F                    i1l8 028A                    _SEN 0488                    i1l9 00B6  
                  _PSA 040B                    _POR 0471                    _RX9 00C6                    _SMP 04A7  
                  _TX9 04C6        __size_of_isr_t0 0017                    _ds1 0075                    _ds2 0076  
                  _ds3 0077                    _ds4 0078                    _cnt 0039                    fsr0 0004  
                  indf 0000   __end_ofi1_init_timer 028B           ??_init_timer 0070          ??_home_screen 0071  
             _cmd_data 007B             _uart_delay 019E                   ??_tx 0070                ??_delay 0070  
   __end_of_uart_delay 01CD                   _ADIE 0466                   _ADIF 0066                   _ADFM 04FF  
                 _ADGO 00FA                   _ADON 00F8               __ptext80 0296               __ptext81 026D  
                 _CHS0 00FB               __ptext82 0136                   _CHS1 00FC               __ptext83 028B  
                 _CHS2 00FD               __ptext84 019E               __ptext76 00B7               __ptext85 0245  
             __ptext77 01CD               __ptext86 0015               __ptext78 016A                   _EEIE 046C  
             __ptext87 027C               __ptext79 02A0                   _EEIF 006C               __ptext88 02AE  
                 _GCEN 048F                   _CMIE 046E                   _CMIF 006E                   _BRGH 04C2  
                 _T0IE 005D                   _T0IF 005A                   _CREN 00C4                   _T0CS 040D  
                 _FERR 00C2                   _CVR0 04E8                   _CVR1 04E9                   _CVR2 04EA  
                 _CVR3 04EB                   _T0SE 040C                   _CSRC 04C7                   _INDF 0000  
                 _PIE1 008C                   _PIE2 008D                   _CVRR 04ED                   _PEIE 005E  
                 i1l20 004A                   i1l12 0016                   _INTE 005C                   _INTF 0059  
                 _RBIE 005B                   i1l24 0064                   i1l16 0030                   _RBIF 0058  
                 _RCIE 0465                   _RCEN 048B                   _RCIF 0065                   _PCON 008E  
                 _PIR1 000C                   _PIR2 000D                   _OERR 00C1                   _RBPU 040F  
         __pidataBANK0 0222                   _RX9D 00C0                   _TMR0 0001                   _TMR2 0011  
                 _WCOL 00A7                   _SPEN 00C7                   _RSEN 0489                   _TX9D 04C0  
                 _SREN 00C5                   _TRMT 04C1                   _STOP 04A4                   _TXIE 0464  
                 _ZERO 001A                   _WREN 0C62                   _TXEN 04C5                   _TXIF 0064  
                 _SYNC 04C4       __size_of_scanner 00A2                   _disp 0020                   _main 0101  
                 _init 0296            ?_uart_delay 0043                   btemp 007E                   start 0012  
             delay@del 0043      interrupt_function 0004    start_initialization 01FC            uart_delay@i 0071  
          uart_delay@j 0073                _CCP1CON 0017                _CCP2CON 001D                _ACKSTAT 048E  
              ?_isr_t0 0049          ?i1_init_timer 0045                  _C1INV 04E4               ??_isr_t0 0045  
                _C2INV 04E5                  _C1OUT 04E6                  _C2OUT 04E7                  _ADCS0 00FE  
                _ADCS1 00FF                  _ADCS2 04FE                  _ADDEN 00C3                  ?_main 0075  
                _ACKEN 048C                  _ACKDT 048D                  ?_init 0070                  _BCLIE 046B  
                _BCLIF 006B                  _CCP1X 00BD                  _CCP1Y 00BC                  _CCP2X 00ED  
                _CCP2Y 00EC                  _EEADR 010D          __end_of_delay 01FC                  _CARRY 0018  
                _EEPGD 0C67                  _CMCON 009C           ??_uart_delay 0070                  _T1CON 0010  
                _T2CON 0012                _T1CKPS0 0084                _T1CKPS1 0085                  _PCFG0 04F8  
                _PCFG1 04F9                  _PCFG2 04FA                  _PCFG3 04FB                _T2CKPS0 0090  
              _T2CKPS1 0091                  _CVREN 04EF                  _CVROE 04EE                  _RCREG 001A  
                _RCSTA 0018                  _TMR1H 000F                  _TMR1L 000E                  _SPBRG 0099  
                _PORTA 0005                  _PORTB 0006                _T1OSCEN 0083                  _PORTC 0007  
                _START 04A3                  _SSPM0 00A0                  _SSPM1 00A1                  _SSPM2 00A2  
                _SSPM3 00A3                  _TRISA 0085                  _TRISB 0086                  _TRISC 0087  
                _SSPIE 0463                  _SSPIF 0063                  _SSPEN 00A5                i1l30015 00B1  
              i1l30016 007F                  _SSPOV 00A6                  _WRERR 0C63                  _TXREG 0019  
                _TXSTA 0098          __pidataCOMMON 02AA        __end_of_scanner 00B7            __size_of_tx 000B  
       __pcstackCOMMON 0070                  _delay 01CD                _SSPCON2 0091  __size_ofi1_init_timer 000F  
           __end_of_tx 0296                _SSPSTAT 0094                _TOUTPS0 0093                _TOUTPS1 0094  
              _TOUTPS2 0095                _TOUTPS3 0096                  pclath 000A               intlevel1 0004  
  __size_of_incrementd 0034                  status 0003              _init_uart 02A0      __end_of_init_uart 02AA  
           ?_init_uart 0070    __size_of_init_timer 000F          __size_of_main 0035             __pbssBANK0 0049  
        __size_of_init 000A               l30000410 0178               l30000411 017E               l30000420 02A6  
             l30000412 0180               l30000413 0183               l30000422 028C               l30000414 0189  
             l30000406 016A               l30000423 0292               l30000415 018B               l30000407 016D  
             l30000424 0294               l30000416 018E               l30000408 0173               l30000441 01A7  
             l30000417 0194               l30000409 0175               l30000442 01BA               l30000450 00EF  
             l30000419 02A0               l30000451 00F5               l30000443 00B7               l30000380 0275  
             l30000444 00BC               l30000460 012D               l30000452 0101               l30000461 0136  
             l30000381 0278               l30000445 00C2               l30000453 010D               l30000438 019E  
             l30000462 01CD               l30000446 00CD               l30000454 010F               l30000439 01A3  
             l30000463 01D2               l30000447 00D3               l30000455 0114               l30000448 00DE  
             l30000456 0119               l30000377 0296               l30000465 01D6               l30000449 00E4  
             l30000457 011C               l30000378 029A               l30000466 01E9               l30000458 011D  
             l30000379 026D               l30000459 0122            ??_init_uart 0070              _uart_disp 00B7  
               ??_main 0071      __end_of_uart_disp 0101                 ??_init 0070             __pmaintext 0101  
           ?_uart_disp 0075                delay@d1 0071                delay@d2 0073                _scan_no 0079  
              _scanner 0015               ?_scanner 0045             __pintentry 0004                 ?_delay 0043  
            ??_scanner 0045                 _ADCON0 001F                 _ADCON1 009F                 _CCP1M0 00B8  
               _CCP1M1 00B9                 _CCP1M2 00BA                 _CCP1M3 00BB                 _CCP2M0 00E8  
               _CCP2M1 00E9                 _CCP2M2 00EA                 _CCP2M3 00EB                 _CCP1IE 0462  
               _CCP1IF 0062                 _CCP2IE 0468                 _CCP2IF 0068                 _ADRESH 001E  
               _EEADRH 010F                 _ADRESL 009E                 _EEADRL 010D                 _EEDATA 010C  
               _CCPR1H 0016                 _EEDATH 010E                 _CCPR2H 001C                 _CCPR1L 0015  
               _CCPR2L 001B                 _EECON1 018C                 _EECON2 018D           __end_of_main 0136  
          ??_uart_disp 0071           __end_of_init 02A0                 _GODONE 00FA   end_of_initialization 021E  
               _CVRCON 009D                 _T1SYNC 0082                 _INTEDG 040E                 _PCLATH 000A  
               _INTCON 000B          __pcstackBANK0 0043         __end_of_isr_t0 025C                 _TMR0IE 005D  
               _TMR0IF 005A                 _TMR1IE 0460                 _TMR1IF 0060                 _TMR1CS 0081  
               _TMR2IE 0461                 _TMR2IF 0061                 _OPTION 0081                 _TMR1ON 0080  
               _TMR2ON 0092                 _SSPADD 0093                 _TRISA0 0428                 _TRISA1 0429  
               _TRISB0 0430                 _TRISA2 042A                 _TRISB1 0431                 _TRISA3 042B  
               _TRISC0 0438                 _TRISB2 0432                 _TRISA4 042C                 _TRISC1 0439  
               _TRISB3 0433                 _TRISA5 042D                 _TRISC2 043A                 _TRISB4 0434  
               _TRISC3 043B                 _TRISB5 0435                 _TRISC4 043C                 _TRISB6 0436  
               _TRISC5 043D                 _TRISB7 0437                 _TRISC6 043E                 _TRISC7 043F  
               _STATUS 0003                 _SSPCON 0014                 _SSPBUF 0013                init_ram 0260  
  __size_of_uart_delay 002F            _home_screen 0136     __size_of_init_uart 000A    __end_of_home_screen 016A  
               _isr_t0 0245             i1l30000470 0026             i1l30000471 002B             i1l30000480 006A  
           i1l30000472 0036             i1l30000481 006F             i1l30000473 003B             i1l30000490 0287  
           i1l30000482 0074             i1l30000474 0040             i1l30000483 0079             i1l30000475 0045  
           i1l30000467 0015             i1l30000476 0050             i1l30000468 001C             i1l30000477 0055  
           i1l30000469 0021             i1l30000485 007E             i1l30000478 005A             i1l30000486 0245  
           i1l30000479 005F             i1l30000487 024A             i1l30000488 027C             i1l30000489 0284  
            init_fetch 025C         ??i1_init_timer 0045           ?_home_screen 0075             _incrementd 016A  
   __size_of_uart_disp 004A                 saved_w 007F     __end_of_incrementd 019E   __size_of_home_screen 0034  
           _init_timer 026D     __end_of_init_timer 027C            ?_incrementd 0070            ?_init_timer 0070  
          __pdataBANK0 0020           __pdataCOMMON 0075  
