

HI-TECH Software PIC LITE Macro Assembler V9.70 build 5239 
                                                                                               Wed Jan 02 16:31:37 2002

HI-TECH Software Omniscient Code Generator (Lite mode) build 5239
     1  0000                     opt subtitle "HI-TECH Software Omniscient Code Generator (Lite mode) build 5239"
     2                           
     3                           opt pagewidth 120
     4                           
     5                           	opt lm
     6                           
     7                           	processor	16F876A
     8                           clrc	macro
     9                           	bcf	3,0
    10  0000                     	endm
    11                           clrz	macro
    12                           	bcf	3,2
    13  0000                     	endm
    14                           setc	macro
    15                           	bsf	3,0
    16  0000                     	endm
    17                           setz	macro
    18                           	bsf	3,2
    19  0000                     	endm
    20                           skipc	macro
    21                           	btfss	3,0
    22  0000                     	endm
    23                           skipz	macro
    24                           	btfss	3,2
    25  0000                     	endm
    26                           skipnc	macro
    27                           	btfsc	3,0
    28  0000                     	endm
    29                           skipnz	macro
    30                           	btfsc	3,2
    31  0000                     	endm
    32  0000                     indf	equ	0
    33  0000                     indf0	equ	0
    34  0002                     pc	equ	2
    35  0002                     pcl	equ	2
    36  0003                     status	equ	3
    37  0004                     fsr	equ	4
    38  0004                     fsr0	equ	4
    39  0001                     c	equ	1
    40  0000                     z	equ	0
    41  000A                     pclath	equ	10
    42                           ;COMMON:	_main->_get_key
    43                           	FNCALL	_main,_init
    44                           	FNCALL	_main,_get_key
    45                           	FNCALL	_main,_keyprocess
    46                           	FNCALL	_keyprocess,_process_a
    47                           	FNCALL	_keyprocess,_process_b
    48                           	FNCALL	_keyprocess,_process_c
    49                           	FNCALL	_keyprocess,_key_release
    50                           	FNCALL	_init,_init_keypad
    51                           	FNCALL	_init,_init_timer
    52                           	FNCALL	_init,_init_delay_1sec
    53                           	FNROOT	_main
    54                           	FNCALL	_isr_t0,i1_init_timer
    55                           	FNCALL	_isr_t0,_delay_1sec
    56                           	FNCALL	_isr_t0,_scanner
    57                           	FNCALL	_isr_t0,_incrementd
    58                           	FNCALL	_scanner,_adisp1
    59                           	FNCALL	_scanner,_k1
    60                           	FNCALL	_scanner,_disp_blank
    61                           	FNCALL	_scanner,_adisp2
    62                           	FNCALL	_scanner,_adisp3
    63                           	FNCALL	_scanner,_adisp4
    64                           	FNCALL	intlevel1,_isr_t0
    65                           	global	intlevel1
    66                           	FNROOT	intlevel1
    67                           	global	_ascii_tab
    68                           	global	_disp
    69                           	global	_ds1
    70                           	global	_ds2
    71                           	global	_ds3
    72                           	global	_ds4
    73                           psect	idataBANK0,class=CODE,space=0,delta=2
    74                           global __pidataBANK0
    75  02F8                     __pidataBANK0:
    76                           	file	"D:\ABHISHEK JOSHI\PIC\T10\T10.C"
    77                           	line	15
    78                           
    79                           ;initializer for _ascii_tab
    80  02F8  3430               	retlw	030h
    81  02F9  3431               	retlw	031h
    82  02FA  3432               	retlw	032h
    83  02FB  3433               	retlw	033h
    84  02FC  3434               	retlw	034h
    85  02FD  3435               	retlw	035h
    86  02FE  3436               	retlw	036h
    87  02FF  3437               	retlw	037h
    88  0300  3438               	retlw	038h
    89  0301  3439               	retlw	039h
    90  0302  3441               	retlw	041h
    91  0303  3442               	retlw	042h
    92  0304  3443               	retlw	043h
    93  0305  3444               	retlw	044h
    94  0306  3445               	retlw	045h
    95  0307  3446               	retlw	046h
    96  0308  3400               	retlw	0
    97  0309  3400               	retlw	0
    98  030A  3400               	retlw	0
    99  030B  3400               	retlw	0
   100  030C  3400               	retlw	0
   101  030D  3400               	retlw	0
   102  030E  3400               	retlw	0
   103  030F  3400               	retlw	0
   104  0310  3400               	retlw	0
   105                           	line	14
   106                           
   107                           ;initializer for _disp
   108  0311  34FC               	retlw	0FCh
   109  0312  3460               	retlw	060h
   110  0313  34DA               	retlw	0DAh
   111  0314  34F2               	retlw	0F2h
   112  0315  3466               	retlw	066h
   113  0316  34B6               	retlw	0B6h
   114  0317  34BE               	retlw	0BEh
   115  0318  34E0               	retlw	0E0h
   116  0319  34FE               	retlw	0FEh
   117  031A  34F6               	retlw	0F6h
   118  031B  34FF               	retlw	0FFh
   119  031C  34FF               	retlw	0FFh
   120  031D  34FF               	retlw	0FFh
   121  031E  34FF               	retlw	0FFh
   122  031F  34FF               	retlw	0FFh
   123  0320  34FF               	retlw	0FFh
   124  0321  34FF               	retlw	0FFh
   125  0322  34EE               	retlw	0EEh
   126  0323  343E               	retlw	03Eh
   127  0324  349C               	retlw	09Ch
   128  0325  347A               	retlw	07Ah
   129  0326  349E               	retlw	09Eh
   130  0327  348E               	retlw	08Eh
   131  0328  3400               	retlw	0
   132  0329  3400               	retlw	0
   133                           psect	idataCOMMON,class=CODE,space=0,delta=2
   134                           global __pidataCOMMON
   135  04E7                     __pidataCOMMON:
   136                           	line	16
   137                           
   138                           ;initializer for _ds1
   139  04E7  3430               	retlw	030h
   140                           
   141                           ;initializer for _ds2
   142  04E8  3430               	retlw	030h
   143                           
   144                           ;initializer for _ds3
   145  04E9  3430               	retlw	030h
   146                           
   147                           ;initializer for _ds4
   148  04EA  3430               	retlw	030h
   149                           	global	_a
   150                           	global	_c
   151                           	global	_key_code
   152                           	global	_key_ready
   153                           	global	_nkp
   154                           	global	_scan_no
   155                           	global	_start_buzzer
   156                           	global	_start_sw
   157                           	global	_tb
   158                           	global	_k
   159                           	global	_cnt_1sh
   160                           psect	nvBANK0,class=BANK0,space=1
   161                           global __pnvBANK0
   162  0064                     __pnvBANK0:
   163  0064                     _cnt_1sh:
   164  0064                            ds      2
   165                           
   166                           	global	_cnt_1sl
   167  0066                     _cnt_1sl:
   168  0066                            ds      2
   169                           
   170                           	global	_dcount
   171  0068                     _dcount:
   172  0068                            ds      2
   173                           
   174                           	global	_krcount
   175  006A                     _krcount:
   176  006A                            ds      2
   177                           
   178                           	global	_s1_over
   179  006C                     _s1_over:
   180  006C                            ds      2
   181                           
   182                           	global	_ADCON0
   183  001F                     _ADCON0  equ     31
   184                           	global	_ADRESH
   185  001E                     _ADRESH  equ     30
   186                           	global	_CCP1CON
   187  0017                     _CCP1CON  equ     23
   188                           	global	_CCP2CON
   189  001D                     _CCP2CON  equ     29
   190                           	global	_CCPR1H
   191  0016                     _CCPR1H  equ     22
   192                           	global	_CCPR1L
   193  0015                     _CCPR1L  equ     21
   194                           	global	_CCPR2H
   195  001C                     _CCPR2H  equ     28
   196                           	global	_CCPR2L
   197  001B                     _CCPR2L  equ     27
   198                           	global	_FSR
   199  0004                     _FSR  equ     4
   200                           	global	_INDF
   201  0000                     _INDF  equ     0
   202                           	global	_INTCON
   203  000B                     _INTCON  equ     11
   204                           	global	_PCL
   205  0002                     _PCL  equ     2
   206                           	global	_PCLATH
   207  000A                     _PCLATH  equ     10
   208                           	global	_PIR1
   209  000C                     _PIR1  equ     12
   210+                          	global	_PIR2
   211+ 000D                     _PIR2  equ     13
   212                           	global	_PORTA
   213  0005                     _PORTA  equ     5
   214+                          	global	_PORTB
   215+ 0006                     _PORTB  equ     6
   216+                          	global	_PORTC
   217+ 0007                     _PORTC  equ     7
   218+                          	global	_RCREG
   219+ 001A                     _RCREG  equ     26
   220+                          	global	_RCSTA
   221+ 0018                     _RCSTA  equ     24
   222+                          	global	_SSPBUF
   223+ 0013                     _SSPBUF  equ     19
   224                           	global	_SSPCON
   225  0014                     _SSPCON  equ     20
   226+                          	global	_STATUS
   227+ 0003                     _STATUS  equ     3
   228+                          	global	_T1CON
   229+ 0010                     _T1CON  equ     16
   230+                          	global	_T2CON
   231+ 0012                     _T2CON  equ     18
   232+                          	global	_TMR0
   233+ 0001                     _TMR0  equ     1
   234+                          	global	_TMR1H
   235+ 000F                     _TMR1H  equ     15
   236                           	global	_TMR1L
   237  000E                     _TMR1L  equ     14
   238+                          	global	_TMR2
   239+ 0011                     _TMR2  equ     17
   240                           	global	_TXREG
   241  0019                     _TXREG  equ     25
   242+                          	global	_ADCS0
   243+ 00FE                     _ADCS0  equ     254
   244+                          	global	_ADCS1
   245+ 00FF                     _ADCS1  equ     255
   246+                          	global	_ADDEN
   247+ 00C3                     _ADDEN  equ     195
   248+                          	global	_ADGO
   249+ 00FA                     _ADGO  equ     250
   250+                          	global	_ADIF
   251+ 0066                     _ADIF  equ     102
   252                           	global	_ADON
   253  00F8                     _ADON  equ     248
   254                           	global	_BCLIF
   255  006B                     _BCLIF  equ     107
   256+                          	global	_CARRY
   257+ 0018                     _CARRY  equ     24
   258+                          	global	_CCP1IF
   259+ 0062                     _CCP1IF  equ     98
   260                           	global	_CCP1M0
   261  00B8                     _CCP1M0  equ     184
   262+                          	global	_CCP1M1
   263+ 00B9                     _CCP1M1  equ     185
   264                           	global	_CCP1M2
   265  00BA                     _CCP1M2  equ     186
   266+                          	global	_CCP1M3
   267+ 00BB                     _CCP1M3  equ     187
   268+                          	global	_CCP1X
   269+ 00BD                     _CCP1X  equ     189
   270+                          	global	_CCP1Y
   271+ 00BC                     _CCP1Y  equ     188
   272+                          	global	_CCP2IF
   273+ 0068                     _CCP2IF  equ     104
   274+                          	global	_CCP2M0
   275+ 00E8                     _CCP2M0  equ     232
   276+                          	global	_CCP2M1
   277+ 00E9                     _CCP2M1  equ     233
   278+                          	global	_CCP2M2
   279+ 00EA                     _CCP2M2  equ     234
   280                           	global	_CCP2M3
   281  00EB                     _CCP2M3  equ     235
   282                           	global	_CCP2X
   283  00ED                     _CCP2X  equ     237
   284+                          	global	_CCP2Y
   285+ 00EC                     _CCP2Y  equ     236
   286+                          	global	_CHS0
   287+ 00FB                     _CHS0  equ     251
   288                           	global	_CHS1
   289  00FC                     _CHS1  equ     252
   290+                          	global	_CHS2
   291+ 00FD                     _CHS2  equ     253
   292                           	global	_CKP
   293  00A4                     _CKP  equ     164
   294+                          	global	_CMIF
   295+ 006E                     _CMIF  equ     110
   296                           	global	_CREN
   297  00C4                     _CREN  equ     196
   298+                          	global	_DC
   299+ 0019                     _DC  equ     25
   300+                          	global	_EEIF
   301+ 006C                     _EEIF  equ     108
   302+                          	global	_FERR
   303+ 00C2                     _FERR  equ     194
   304+                          	global	_GIE
   305+ 005F                     _GIE  equ     95
   306+                          	global	_GODONE
   307+ 00FA                     _GODONE  equ     250
   308                           	global	_INTE
   309  005C                     _INTE  equ     92
   310+                          	global	_INTF
   311+ 0059                     _INTF  equ     89
   312+                          	global	_IRP
   313+ 001F                     _IRP  equ     31
   314+                          	global	_OERR
   315+ 00C1                     _OERR  equ     193
   316+                          	global	_PD
   317+ 001B                     _PD  equ     27
   318+                          	global	_PEIE
   319+ 005E                     _PEIE  equ     94
   320                           	global	_RA0
   321  0028                     _RA0  equ     40
   322+                          	global	_RA1
   323+ 0029                     _RA1  equ     41
   324                           	global	_RA2
   325  002A                     _RA2  equ     42
   326+                          	global	_RA3
   327+ 002B                     _RA3  equ     43
   328+                          	global	_RA4
   329+ 002C                     _RA4  equ     44
   330+                          	global	_RA5
   331+ 002D                     _RA5  equ     45
   332+                          	global	_RB0
   333+ 0030                     _RB0  equ     48
   334+                          	global	_RB1
   335+ 0031                     _RB1  equ     49
   336                           	global	_RB2
   337  0032                     _RB2  equ     50
   338+                          	global	_RB3
   339+ 0033                     _RB3  equ     51
   340+                          	global	_RB4
   341+ 0034                     _RB4  equ     52
   342+                          	global	_RB5
   343+ 0035                     _RB5  equ     53
   344+                          	global	_RB6
   345+ 0036                     _RB6  equ     54
   346+                          	global	_RB7
   347+ 0037                     _RB7  equ     55
   348                           	global	_RBIE
   349  005B                     _RBIE  equ     91
   350+                          	global	_RBIF
   351+ 0058                     _RBIF  equ     88
   352                           	global	_RC0
   353  0038                     _RC0  equ     56
   354+                          	global	_RC1
   355+ 0039                     _RC1  equ     57
   356+                          	global	_RC2
   357+ 003A                     _RC2  equ     58
   358+                          	global	_RC3
   359+ 003B                     _RC3  equ     59
   360+                          	global	_RC4
   361+ 003C                     _RC4  equ     60
   362+                          	global	_RC5
   363+ 003D                     _RC5  equ     61
   364                           	global	_RC6
   365  003E                     _RC6  equ     62
   366+                          	global	_RC7
   367+ 003F                     _RC7  equ     63
   368+                          	global	_RCIF
   369+ 0065                     _RCIF  equ     101
   370+                          	global	_RP0
   371+ 001D                     _RP0  equ     29
   372+                          	global	_RP1
   373+ 001E                     _RP1  equ     30
   374+                          	global	_RX9
   375+ 00C6                     _RX9  equ     198
   376                           	global	_RX9D
   377  00C0                     _RX9D  equ     192
   378+                          	global	_SPEN
   379+ 00C7                     _SPEN  equ     199
   380                           	global	_SREN
   381  00C5                     _SREN  equ     197
   382+                          	global	_SSPEN
   383+ 00A5                     _SSPEN  equ     165
   384+                          	global	_SSPIF
   385+ 0063                     _SSPIF  equ     99
   386+                          	global	_SSPM0
   387+ 00A0                     _SSPM0  equ     160
   388+                          	global	_SSPM1
   389+ 00A1                     _SSPM1  equ     161
   390+                          	global	_SSPM2
   391+ 00A2                     _SSPM2  equ     162
   392                           	global	_SSPM3
   393  00A3                     _SSPM3  equ     163
   394+                          	global	_SSPOV
   395+ 00A6                     _SSPOV  equ     166
   396+                          	global	_T0IE
   397+ 005D                     _T0IE  equ     93
   398+                          	global	_T0IF
   399+ 005A                     _T0IF  equ     90
   400+                          	global	_T1CKPS0
   401+ 0084                     _T1CKPS0  equ     132
   402+                          	global	_T1CKPS1
   403+ 0085                     _T1CKPS1  equ     133
   404                           	global	_T1OSCEN
   405  0083                     _T1OSCEN  equ     131
   406+                          	global	_T1SYNC
   407+ 0082                     _T1SYNC  equ     130
   408                           	global	_T2CKPS0
   409  0090                     _T2CKPS0  equ     144
   410+                          	global	_T2CKPS1
   411+ 0091                     _T2CKPS1  equ     145
   412+                          	global	_TMR0IE
   413+ 005D                     _TMR0IE  equ     93
   414+                          	global	_TMR0IF
   415+ 005A                     _TMR0IF  equ     90
   416                           	global	_TMR1CS
   417  0081                     _TMR1CS  equ     129
   418                           	global	_TMR1IF
   419  0060                     _TMR1IF  equ     96
   420+                          	global	_TMR1ON
   421+ 0080                     _TMR1ON  equ     128
   422+                          	global	_TMR2IF
   423+ 0061                     _TMR2IF  equ     97
   424                           	global	_TMR2ON
   425  0092                     _TMR2ON  equ     146
   426+                          	global	_TO
   427+ 001C                     _TO  equ     28
   428                           	global	_TOUTPS0
   429  0093                     _TOUTPS0  equ     147
   430+                          	global	_TOUTPS1
   431+ 0094                     _TOUTPS1  equ     148
   432                           	global	_TOUTPS2
   433  0095                     _TOUTPS2  equ     149
   434+                          	global	_TOUTPS3
   435+ 0096                     _TOUTPS3  equ     150
   436+                          	global	_TXIF
   437+ 0064                     _TXIF  equ     100
   438+                          	global	_WCOL
   439+ 00A7                     _WCOL  equ     167
   440+                          	global	_ZERO
   441+ 001A                     _ZERO  equ     26
   442+                          	global	_ADCON1
   443+ 009F                     _ADCON1  equ     159
   444                           	global	_ADRESL
   445  009E                     _ADRESL  equ     158
   446+                          	global	_CMCON
   447+ 009C                     _CMCON  equ     156
   448+                          	global	_CVRCON
   449+ 009D                     _CVRCON  equ     157
   450+                          	global	_OPTION
   451+ 0081                     _OPTION  equ     129
   452                           	global	_PCON
   453  008E                     _PCON  equ     142
   454+                          	global	_PIE1
   455+ 008C                     _PIE1  equ     140
   456                           	global	_PIE2
   457  008D                     _PIE2  equ     141
   458+                          	global	_PR2
   459+ 0092                     _PR2  equ     146
   460                           	global	_SPBRG
   461  0099                     _SPBRG  equ     153
   462+                          	global	_SSPADD
   463+ 0093                     _SSPADD  equ     147
   464+                          	global	_SSPCON2
   465+ 0091                     _SSPCON2  equ     145
   466+                          	global	_SSPSTAT
   467+ 0094                     _SSPSTAT  equ     148
   468+                          	global	_TRISA
   469+ 0085                     _TRISA  equ     133
   470+                          	global	_TRISB
   471+ 0086                     _TRISB  equ     134
   472                           	global	_TRISC
   473  0087                     _TRISC  equ     135
   474                           	global	_TXSTA
   475  0098                     _TXSTA  equ     152
   476+                          	global	_ACKDT
   477+ 048D                     _ACKDT  equ     1165
   478+                          	global	_ACKEN
   479+ 048C                     _ACKEN  equ     1164
   480                           	global	_ACKSTAT
   481  048E                     _ACKSTAT  equ     1166
   482+                          	global	_ADCS2
   483+ 04FE                     _ADCS2  equ     1278
   484                           	global	_ADFM
   485  04FF                     _ADFM  equ     1279
   486+                          	global	_ADIE
   487+ 0466                     _ADIE  equ     1126
   488                           	global	_BCLIE
   489  046B                     _BCLIE  equ     1131
   490+                          	global	_BF
   491+ 04A0                     _BF  equ     1184
   492+                          	global	_BOR
   493+ 0470                     _BOR  equ     1136
   494+                          	global	_BRGH
   495+ 04C2                     _BRGH  equ     1218
   496+                          	global	_C1INV
   497+ 04E4                     _C1INV  equ     1252
   498+                          	global	_C1OUT
   499+ 04E6                     _C1OUT  equ     1254
   500                           	global	_C2INV
   501  04E5                     _C2INV  equ     1253
   502+                          	global	_C2OUT
   503+ 04E7                     _C2OUT  equ     1255
   504+                          	global	_CCP1IE
   505+ 0462                     _CCP1IE  equ     1122
   506+                          	global	_CCP2IE
   507+ 0468                     _CCP2IE  equ     1128
   508+                          	global	_CIS
   509+ 04E3                     _CIS  equ     1251
   510+                          	global	_CKE
   511+ 04A6                     _CKE  equ     1190
   512                           	global	_CM0
   513  04E0                     _CM0  equ     1248
   514+                          	global	_CM1
   515+ 04E1                     _CM1  equ     1249
   516                           	global	_CM2
   517  04E2                     _CM2  equ     1250
   518+                          	global	_CMIE
   519+ 046E                     _CMIE  equ     1134
   520+                          	global	_CSRC
   521+ 04C7                     _CSRC  equ     1223
   522+                          	global	_CVR0
   523+ 04E8                     _CVR0  equ     1256
   524+                          	global	_CVR1
   525+ 04E9                     _CVR1  equ     1257
   526+                          	global	_CVR2
   527+ 04EA                     _CVR2  equ     1258
   528                           	global	_CVR3
   529  04EB                     _CVR3  equ     1259
   530+                          	global	_CVREN
   531+ 04EF                     _CVREN  equ     1263
   532+                          	global	_CVROE
   533+ 04EE                     _CVROE  equ     1262
   534+                          	global	_CVRR
   535+ 04ED                     _CVRR  equ     1261
   536+                          	global	_DA
   537+ 04A5                     _DA  equ     1189
   538+                          	global	_EEIE
   539+ 046C                     _EEIE  equ     1132
   540                           	global	_GCEN
   541  048F                     _GCEN  equ     1167
   542+                          	global	_INTEDG
   543+ 040E                     _INTEDG  equ     1038
   544                           	global	_PCFG0
   545  04F8                     _PCFG0  equ     1272
   546+                          	global	_PCFG1
   547+ 04F9                     _PCFG1  equ     1273
   548+                          	global	_PCFG2
   549+ 04FA                     _PCFG2  equ     1274
   550+                          	global	_PCFG3
   551+ 04FB                     _PCFG3  equ     1275
   552+                          	global	_PEN
   553+ 048A                     _PEN  equ     1162
   554+                          	global	_POR
   555+ 0471                     _POR  equ     1137
   556                           	global	_PS0
   557  0408                     _PS0  equ     1032
   558+                          	global	_PS1
   559+ 0409                     _PS1  equ     1033
   560+                          	global	_PS2
   561+ 040A                     _PS2  equ     1034
   562+                          	global	_PSA
   563+ 040B                     _PSA  equ     1035
   564                           	global	_RBPU
   565  040F                     _RBPU  equ     1039
   566+                          	global	_RCEN
   567+ 048B                     _RCEN  equ     1163
   568                           	global	_RCIE
   569  0465                     _RCIE  equ     1125
   570+                          	global	_RSEN
   571+ 0489                     _RSEN  equ     1161
   572                           	global	_RW
   573  04A2                     _RW  equ     1186
   574+                          	global	_SEN
   575+ 0488                     _SEN  equ     1160
   576+                          	global	_SMP
   577+ 04A7                     _SMP  equ     1191
   578+                          	global	_SSPIE
   579+ 0463                     _SSPIE  equ     1123
   580+                          	global	_START
   581+ 04A3                     _START  equ     1187
   582+                          	global	_STOP
   583+ 04A4                     _STOP  equ     1188
   584                           	global	_SYNC
   585  04C4                     _SYNC  equ     1220
   586                           	global	_T0CS
   587  040D                     _T0CS  equ     1037
   588+                          	global	_T0SE
   589+ 040C                     _T0SE  equ     1036
   590+                          	global	_TMR1IE
   591+ 0460                     _TMR1IE  equ     1120
   592+                          	global	_TMR2IE
   593+ 0461                     _TMR2IE  equ     1121
   594+                          	global	_TRISA0
   595+ 0428                     _TRISA0  equ     1064
   596                           	global	_TRISA1
   597  0429                     _TRISA1  equ     1065
   598+                          	global	_TRISA2
   599+ 042A                     _TRISA2  equ     1066
   600                           	global	_TRISA3
   601  042B                     _TRISA3  equ     1067
   602+                          	global	_TRISA4
   603+ 042C                     _TRISA4  equ     1068
   604+                          	global	_TRISA5
   605+ 042D                     _TRISA5  equ     1069
   606+                          	global	_TRISB0
   607+ 0430                     _TRISB0  equ     1072
   608+                          	global	_TRISB1
   609+ 0431                     _TRISB1  equ     1073
   610                           	global	_TRISB2
   611  0432                     _TRISB2  equ     1074
   612                           	global	_TRISB3
   613  0433                     _TRISB3  equ     1075
   614                           	global	_TRISB4
   615  0434                     _TRISB4  equ     1076
   616                           	global	_TRISB5
   617  0435                     _TRISB5  equ     1077
   618                           	global	_TRISB6
   619  0436                     _TRISB6  equ     1078
   620                           	global	_TRISB7
   621  0437                     _TRISB7  equ     1079
   622                           	global	_TRISC0
   623  0438                     _TRISC0  equ     1080
   624                           	global	_TRISC1
   625  0439                     _TRISC1  equ     1081
   626                           	global	_TRISC2
   627  043A                     _TRISC2  equ     1082
   628                           	global	_TRISC3
   629  043B                     _TRISC3  equ     1083
   630                           	global	_TRISC4
   631  043C                     _TRISC4  equ     1084
   632                           	global	_TRISC5
   633  043D                     _TRISC5  equ     1085
   634                           	global	_TRISC6
   635  043E                     _TRISC6  equ     1086
   636                           	global	_TRISC7
   637  043F                     _TRISC7  equ     1087
   638                           	global	_TRMT
   639  04C1                     _TRMT  equ     1217
   640                           	global	_TX9
   641  04C6                     _TX9  equ     1222
   642                           	global	_TX9D
   643  04C0                     _TX9D  equ     1216
   644                           	global	_TXEN
   645  04C5                     _TXEN  equ     1221
   646                           	global	_TXIE
   647  0464                     _TXIE  equ     1124
   648                           	global	_UA
   649  04A1                     _UA  equ     1185
   650                           	global	_EEADR
   651  010D                     _EEADR  equ     269
   652                           	global	_EEADRH
   653  010F                     _EEADRH  equ     271
   654                           	global	_EEADRL
   655  010D                     _EEADRL  equ     269
   656                           	global	_EEDATA
   657  010C                     _EEDATA  equ     268
   658                           	global	_EEDATH
   659  010E                     _EEDATH  equ     270
   660                           	global	_EECON1
   661  018C                     _EECON1  equ     396
   662                           	global	_EECON2
   663  018D                     _EECON2  equ     397
   664                           	global	_EEPGD
   665  0C67                     _EEPGD  equ     3175
   666                           	global	_RD
   667  0C60                     _RD  equ     3168
   668                           	global	_WR
   669  0C61                     _WR  equ     3169
   670                           	global	_WREN
   671  0C62                     _WREN  equ     3170
   672                           	global	_WRERR
   673  0C63                     _WRERR  equ     3171
   674                           	file	"T10.as"
   675                           	line	#
   676                           psect cinit,class=CODE,delta=2
   677                           global start_initialization
   678  03B3                     start_initialization:
   679                           
   680                           psect	bssCOMMON,class=COMMON,space=1
   681                           global __pbssCOMMON
   682  0078                     __pbssCOMMON:
   683  0078                     _k:
   684  0078                            ds      2
   685                           
   686                           psect	dataCOMMON,class=COMMON,space=1
   687                           global __pdataCOMMON
   688  0070                     __pdataCOMMON:
   689                           	file	"D:\ABHISHEK JOSHI\PIC\T10\T10.C"
   690                           	line	16
   691  0070                     _ds1:
   692  0070                            ds      1
   693                           
   694                           psect	dataCOMMON
   695                           	file	"D:\ABHISHEK JOSHI\PIC\T10\T10.C"
   696                           	line	16
   697  0071                     _ds2:
   698  0071                            ds      1
   699                           
   700                           psect	dataCOMMON
   701                           	file	"D:\ABHISHEK JOSHI\PIC\T10\T10.C"
   702                           	line	16
   703  0072                     _ds3:
   704  0072                            ds      1
   705                           
   706                           psect	dataCOMMON
   707                           	file	"D:\ABHISHEK JOSHI\PIC\T10\T10.C"
   708                           	line	16
   709  0073                     _ds4:
   710  0073                            ds      1
   711                           
   712                           psect	bssBANK0,class=BANK0,space=1
   713                           global __pbssBANK0
   714  0052                     __pbssBANK0:
   715  0052                     _a:
   716  0052                            ds      2
   717                           
   718  0054                     _c:
   719  0054                            ds      2
   720                           
   721  0056                     _key_code:
   722  0056                            ds      2
   723                           
   724  0058                     _key_ready:
   725  0058                            ds      2
   726                           
   727  005A                     _nkp:
   728  005A                            ds      2
   729                           
   730  005C                     _scan_no:
   731  005C                            ds      2
   732                           
   733  005E                     _start_buzzer:
   734  005E                            ds      2
   735                           
   736  0060                     _start_sw:
   737  0060                            ds      2
   738                           
   739  0062                     _tb:
   740  0062                            ds      2
   741                           
   742                           psect	dataBANK0,class=BANK0,space=1
   743                           global __pdataBANK0
   744  0020                     __pdataBANK0:
   745                           	file	"D:\ABHISHEK JOSHI\PIC\T10\T10.C"
   746                           	line	15
   747  0020                     _ascii_tab:
   748  0020                            ds      25
   749                           
   750                           psect	dataBANK0
   751                           	file	"D:\ABHISHEK JOSHI\PIC\T10\T10.C"
   752                           	line	14
   753  0039                     _disp:
   754  0039                            ds      25
   755                           
   756                           psect clrtext,class=CODE,delta=2
   757                           global clear_ram
   758                           ;	Called with FSR containing the base address, and
   759                           ;	W with the last address+1
   760  04C9                     clear_ram:
   761  04C9  0064               	clrwdt			;clear the watchdog before getting into this loop
   762  04CA                     clrloop:
   763  04CA  0180               	clrf	indf		;clear RAM location pointed to by FSR
   764  04CB  0A84               	incf	fsr,f		;increment pointer
   765  04CC  0604               	xorwf	fsr,w		;XOR with final address
   766  04CD  1903               	btfsc	status,2	;have we reached the end yet?
   767  04CE  3400               	retlw	0		;all done for this memory range, return
   768  04CF  0604               	xorwf	fsr,w		;XOR again to restore value
   769  04D0  2CCA               	goto	clrloop		;do the next byte
   770                           
   771                           ; Clear objects allocated to COMMON
   772                           psect cinit,class=CODE,delta=2
   773  03B3  01F8               	clrf	((__pbssCOMMON)+0)&07Fh
   774  03B4  01F9               	clrf	((__pbssCOMMON)+1)&07Fh
   775                           ; Clear objects allocated to BANK0
   776                           psect cinit,class=CODE,delta=2
   777  03B5  1383               	bcf	status, 7	;select IRP bank0
   778  03B6  3052               	movlw	low(__pbssBANK0)
   779  03B7  0084               	movwf	fsr
   780  03B8  3064               	movlw	low((__pbssBANK0)+012h)
   781  03B9  120A  118A  24C9   	fcall	clear_ram
              120A  118A         
   782                           global btemp
   783                           psect inittext,class=CODE,delta=2
   784                           global init_fetch,btemp
   785                           ;	Called with low address in FSR and high address in W
   786  042C                     init_fetch:
   787  042C  087E               	movf btemp,w
   788  042D  008A               	movwf pclath
   789  042E  087F               	movf btemp+1,w
   790  042F  0082               	movwf pc
   791                           global init_ram
   792                           ;Called with:
   793                           ;	high address of idata address in btemp 
   794                           ;	low address of idata address in btemp+1 
   795                           ;	low address of data in FSR
   796                           ;	high address + 1 of data in btemp-1
   797  0430                     init_ram:
   798  0430  242C  120A  118A   	fcall init_fetch
   799  0433  0080               	movwf indf,f
   800  0434  0A84               	incf fsr,f
   801  0435  0804               	movf fsr,w
   802  0436  067D               	xorwf btemp-1,w
   803  0437  1903               	btfsc status,2
   804  0438  3400               	retlw 0
   805  0439  0AFF               	incf btemp+1,f
   806  043A  1903               	btfsc status,2
   807  043B  0AFE               	incf btemp,f
   808  043C  2C30               	goto init_ram
   809                           ; Initialize objects allocated to COMMON
   810                           psect cinit,class=CODE,delta=2
   811                           global init_ram, __pidataCOMMON
   812  03BE  3074               	movlw low(__pdataCOMMON+4)
   813  03BF  00FD               	movwf btemp-1,f
   814  03C0  3004               	movlw high(__pidataCOMMON)
   815  03C1  00FE               	movwf btemp,f
   816  03C2  30E7               	movlw low(__pidataCOMMON)
   817  03C3  00FF               	movwf btemp+1,f
   818  03C4  3070               	movlw low(__pdataCOMMON)
   819  03C5  0084               	movwf fsr,f
   820  03C6  120A  118A  2430   	fcall init_ram
              120A  118A         
   821                           ; Initialize objects allocated to BANK0
   822                           psect cinit,class=CODE,delta=2
   823                           global init_ram, __pidataBANK0
   824  03CB  3052               	movlw low(__pdataBANK0+50)
   825  03CC  00FD               	movwf btemp-1,f
   826  03CD  3002               	movlw high(__pidataBANK0)
   827  03CE  00FE               	movwf btemp,f
   828  03CF  30F8               	movlw low(__pidataBANK0)
   829  03D0  00FF               	movwf btemp+1,f
   830  03D1  3020               	movlw low(__pdataBANK0)
   831  03D2  0084               	movwf fsr,f
   832  03D3  120A  118A  2430   	fcall init_ram
              120A  118A         
   833                           psect cinit,class=CODE,delta=2
   834                           global end_of_initialization
   835                           
   836                           ;End of C runtime variable initationation code
   837                           
   838  03D8                     end_of_initialization:
   839  03D8  0183               clrf status
   840  03D9  120A  118A  2B5A   ljmp _main	;jump to C main() function
   841                           psect	cstackBANK1,class=BANK1,space=1
   842                           global __pcstackBANK1
   843  00A0                     __pcstackBANK1:
   844                           	global	??_isr_t0
   845  00A0                     ??_isr_t0: ;@ 0x0
   846  00A0                     	ds	4
   847                           psect	cstackCOMMON,class=COMMON,space=1
   848                           global __pcstackCOMMON
   849  0074                     __pcstackCOMMON:
   850                           	global	??_process_a
   851  0074                     ??_process_a: ;@ 0x0
   852                           	global	?_init_delay_1sec
   853  0074                     ?_init_delay_1sec: ;@ 0x0
   854                           	global	?_process_a
   855  0074                     ?_process_a: ;@ 0x0
   856                           	global	?_key_release
   857  0074                     ?_key_release: ;@ 0x0
   858                           	global	??_key_release
   859  0074                     ??_key_release: ;@ 0x0
   860                           	global	?_init_timer
   861  0074                     ?_init_timer: ;@ 0x0
   862                           	global	??_init_timer
   863  0074                     ??_init_timer: ;@ 0x0
   864                           	global	??_init_keypad
   865  0074                     ??_init_keypad: ;@ 0x0
   866                           	global	??_init_delay_1sec
   867  0074                     ??_init_delay_1sec: ;@ 0x0
   868                           	global	?_init_keypad
   869  0074                     ?_init_keypad: ;@ 0x0
   870                           	global	??_process_c
   871  0074                     ??_process_c: ;@ 0x0
   872                           	global	??_keyprocess
   873  0074                     ??_keyprocess: ;@ 0x0
   874                           	global	?_init
   875  0074                     ?_init: ;@ 0x0
   876                           	global	??_get_key
   877  0074                     ??_get_key: ;@ 0x0
   878                           	global	?_keyprocess
   879  0074                     ?_keyprocess: ;@ 0x0
   880                           	global	??_process_b
   881  0074                     ??_process_b: ;@ 0x0
   882                           	global	?_process_c
   883  0074                     ?_process_c: ;@ 0x0
   884                           	global	??_init
   885  0074                     ??_init: ;@ 0x0
   886                           	global	?_process_b
   887  0074                     ?_process_b: ;@ 0x0
   888  0074                     	ds	2
   889                           	global	??_delay_1sec
   890  0076                     ??_delay_1sec: ;@ 0x2
   891                           	global	??_adisp3
   892  0076                     ??_adisp3: ;@ 0x2
   893                           	global	??i1_init_timer
   894  0076                     ??i1_init_timer: ;@ 0x2
   895                           	global	?_delay_1sec
   896  0076                     ?_delay_1sec: ;@ 0x2
   897                           	global	??_adisp4
   898  0076                     ??_adisp4: ;@ 0x2
   899                           	global	??_k1
   900  0076                     ??_k1: ;@ 0x2
   901                           	global	??_disp_blank
   902  0076                     ??_disp_blank: ;@ 0x2
   903                           	global	??_adisp2
   904  0076                     ??_adisp2: ;@ 0x2
   905                           	global	??_adisp1
   906  0076                     ??_adisp1: ;@ 0x2
   907                           	global	??_scanner
   908  0076                     ??_scanner: ;@ 0x2
   909                           	global	??_main
   910  0076                     ??_main: ;@ 0x2
   911                           	global	?_main
   912  0076                     ?_main: ;@ 0x2
   913                           	global	?_get_key
   914  0076                     ?_get_key: ;@ 0x2
   915                           	global	??_incrementd
   916  0076                     ??_incrementd: ;@ 0x2
   917                           	global	?i1_init_timer
   918  0076                     ?i1_init_timer: ;@ 0x2
   919                           	global	?_incrementd
   920  0076                     ?_incrementd: ;@ 0x2
   921  0076                     	ds	2
   922                           psect	cstackBANK0,class=BANK0,space=1
   923                           global __pcstackBANK0
   924  006E                     __pcstackBANK0:
   925                           	global	?_isr_t0
   926  006E                     ?_isr_t0: ;@ 0x0
   927                           	global	?_disp_blank
   928  006E                     ?_disp_blank: ;@ 0x0
   929                           	global	?_k1
   930  006E                     ?_k1: ;@ 0x0
   931                           	global	?_adisp4
   932  006E                     ?_adisp4: ;@ 0x0
   933                           	global	?_adisp3
   934  006E                     ?_adisp3: ;@ 0x0
   935                           	global	?_scanner
   936  006E                     ?_scanner: ;@ 0x0
   937                           	global	?_adisp1
   938  006E                     ?_adisp1: ;@ 0x0
   939                           	global	?_adisp2
   940  006E                     ?_adisp2: ;@ 0x0
   941                           ;Data sizes: Strings 0, constant 0, data 54, bss 20, persistent 10 stack 0
   942                           ;Auto spaces:   Size  Autos    Used
   943                           ; COMMON          14      4      10
   944                           ; BANK0           80      0      78
   945                           ; BANK1           80      4       4
   946                           ; BANK3           96      0       0
   947                           ; BANK2           96      0       0
   948                           
   949                           
   950                           ;Pointer list with targets:
   951                           
   952                           
   953                           
   954                           ;Main: autosize = 0, tempsize = 0, incstack = 0, save=0
   955                           
   956                           
   957                           ;Call graph:                      Base Space Used Autos Args Refs Density
   958                           ;_main                                                0    0    0   0.00
   959                           ;               _init
   960                           ;            _get_key
   961                           ;         _keyprocess
   962                           ;  _get_key                                           2    0    0   0.00
   963                           ;                                    0 COMMO    2
   964                           ;  _keyprocess                                        0    0    0   0.00
   965                           ;          _process_a
   966                           ;          _process_b
   967                           ;          _process_c
   968                           ;        _key_release
   969                           ;  _init                                              0    0    0   0.00
   970                           ;        _init_keypad
   971                           ;         _init_timer
   972                           ;    _init_delay_1sec
   973                           ;    _process_b                                       0    0    0   0.00
   974                           ;    _process_c                                       0    0    0   0.00
   975                           ;    _key_release                                     0    0    0   0.00
   976                           ;    _process_a                                       0    0    0   0.00
   977                           ;    _init_delay_1sec                                 0    0    0   0.00
   978                           ;    _init_keypad                                     0    0    0   0.00
   979                           ;    _init_timer                                      0    0    0   0.00
   980                           ; Estimated maximum call depth 2
   981                           ;_isr_t0                                              4    0    0   0.00
   982                           ;                                    0 BANK1    4
   983                           ;       i1_init_timer
   984                           ;         _delay_1sec
   985                           ;            _scanner
   986                           ;         _incrementd
   987                           ;  _scanner                                           2    0    0   0.00
   988                           ;                                    2 COMMO    2
   989                           ;             _adisp1
   990                           ;                 _k1
   991                           ;         _disp_blank
   992                           ;             _adisp2
   993                           ;             _adisp3
   994                           ;             _adisp4
   995                           ;  _incrementd                                        0    0    0   0.00
   996                           ;  i1_init_timer                                      0    0    0   0.00
   997                           ;  _delay_1sec                                        0    0    0   0.00
   998                           ;    _adisp3                                          0    0    0   0.00
   999                           ;    _adisp4                                          0    0    0   0.00
  1000                           ;    _adisp2                                          0    0    0   0.00
  1001                           ;    _adisp1                                          0    0    0   0.00
  1002                           ;    _k1                                              0    0    0   0.00
  1003                           ;    _disp_blank                                      0    0    0   0.00
  1004                           ; Estimated maximum call depth 2
  1005                           ; Address spaces:
  1006                           
  1007                           ;Name               Size   Autos  Total    Cost      Usage
  1008                           ;BITCOMMON            E      0       0       0        0.0%
  1009                           ;CODE                 0      0       0       0        0.0%
  1010                           ;NULL                 0      0       0       0        0.0%
  1011                           ;COMMON               E      4       A       1       71.4%
  1012                           ;SFR0                 0      0       0       1        0.0%
  1013                           ;BITSFR0              0      0       0       1        0.0%
  1014                           ;BITSFR1              0      0       0       2        0.0%
  1015                           ;SFR1                 0      0       0       2        0.0%
  1016                           ;ABS                  0      0      5C       2        0.0%
  1017                           ;STACK                0      0       0       3        0.0%
  1018                           ;BITBANK0            50      0       0       4        0.0%
  1019                           ;SFR3                 0      0       0       4        0.0%
  1020                           ;BITSFR3              0      0       0       4        0.0%
  1021                           ;BANK0               50      0      4E       5       97.5%
  1022                           ;BITSFR2              0      0       0       5        0.0%
  1023                           ;SFR2                 0      0       0       5        0.0%
  1024                           ;BITBANK1            50      0       0       6        0.0%
  1025                           ;BANK1               50      4       4       7        5.0%
  1026                           ;BITBANK3            60      0       0       8        0.0%
  1027                           ;BANK3               60      0       0       9        0.0%
  1028                           ;BITBANK2            60      0       0      10        0.0%
  1029                           ;BANK2               60      0       0      11        0.0%
  1030                           ;DATA                 0      0      5C      12        0.0%
  1031                           ;EEDATA             100      0       0    1000        0.0%
  1032                           
  1033                           	global	_main
  1034                           psect	maintext,local,class=CODE,delta=2
  1035                           global __pmaintext
  1036  035A                     __pmaintext:
  1037                           
  1038                           ; *************** function _main *****************
  1039                           ; Defined at:
  1040                           ;		line 61 in file "D:\ABHISHEK JOSHI\PIC\T10\T10.C"
  1041                           ; Parameters:    Size  Location     Type
  1042                           ;		None
  1043                           ; Auto vars:     Size  Location     Type
  1044                           ;		None
  1045                           ; Return value:  Size  Location     Type
  1046                           ;		None               void
  1047                           ; Registers used:
  1048                           ;		wreg, fsr0l, fsr0h, fsr1l, fsr1h, status,2, status,0, btemp+0, btemp+1, btemp+2, btem
                                 p+3, pclath, cstack
  1049                           ; Tracked objects:
  1050                           ;		On entry : 17F/0
  1051                           ;		On exit  : 0/0
  1052                           ;		Unchanged: 0/0
  1053                           ; Data sizes:     COMMON   BANK0   BANK1   BANK3   BANK2
  1054                           ;      Locals:         0       0       0       0       0
  1055                           ;      Temp:     0
  1056                           ;      Total:    0
  1057                           ; This function calls:
  1058                           ;		_init
  1059                           ;		_get_key
  1060                           ;		_keyprocess
  1061                           ; This function is called by:
  1062                           ;		Startup code after reset
  1063                           ; This function uses a non-reentrant model
  1064                           ; 
  1065                           psect	maintext
  1066                           	file	"D:\ABHISHEK JOSHI\PIC\T10\T10.C"
  1067                           	line	61
  1068                           	global	__size_of_main
  1069  002D                     	__size_of_main	equ	__end_of_main-_main
  1070                           ;T10.C: 60: void main()
  1071                           ;T10.C: 61: {
  1072                           	
  1073  035A                     _main:	
  1074                           	opt stack 5
  1075                           ; Regs used in _main: [allreg]
  1076                           	line	62
  1077                           	
  1078  035A                     l30000632:	
  1079                           ;T10.C: 62: TRISB=0x00;
  1080  035A  1003               	clrc
  1081  035B  3000               	movlw	0
  1082  035C  1803               	btfsc	status,0
  1083  035D  3001               	movlw	1
  1084  035E  1683               	bsf	status, 5	;RP0=1, select bank1
  1085  035F  1303               	bcf	status, 6	;RP1=0, select bank1
  1086  0360  0086               	movwf	(134)^080h	;volatile
  1087                           	
  1088  0361                     l30000633:	
  1089                           	line	63
  1090                           ;T10.C: 63: TRISA=0x3C;
  1091  0361  303C               	movlw	(03Ch)
  1092  0362  0085               	movwf	(133)^080h	;volatile
  1093                           	
  1094  0363                     l30000634:	
  1095                           	line	64
  1096                           ;T10.C: 64: TRISC=0x00;
  1097  0363  1003               	clrc
  1098  0364  3000               	movlw	0
  1099  0365  1803               	btfsc	status,0
  1100  0366  3001               	movlw	1
  1101  0367  0087               	movwf	(135)^080h	;volatile
  1102                           	line	65
  1103                           ;T10.C: 65: ADCON1=0x06;
  1104  0368  3006               	movlw	(06h)
  1105  0369  009F               	movwf	(159)^080h	;volatile
  1106                           	line	66
  1107                           ;T10.C: 66: start_sw=0;
  1108  036A  3000               	movlw	low(0)
  1109  036B  1283               	bcf	status, 5	;RP0=0, select bank0
  1110  036C  1303               	bcf	status, 6	;RP1=0, select bank0
  1111  036D  00E0               	movwf	(_start_sw)
  1112  036E  3000               	movlw	high(0)
  1113  036F  00E1               	movwf	((_start_sw))+1
  1114                           	
  1115  0370                     l30000635:	
  1116                           	line	67
  1117                           ;T10.C: 67: init();
  1118  0370  120A  118A  244D   	fcall	_init
              120A  118A         
  1119                           	
  1120  0375                     l30000636:	
  1121                           	line	68
  1122                           ;T10.C: 68: GIE=1;
  1123  0375  1283               	bcf	status, 5	;RP0=0, select bank0
  1124  0376  1303               	bcf	status, 6	;RP1=0, select bank0
  1125  0377  178B               	bsf	(95/8),(95)&7
  1126                           	
  1127  0378                     l30000637:	
  1128                           	line	69
  1129                           ;T10.C: 69: PEIE=1;
  1130  0378  170B               	bsf	(94/8),(94)&7
  1131                           	
  1132  0379                     l30000638:	
  1133                           	line	74
  1134                           ;T10.C: 73: {
  1135                           ;T10.C: 74: get_key();
  1136  0379  120A  118A  23FF   	fcall	_get_key
              120A  118A         
  1137                           	
  1138  037E                     l30000639:	
  1139                           	line	75
  1140                           ;T10.C: 75: keyprocess();
  1141  037E  120A  118A  2387   	fcall	_keyprocess
              120A  118A         
  1142  0383  2B79               	goto	l30000638
  1143                           	global	start
  1144  0384  120A  118A  2812   	ljmp	start
  1145                           	opt stack 0
  1146                           GLOBAL	__end_of_main
  1147  0387                     	__end_of_main:
  1148                           ; =============== function _main ends ============
  1149                           
  1150                           psect	maintext
  1151                           	line	77
  1152                           	signat	_main,88
  1153                           	global	_get_key
  1154                           psect	text144,local,class=CODE,delta=2
  1155                           global __ptext144
  1156  03FF                     __ptext144:
  1157                           
  1158                           ; *************** function _get_key *****************
  1159                           ; Defined at:
  1160                           ;		line 411 in file "D:\ABHISHEK JOSHI\PIC\T10\T10.C"
  1161                           ; Parameters:    Size  Location     Type
  1162                           ;		None
  1163                           ; Auto vars:     Size  Location     Type
  1164                           ;		None
  1165                           ; Return value:  Size  Location     Type
  1166                           ;		None               void
  1167                           ; Registers used:
  1168                           ;		wreg, fsr0l, fsr0h, status,2, status,0
  1169                           ; Tracked objects:
  1170                           ;		On entry : 0/0
  1171                           ;		On exit  : 0/0
  1172                           ;		Unchanged: 0/0
  1173                           ; Data sizes:     COMMON   BANK0   BANK1   BANK3   BANK2
  1174                           ;      Locals:         2       0       0       0       0
  1175                           ;      Temp:     2
  1176                           ;      Total:    2
  1177                           ; This function calls:
  1178                           ;		Nothing
  1179                           ; This function is called by:
  1180                           ;		_main
  1181                           ; This function uses a non-reentrant model
  1182                           ; 
  1183                           psect	text144
  1184                           	file	"D:\ABHISHEK JOSHI\PIC\T10\T10.C"
  1185                           	line	411
  1186                           	global	__size_of_get_key
  1187  001B                     	__size_of_get_key	equ	__end_of_get_key-_get_key
  1188                           ;T10.C: 410: void get_key()
  1189                           ;T10.C: 411: {
  1190                           	
  1191  03FF                     _get_key:	
  1192                           	opt stack 4
  1193                           ; Regs used in _get_key: [wreg-fsr0h+status,2+status,0]
  1194                           	
  1195  03FF                     l30000640:	
  1196                           	
  1197  03FF                     l30000641:	
  1198                           	line	412
  1199  03FF  3001               	movlw	01h
  1200  0400  1283               	bcf	status, 5	;RP0=0, select bank0
  1201  0401  1303               	bcf	status, 6	;RP1=0, select bank0
  1202  0402  0658               	xorwf	(_key_ready),w
  1203  0403  0459               	iorwf	(_key_ready+1),w
  1204  0404  1D03               	skipz
  1205  0405  2C07               	goto	u271
  1206  0406  2C08               	goto	u270
  1207  0407                     u271:
  1208  0407  2BFF               	goto	l30000641
  1209  0408                     u270:
  1210                           	
  1211  0408                     l30000642:	
  1212                           	line	413
  1213                           ;T10.C: 413: a=key_code;
  1214  0408  0857               	movf	(_key_code+1),w
  1215  0409  01D3               	clrf	(_a+1)
  1216  040A  07D3               	addwf	(_a+1)
  1217  040B  0856               	movf	(_key_code),w
  1218  040C  01D2               	clrf	(_a)
  1219  040D  07D2               	addwf	(_a)
  1220                           
  1221                           	
  1222  040E                     l30000643:	
  1223                           	line	414
  1224                           ;T10.C: 414: key_code=ascii_tab[a];
  1225  040E  0852               	movf	(_a),w
  1226  040F  3E20               	addlw	(_ascii_tab)&0ffh
  1227  0410  0084               	movwf	fsr0
  1228  0411  1383               	bcf	status, 7	;select IRP bank0
  1229  0412  0800               	movf	indf,w
  1230  0413  00F4               	movwf	(??_get_key+0+0)
  1231  0414  01F5               	clrf	(??_get_key+0+0+1)
  1232  0415  0874               	movf	0+(??_get_key+0+0),w
  1233  0416  00D6               	movwf	(_key_code)
  1234  0417  0875               	movf	1+(??_get_key+0+0),w
  1235  0418  00D7               	movwf	(_key_code+1)
  1236                           	
  1237  0419                     l74:	
  1238  0419  0008               	return
  1239                           	opt stack 0
  1240                           GLOBAL	__end_of_get_key
  1241  041A                     	__end_of_get_key:
  1242                           ; =============== function _get_key ends ============
  1243                           
  1244                           psect	text145,local,class=CODE,delta=2
  1245                           global __ptext145
  1246  0387                     __ptext145:
  1247                           	line	415
  1248                           	signat	_get_key,88
  1249                           	global	_keyprocess
  1250                           
  1251                           ; *************** function _keyprocess *****************
  1252                           ; Defined at:
  1253                           ;		line 418 in file "D:\ABHISHEK JOSHI\PIC\T10\T10.C"
  1254                           ; Parameters:    Size  Location     Type
  1255                           ;		None
  1256                           ; Auto vars:     Size  Location     Type
  1257                           ;		None
  1258                           ; Return value:  Size  Location     Type
  1259                           ;		None               void
  1260                           ; Registers used:
  1261                           ;		wreg, fsr0l, fsr0h, status,2, status,0, pclath, cstack
  1262                           ; Tracked objects:
  1263                           ;		On entry : 0/0
  1264                           ;		On exit  : 0/0
  1265                           ;		Unchanged: 0/0
  1266                           ; Data sizes:     COMMON   BANK0   BANK1   BANK3   BANK2
  1267                           ;      Locals:         0       0       0       0       0
  1268                           ;      Temp:     0
  1269                           ;      Total:    0
  1270                           ; This function calls:
  1271                           ;		_process_a
  1272                           ;		_process_b
  1273                           ;		_process_c
  1274                           ;		_key_release
  1275                           ; This function is called by:
  1276                           ;		_main
  1277                           ; This function uses a non-reentrant model
  1278                           ; 
  1279                           psect	text145
  1280                           	file	"D:\ABHISHEK JOSHI\PIC\T10\T10.C"
  1281                           	line	418
  1282                           	global	__size_of_keyprocess
  1283  002C                     	__size_of_keyprocess	equ	__end_of_keyprocess-_keyprocess
  1284                           ;T10.C: 417: void keyprocess()
  1285                           ;T10.C: 418: {
  1286                           	
  1287  0387                     _keyprocess:	
  1288                           	opt stack 4
  1289                           ; Regs used in _keyprocess: [wreg-fsr0h+status,2+status,0+pclath+cstack]
  1290                           	
  1291  0387                     l30000647:	
  1292  0387  2B9A               	goto	l30000652
  1293                           	
  1294  0388                     l30000648:	
  1295                           	line	422
  1296                           ;T10.C: 422: process_a();
  1297  0388  120A  118A  24E0   	fcall	_process_a
              120A  118A         
  1298  038D  2BAD               	goto	l30000653
  1299                           	
  1300  038E                     l30000649:	
  1301                           	line	426
  1302                           ;T10.C: 426: process_b();
  1303  038E  120A  118A  24D9   	fcall	_process_b
              120A  118A         
  1304  0393  2BAD               	goto	l30000653
  1305                           	
  1306  0394                     l30000650:	
  1307                           	line	429
  1308                           ;T10.C: 429: process_c();
  1309  0394  120A  118A  248D   	fcall	_process_c
              120A  118A         
  1310  0399  2BAD               	goto	l30000653
  1311                           	
  1312  039A                     l30000652:	
  1313                           	line	419
  1314  039A  2BA8               		goto	l30023
  1315  039B                     l30024:
  1316  039B  1283               	bcf	status, 5	;RP0=0, select bank0
  1317  039C  1303               	bcf	status, 6	;RP1=0, select bank0
  1318  039D  0856               	movf (_key_code),w
  1319  039E  3A41               	xorlw	65^0
  1320  039F  1903               	skipnz
  1321  03A0  2B88               	goto	l30000648
  1322  03A1  3A03               	xorlw	66^65
  1323  03A2  1903               	skipnz
  1324  03A3  2B8E               	goto	l30000649
  1325  03A4  3A01               	xorlw	67^66
  1326  03A5  1903               	skipnz
  1327  03A6  2B94               	goto	l30000650
  1328  03A7  2BAD               	goto	l30000653
  1329                           
  1330  03A8                     l30023:
  1331  03A8  0857               	movf (_key_code+1),w
  1332  03A9  3A00               	xorlw	0^0
  1333  03AA  1903               	skipnz
  1334  03AB  2B9B               	goto	l30024
  1335  03AC  2BAD               	goto	l30000653
  1336                           
  1337                           	
  1338  03AD                     l30000653:	
  1339                           	line	432
  1340                           ;T10.C: 432: key_release();
  1341  03AD  120A  118A  241A   	fcall	_key_release
              120A  118A         
  1342                           	
  1343  03B2                     l78:	
  1344  03B2  0008               	return
  1345                           	opt stack 0
  1346                           GLOBAL	__end_of_keyprocess
  1347  03B3                     	__end_of_keyprocess:
  1348                           ; =============== function _keyprocess ends ============
  1349                           
  1350                           psect	text146,local,class=CODE,delta=2
  1351                           global __ptext146
  1352  044D                     __ptext146:
  1353                           	line	433
  1354                           	signat	_keyprocess,88
  1355                           	global	_init
  1356                           
  1357                           ; *************** function _init *****************
  1358                           ; Defined at:
  1359                           ;		line 80 in file "D:\ABHISHEK JOSHI\PIC\T10\T10.C"
  1360                           ; Parameters:    Size  Location     Type
  1361                           ;		None
  1362                           ; Auto vars:     Size  Location     Type
  1363                           ;		None
  1364                           ; Return value:  Size  Location     Type
  1365                           ;		None               void
  1366                           ; Registers used:
  1367                           ;		wreg, status,2, status,0, pclath, cstack
  1368                           ; Tracked objects:
  1369                           ;		On entry : 0/0
  1370                           ;		On exit  : 0/0
  1371                           ;		Unchanged: 0/0
  1372                           ; Data sizes:     COMMON   BANK0   BANK1   BANK3   BANK2
  1373                           ;      Locals:         0       0       0       0       0
  1374                           ;      Temp:     0
  1375                           ;      Total:    0
  1376                           ; This function calls:
  1377                           ;		_init_keypad
  1378                           ;		_init_timer
  1379                           ;		_init_delay_1sec
  1380                           ; This function is called by:
  1381                           ;		_main
  1382                           ; This function uses a non-reentrant model
  1383                           ; 
  1384                           psect	text146
  1385                           	file	"D:\ABHISHEK JOSHI\PIC\T10\T10.C"
  1386                           	line	80
  1387                           	global	__size_of_init
  1388  0010                     	__size_of_init	equ	__end_of_init-_init
  1389                           ;T10.C: 79: void init()
  1390                           ;T10.C: 80: {
  1391                           	
  1392  044D                     _init:	
  1393                           	opt stack 4
  1394                           ; Regs used in _init: [wreg+status,2+status,0+pclath+cstack]
  1395                           	line	82
  1396                           	
  1397  044D                     l30000631:	
  1398                           ;T10.C: 82: init_keypad();
  1399  044D  120A  118A  23DC   	fcall	_init_keypad
              120A  118A         
  1400                           	line	83
  1401                           ;T10.C: 83: init_timer();
  1402  0452  120A  118A  24BA   	fcall	_init_timer
              120A  118A         
  1403                           	line	84
  1404                           ;T10.C: 84: init_delay_1sec();
  1405  0457  120A  118A  249C   	fcall	_init_delay_1sec
              120A  118A         
  1406                           	
  1407  045C                     l8:	
  1408  045C  0008               	return
  1409                           	opt stack 0
  1410                           GLOBAL	__end_of_init
  1411  045D                     	__end_of_init:
  1412                           ; =============== function _init ends ============
  1413                           
  1414                           psect	text147,local,class=CODE,delta=2
  1415                           global __ptext147
  1416  04D9                     __ptext147:
  1417                           	line	85
  1418                           	signat	_init,88
  1419                           	global	_process_b
  1420                           
  1421                           ; *************** function _process_b *****************
  1422                           ; Defined at:
  1423                           ;		line 441 in file "D:\ABHISHEK JOSHI\PIC\T10\T10.C"
  1424                           ; Parameters:    Size  Location     Type
  1425                           ;		None
  1426                           ; Auto vars:     Size  Location     Type
  1427                           ;		None
  1428                           ; Return value:  Size  Location     Type
  1429                           ;		None               void
  1430                           ; Registers used:
  1431                           ;		wreg
  1432                           ; Tracked objects:
  1433                           ;		On entry : 0/0
  1434                           ;		On exit  : 0/0
  1435                           ;		Unchanged: 0/0
  1436                           ; Data sizes:     COMMON   BANK0   BANK1   BANK3   BANK2
  1437                           ;      Locals:         0       0       0       0       0
  1438                           ;      Temp:     0
  1439                           ;      Total:    0
  1440                           ; This function calls:
  1441                           ;		Nothing
  1442                           ; This function is called by:
  1443                           ;		_keyprocess
  1444                           ; This function uses a non-reentrant model
  1445                           ; 
  1446                           psect	text147
  1447                           	file	"D:\ABHISHEK JOSHI\PIC\T10\T10.C"
  1448                           	line	441
  1449                           	global	__size_of_process_b
  1450  0007                     	__size_of_process_b	equ	__end_of_process_b-_process_b
  1451                           ;T10.C: 440: void process_b()
  1452                           ;T10.C: 441: {
  1453                           	
  1454  04D9                     _process_b:	
  1455                           	opt stack 3
  1456                           ; Regs used in _process_b: [wreg]
  1457                           	line	442
  1458                           	
  1459  04D9                     l30000656:	
  1460                           ;T10.C: 442: start_sw=0;
  1461  04D9  3000               	movlw	low(0)
  1462  04DA  1283               	bcf	status, 5	;RP0=0, select bank0
  1463  04DB  1303               	bcf	status, 6	;RP1=0, select bank0
  1464  04DC  00E0               	movwf	(_start_sw)
  1465  04DD  3000               	movlw	high(0)
  1466  04DE  00E1               	movwf	((_start_sw))+1
  1467                           	
  1468  04DF                     l85:	
  1469  04DF  0008               	return
  1470                           	opt stack 0
  1471                           GLOBAL	__end_of_process_b
  1472  04E0                     	__end_of_process_b:
  1473                           ; =============== function _process_b ends ============
  1474                           
  1475                           psect	text148,local,class=CODE,delta=2
  1476                           global __ptext148
  1477  048D                     __ptext148:
  1478                           	line	443
  1479                           	signat	_process_b,88
  1480                           	global	_process_c
  1481                           
  1482                           ; *************** function _process_c *****************
  1483                           ; Defined at:
  1484                           ;		line 446 in file "D:\ABHISHEK JOSHI\PIC\T10\T10.C"
  1485                           ; Parameters:    Size  Location     Type
  1486                           ;		None
  1487                           ; Auto vars:     Size  Location     Type
  1488                           ;		None
  1489                           ; Return value:  Size  Location     Type
  1490                           ;		None               void
  1491                           ; Registers used:
  1492                           ;		wreg
  1493                           ; Tracked objects:
  1494                           ;		On entry : 0/0
  1495                           ;		On exit  : 0/0
  1496                           ;		Unchanged: 0/0
  1497                           ; Data sizes:     COMMON   BANK0   BANK1   BANK3   BANK2
  1498                           ;      Locals:         0       0       0       0       0
  1499                           ;      Temp:     0
  1500                           ;      Total:    0
  1501                           ; This function calls:
  1502                           ;		Nothing
  1503                           ; This function is called by:
  1504                           ;		_keyprocess
  1505                           ; This function uses a non-reentrant model
  1506                           ; 
  1507                           psect	text148
  1508                           	file	"D:\ABHISHEK JOSHI\PIC\T10\T10.C"
  1509                           	line	446
  1510                           	global	__size_of_process_c
  1511  000F                     	__size_of_process_c	equ	__end_of_process_c-_process_c
  1512                           ;T10.C: 445: void process_c()
  1513                           ;T10.C: 446: {
  1514                           	
  1515  048D                     _process_c:	
  1516                           	opt stack 3
  1517                           ; Regs used in _process_c: [wreg]
  1518                           	line	447
  1519                           	
  1520  048D                     l30000654:	
  1521                           ;T10.C: 447: start_sw=0;
  1522  048D  3000               	movlw	low(0)
  1523  048E  1283               	bcf	status, 5	;RP0=0, select bank0
  1524  048F  1303               	bcf	status, 6	;RP1=0, select bank0
  1525  0490  00E0               	movwf	(_start_sw)
  1526  0491  3000               	movlw	high(0)
  1527  0492  00E1               	movwf	((_start_sw))+1
  1528                           	line	448
  1529                           ;T10.C: 448: ds1='0';
  1530  0493  3030               	movlw	(030h)
  1531  0494  00F0               	movwf	(_ds1)
  1532                           	line	449
  1533                           ;T10.C: 449: ds2='0';
  1534  0495  3030               	movlw	(030h)
  1535  0496  00F1               	movwf	(_ds2)
  1536                           	line	450
  1537                           ;T10.C: 450: ds3='0';
  1538  0497  3030               	movlw	(030h)
  1539  0498  00F2               	movwf	(_ds3)
  1540                           	line	451
  1541                           ;T10.C: 451: ds4='0';
  1542  0499  3030               	movlw	(030h)
  1543  049A  00F3               	movwf	(_ds4)
  1544                           	
  1545  049B                     l86:	
  1546  049B  0008               	return
  1547                           	opt stack 0
  1548                           GLOBAL	__end_of_process_c
  1549  049C                     	__end_of_process_c:
  1550                           ; =============== function _process_c ends ============
  1551                           
  1552                           psect	text149,local,class=CODE,delta=2
  1553                           global __ptext149
  1554  041A                     __ptext149:
  1555                           	line	452
  1556                           	signat	_process_c,88
  1557                           	global	_key_release
  1558                           
  1559                           ; *************** function _key_release *****************
  1560                           ; Defined at:
  1561                           ;		line 398 in file "D:\ABHISHEK JOSHI\PIC\T10\T10.C"
  1562                           ; Parameters:    Size  Location     Type
  1563                           ;		None
  1564                           ; Auto vars:     Size  Location     Type
  1565                           ;		None
  1566                           ; Return value:  Size  Location     Type
  1567                           ;		None               void
  1568                           ; Registers used:
  1569                           ;		wreg
  1570                           ; Tracked objects:
  1571                           ;		On entry : 0/0
  1572                           ;		On exit  : 0/0
  1573                           ;		Unchanged: 0/0
  1574                           ; Data sizes:     COMMON   BANK0   BANK1   BANK3   BANK2
  1575                           ;      Locals:         0       0       0       0       0
  1576                           ;      Temp:     0
  1577                           ;      Total:    0
  1578                           ; This function calls:
  1579                           ;		Nothing
  1580                           ; This function is called by:
  1581                           ;		_keyprocess
  1582                           ; This function uses a non-reentrant model
  1583                           ; 
  1584                           psect	text149
  1585                           	file	"D:\ABHISHEK JOSHI\PIC\T10\T10.C"
  1586                           	line	398
  1587                           	global	__size_of_key_release
  1588  0012                     	__size_of_key_release	equ	__end_of_key_release-_key_release
  1589                           ;T10.C: 397: void key_release()
  1590                           ;T10.C: 398: {
  1591                           	
  1592  041A                     _key_release:	
  1593                           	opt stack 3
  1594                           ; Regs used in _key_release: [wreg]
  1595                           	
  1596  041A                     l30000644:	
  1597                           	
  1598  041A                     l30000645:	
  1599                           	line	399
  1600  041A  3001               	movlw	01h
  1601  041B  1283               	bcf	status, 5	;RP0=0, select bank0
  1602  041C  1303               	bcf	status, 6	;RP1=0, select bank0
  1603  041D  065A               	xorwf	(_nkp),w
  1604  041E  045B               	iorwf	(_nkp+1),w
  1605  041F  1D03               	skipz
  1606  0420  2C22               	goto	u281
  1607  0421  2C23               	goto	u280
  1608  0422                     u281:
  1609  0422  2C1A               	goto	l30000645
  1610  0423                     u280:
  1611                           	
  1612  0423                     l30000646:	
  1613                           	line	400
  1614                           ;T10.C: 400: key_ready=0;
  1615  0423  3000               	movlw	low(0)
  1616  0424  00D8               	movwf	(_key_ready)
  1617  0425  3000               	movlw	high(0)
  1618  0426  00D9               	movwf	((_key_ready))+1
  1619                           	line	401
  1620                           ;T10.C: 401: nkp=0;
  1621  0427  3000               	movlw	low(0)
  1622  0428  00DA               	movwf	(_nkp)
  1623  0429  3000               	movlw	high(0)
  1624  042A  00DB               	movwf	((_nkp))+1
  1625                           	
  1626  042B                     l68:	
  1627  042B  0008               	return
  1628                           	opt stack 0
  1629                           GLOBAL	__end_of_key_release
  1630  042C                     	__end_of_key_release:
  1631                           ; =============== function _key_release ends ============
  1632                           
  1633                           psect	text150,local,class=CODE,delta=2
  1634                           global __ptext150
  1635  04E0                     __ptext150:
  1636                           	line	402
  1637                           	signat	_key_release,88
  1638                           	global	_process_a
  1639                           
  1640                           ; *************** function _process_a *****************
  1641                           ; Defined at:
  1642                           ;		line 436 in file "D:\ABHISHEK JOSHI\PIC\T10\T10.C"
  1643                           ; Parameters:    Size  Location     Type
  1644                           ;		None
  1645                           ; Auto vars:     Size  Location     Type
  1646                           ;		None
  1647                           ; Return value:  Size  Location     Type
  1648                           ;		None               void
  1649                           ; Registers used:
  1650                           ;		wreg
  1651                           ; Tracked objects:
  1652                           ;		On entry : 0/0
  1653                           ;		On exit  : 0/0
  1654                           ;		Unchanged: 0/0
  1655                           ; Data sizes:     COMMON   BANK0   BANK1   BANK3   BANK2
  1656                           ;      Locals:         0       0       0       0       0
  1657                           ;      Temp:     0
  1658                           ;      Total:    0
  1659                           ; This function calls:
  1660                           ;		Nothing
  1661                           ; This function is called by:
  1662                           ;		_keyprocess
  1663                           ; This function uses a non-reentrant model
  1664                           ; 
  1665                           psect	text150
  1666                           	file	"D:\ABHISHEK JOSHI\PIC\T10\T10.C"
  1667                           	line	436
  1668                           	global	__size_of_process_a
  1669  0007                     	__size_of_process_a	equ	__end_of_process_a-_process_a
  1670                           ;T10.C: 435: void process_a()
  1671                           ;T10.C: 436: {
  1672                           	
  1673  04E0                     _process_a:	
  1674                           	opt stack 3
  1675                           ; Regs used in _process_a: [wreg]
  1676                           	line	437
  1677                           	
  1678  04E0                     l30000655:	
  1679                           ;T10.C: 437: start_sw=1;
  1680  04E0  3001               	movlw	low(01h)
  1681  04E1  1283               	bcf	status, 5	;RP0=0, select bank0
  1682  04E2  1303               	bcf	status, 6	;RP1=0, select bank0
  1683  04E3  00E0               	movwf	(_start_sw)
  1684  04E4  3000               	movlw	high(01h)
  1685  04E5  00E1               	movwf	((_start_sw))+1
  1686                           	
  1687  04E6                     l84:	
  1688  04E6  0008               	return
  1689                           	opt stack 0
  1690                           GLOBAL	__end_of_process_a
  1691  04E7                     	__end_of_process_a:
  1692                           ; =============== function _process_a ends ============
  1693                           
  1694                           psect	text151,local,class=CODE,delta=2
  1695                           global __ptext151
  1696  049C                     __ptext151:
  1697                           	line	438
  1698                           	signat	_process_a,88
  1699                           	global	_init_delay_1sec
  1700                           
  1701                           ; *************** function _init_delay_1sec *****************
  1702                           ; Defined at:
  1703                           ;		line 120 in file "D:\ABHISHEK JOSHI\PIC\T10\T10.C"
  1704                           ; Parameters:    Size  Location     Type
  1705                           ;		None
  1706                           ; Auto vars:     Size  Location     Type
  1707                           ;		None
  1708                           ; Return value:  Size  Location     Type
  1709                           ;		None               void
  1710                           ; Registers used:
  1711                           ;		wreg
  1712                           ; Tracked objects:
  1713                           ;		On entry : 0/0
  1714                           ;		On exit  : 0/0
  1715                           ;		Unchanged: 0/0
  1716                           ; Data sizes:     COMMON   BANK0   BANK1   BANK3   BANK2
  1717                           ;      Locals:         0       0       0       0       0
  1718                           ;      Temp:     0
  1719                           ;      Total:    0
  1720                           ; This function calls:
  1721                           ;		Nothing
  1722                           ; This function is called by:
  1723                           ;		_init
  1724                           ; This function uses a non-reentrant model
  1725                           ; 
  1726                           psect	text151
  1727                           	file	"D:\ABHISHEK JOSHI\PIC\T10\T10.C"
  1728                           	line	120
  1729                           	global	__size_of_init_delay_1sec
  1730  000F                     	__size_of_init_delay_1sec	equ	__end_of_init_delay_1sec-_init_delay_1sec
  1731                           ;T10.C: 119: void init_delay_1sec()
  1732                           ;T10.C: 120: {
  1733                           	
  1734  049C                     _init_delay_1sec:	
  1735                           	opt stack 3
  1736                           ; Regs used in _init_delay_1sec: [wreg]
  1737                           	line	121
  1738                           	
  1739  049C                     l30000670:	
  1740                           ;T10.C: 121: cnt_1sl=0x0e8;
  1741  049C  30E8               	movlw	low(0E8h)
  1742  049D  1283               	bcf	status, 5	;RP0=0, select bank0
  1743  049E  1303               	bcf	status, 6	;RP1=0, select bank0
  1744  049F  00E6               	movwf	(_cnt_1sl)
  1745  04A0  3000               	movlw	high(0E8h)
  1746  04A1  00E7               	movwf	((_cnt_1sl))+1
  1747                           	line	122
  1748                           ;T10.C: 122: cnt_1sh=0x04;
  1749  04A2  3004               	movlw	low(04h)
  1750  04A3  00E4               	movwf	(_cnt_1sh)
  1751  04A4  3000               	movlw	high(04h)
  1752  04A5  00E5               	movwf	((_cnt_1sh))+1
  1753                           	line	123
  1754                           ;T10.C: 123: s1_over=1;
  1755  04A6  3001               	movlw	low(01h)
  1756  04A7  00EC               	movwf	(_s1_over)
  1757  04A8  3000               	movlw	high(01h)
  1758  04A9  00ED               	movwf	((_s1_over))+1
  1759                           	
  1760  04AA                     l12:	
  1761  04AA  0008               	return
  1762                           	opt stack 0
  1763                           GLOBAL	__end_of_init_delay_1sec
  1764  04AB                     	__end_of_init_delay_1sec:
  1765                           ; =============== function _init_delay_1sec ends ============
  1766                           
  1767                           psect	text152,local,class=CODE,delta=2
  1768                           global __ptext152
  1769  03DC                     __ptext152:
  1770                           	line	124
  1771                           	signat	_init_delay_1sec,88
  1772                           	global	_init_keypad
  1773                           
  1774                           ; *************** function _init_keypad *****************
  1775                           ; Defined at:
  1776                           ;		line 105 in file "D:\ABHISHEK JOSHI\PIC\T10\T10.C"
  1777                           ; Parameters:    Size  Location     Type
  1778                           ;		None
  1779                           ; Auto vars:     Size  Location     Type
  1780                           ;		None
  1781                           ; Return value:  Size  Location     Type
  1782                           ;		None               void
  1783                           ; Registers used:
  1784                           ;		wreg
  1785                           ; Tracked objects:
  1786                           ;		On entry : 0/0
  1787                           ;		On exit  : 0/0
  1788                           ;		Unchanged: 0/0
  1789                           ; Data sizes:     COMMON   BANK0   BANK1   BANK3   BANK2
  1790                           ;      Locals:         0       0       0       0       0
  1791                           ;      Temp:     0
  1792                           ;      Total:    0
  1793                           ; This function calls:
  1794                           ;		Nothing
  1795                           ; This function is called by:
  1796                           ;		_init
  1797                           ; This function uses a non-reentrant model
  1798                           ; 
  1799                           psect	text152
  1800                           	file	"D:\ABHISHEK JOSHI\PIC\T10\T10.C"
  1801                           	line	105
  1802                           	global	__size_of_init_keypad
  1803  0023                     	__size_of_init_keypad	equ	__end_of_init_keypad-_init_keypad
  1804                           ;T10.C: 104: void init_keypad()
  1805                           ;T10.C: 105: {
  1806                           	
  1807  03DC                     _init_keypad:	
  1808                           	opt stack 3
  1809                           ; Regs used in _init_keypad: [wreg]
  1810                           	line	106
  1811                           	
  1812  03DC                     l30000629:	
  1813                           ;T10.C: 106: RA2=1;
  1814  03DC  1283               	bcf	status, 5	;RP0=0, select bank0
  1815  03DD  1303               	bcf	status, 6	;RP1=0, select bank0
  1816  03DE  1505               	bsf	(42/8),(42)&7
  1817                           	line	107
  1818                           ;T10.C: 107: RA3=1;
  1819  03DF  1585               	bsf	(43/8),(43)&7
  1820                           	line	108
  1821                           ;T10.C: 108: RA4=1;
  1822  03E0  1605               	bsf	(44/8),(44)&7
  1823                           	line	109
  1824                           ;T10.C: 109: RA5=1;
  1825  03E1  1685               	bsf	(45/8),(45)&7
  1826                           	
  1827  03E2                     l30000630:	
  1828                           	line	110
  1829                           ;T10.C: 110: start_sw=0;
  1830  03E2  3000               	movlw	low(0)
  1831  03E3  00E0               	movwf	(_start_sw)
  1832  03E4  3000               	movlw	high(0)
  1833  03E5  00E1               	movwf	((_start_sw))+1
  1834                           	line	111
  1835                           ;T10.C: 111: scan_no=0;
  1836  03E6  3000               	movlw	low(0)
  1837  03E7  00DC               	movwf	(_scan_no)
  1838  03E8  3000               	movlw	high(0)
  1839  03E9  00DD               	movwf	((_scan_no))+1
  1840                           	line	112
  1841                           ;T10.C: 112: dcount=33;
  1842  03EA  3021               	movlw	low(021h)
  1843  03EB  00E8               	movwf	(_dcount)
  1844  03EC  3000               	movlw	high(021h)
  1845  03ED  00E9               	movwf	((_dcount))+1
  1846                           	line	113
  1847                           ;T10.C: 113: krcount=32;
  1848  03EE  3020               	movlw	low(020h)
  1849  03EF  00EA               	movwf	(_krcount)
  1850  03F0  3000               	movlw	high(020h)
  1851  03F1  00EB               	movwf	((_krcount))+1
  1852                           	line	114
  1853                           ;T10.C: 114: key_ready=0;
  1854  03F2  3000               	movlw	low(0)
  1855  03F3  00D8               	movwf	(_key_ready)
  1856  03F4  3000               	movlw	high(0)
  1857  03F5  00D9               	movwf	((_key_ready))+1
  1858                           	line	115
  1859                           ;T10.C: 115: nkp=0;
  1860  03F6  3000               	movlw	low(0)
  1861  03F7  00DA               	movwf	(_nkp)
  1862  03F8  3000               	movlw	high(0)
  1863  03F9  00DB               	movwf	((_nkp))+1
  1864                           	line	116
  1865                           ;T10.C: 116: start_buzzer=0;
  1866  03FA  3000               	movlw	low(0)
  1867  03FB  00DE               	movwf	(_start_buzzer)
  1868  03FC  3000               	movlw	high(0)
  1869  03FD  00DF               	movwf	((_start_buzzer))+1
  1870                           	
  1871  03FE                     l11:	
  1872  03FE  0008               	return
  1873                           	opt stack 0
  1874                           GLOBAL	__end_of_init_keypad
  1875  03FF                     	__end_of_init_keypad:
  1876                           ; =============== function _init_keypad ends ============
  1877                           
  1878                           psect	text153,local,class=CODE,delta=2
  1879                           global __ptext153
  1880  04BA                     __ptext153:
  1881                           	line	117
  1882                           	signat	_init_keypad,88
  1883                           	global	_init_timer
  1884                           
  1885                           ; *************** function _init_timer *****************
  1886                           ; Defined at:
  1887                           ;		line 88 in file "D:\ABHISHEK JOSHI\PIC\T10\T10.C"
  1888                           ; Parameters:    Size  Location     Type
  1889                           ;		None
  1890                           ; Auto vars:     Size  Location     Type
  1891                           ;		None
  1892                           ; Return value:  Size  Location     Type
  1893                           ;		None               void
  1894                           ; Registers used:
  1895                           ;		wreg
  1896                           ; Tracked objects:
  1897                           ;		On entry : 0/0
  1898                           ;		On exit  : 0/0
  1899                           ;		Unchanged: 0/0
  1900                           ; Data sizes:     COMMON   BANK0   BANK1   BANK3   BANK2
  1901                           ;      Locals:         0       0       0       0       0
  1902                           ;      Temp:     0
  1903                           ;      Total:    0
  1904                           ; This function calls:
  1905                           ;		Nothing
  1906                           ; This function is called by:
  1907                           ;		_init
  1908                           ; This function uses a non-reentrant model
  1909                           ; 
  1910                           psect	text153
  1911                           	file	"D:\ABHISHEK JOSHI\PIC\T10\T10.C"
  1912                           	line	88
  1913                           	global	__size_of_init_timer
  1914  000F                     	__size_of_init_timer	equ	__end_of_init_timer-_init_timer
  1915                           ;T10.C: 87: void init_timer()
  1916                           ;T10.C: 88: {
  1917                           	
  1918  04BA                     _init_timer:	
  1919                           	opt stack 3
  1920                           ; Regs used in _init_timer: [wreg]
  1921                           	line	89
  1922                           	
  1923  04BA                     l30000671:	
  1924                           ;T10.C: 89: TMR1H=0xFC;
  1925  04BA  30FC               	movlw	(0FCh)
  1926  04BB  1283               	bcf	status, 5	;RP0=0, select bank0
  1927  04BC  1303               	bcf	status, 6	;RP1=0, select bank0
  1928  04BD  008F               	movwf	(15)	;volatile
  1929                           	line	90
  1930                           ;T10.C: 90: TMR1L=0x18;
  1931  04BE  3018               	movlw	(018h)
  1932  04BF  008E               	movwf	(14)	;volatile
  1933                           	line	91
  1934                           ;T10.C: 91: T1CON=0x01;
  1935  04C0  3001               	movlw	(01h)
  1936  04C1  0090               	movwf	(16)	;volatile
  1937                           	
  1938  04C2                     l30000672:	
  1939                           	line	92
  1940                           ;T10.C: 92: TMR1IE=1;
  1941  04C2  1683               	bsf	status, 5	;RP0=1, select bank1
  1942  04C3  1303               	bcf	status, 6	;RP1=0, select bank1
  1943  04C4  140C               	bsf	(1120/8)^080h,(1120)&7
  1944                           	
  1945  04C5                     l30000673:	
  1946                           	line	93
  1947                           ;T10.C: 93: TMR1IF=0;
  1948  04C5  1283               	bcf	status, 5	;RP0=0, select bank0
  1949  04C6  1303               	bcf	status, 6	;RP1=0, select bank0
  1950  04C7  100C               	bcf	(96/8),(96)&7
  1951                           	
  1952  04C8                     l9:	
  1953  04C8  0008               	return
  1954                           	opt stack 0
  1955                           GLOBAL	__end_of_init_timer
  1956  04C9                     	__end_of_init_timer:
  1957                           ; =============== function _init_timer ends ============
  1958                           
  1959                           psect	text154,local,class=CODE,delta=2
  1960                           global __ptext154
  1961  032A                     __ptext154:
  1962                           	line	94
  1963                           	signat	_init_timer,88
  1964                           	global	_isr_t0
  1965                           
  1966                           ; *************** function _isr_t0 *****************
  1967                           ; Defined at:
  1968                           ;		line 47 in file "D:\ABHISHEK JOSHI\PIC\T10\T10.C"
  1969                           ; Parameters:    Size  Location     Type
  1970                           ;		None
  1971                           ; Auto vars:     Size  Location     Type
  1972                           ;		None
  1973                           ; Return value:  Size  Location     Type
  1974                           ;		None               void
  1975                           ; Registers used:
  1976                           ;		wreg, fsr0l, fsr0h, status,2, status,0, pclath, cstack
  1977                           ; Tracked objects:
  1978                           ;		On entry : 0/0
  1979                           ;		On exit  : 0/0
  1980                           ;		Unchanged: 0/0
  1981                           ; Data sizes:     COMMON   BANK0   BANK1   BANK3   BANK2
  1982                           ;      Locals:         0       0       4       0       0
  1983                           ;      Temp:     4
  1984                           ;      Total:    4
  1985                           ; This function calls:
  1986                           ;		i1_init_timer
  1987                           ;		_delay_1sec
  1988                           ;		_scanner
  1989                           ;		_incrementd
  1990                           ; This function is called by:
  1991                           ;		Interrupt level 1
  1992                           ; This function uses a non-reentrant model
  1993                           ; 
  1994                           psect	text154
  1995                           	file	"D:\ABHISHEK JOSHI\PIC\T10\T10.C"
  1996                           	line	47
  1997                           	global	__size_of_isr_t0
  1998  0030                     	__size_of_isr_t0	equ	__end_of_isr_t0-_isr_t0
  1999                           ;pic168xa.h: 19: volatile unsigned char INDF @ 0x00;
  2000                           ;pic168xa.h: 20: volatile unsigned char TMR0 @ 0x01;
  2001                           ;pic168xa.h: 21: volatile unsigned char PCL @ 0x02;
  2002                           ;pic168xa.h: 22: volatile unsigned char STATUS @ 0x03;
  2003                           ;pic168xa.h: 23: unsigned char FSR @ 0x04;
  2004                           ;pic168xa.h: 24: volatile unsigned char PORTA @ 0x05;
  2005                           ;pic168xa.h: 25: volatile unsigned char PORTB @ 0x06;
  2006                           ;pic168xa.h: 26: volatile unsigned char PORTC @ 0x07;
  2007                           ;pic168xa.h: 31: unsigned char PCLATH @ 0x0A;
  2008                           ;pic168xa.h: 32: volatile unsigned char INTCON @ 0x0B;
  2009                           	
  2010  032A                     _isr_t0:	
  2011                           	opt stack 6
  2012                           ; Regs used in _isr_t0: [wreg-fsr0h+status,2+status,0+pclath+cstack]
  2013                           psect	intentry,class=CODE,delta=2
  2014                           global __pintentry
  2015  0004                     __pintentry:
  2016                           global interrupt_function
  2017  0004                     interrupt_function:
  2018                           	global saved_w
  2019  007F                     	saved_w	set	btemp+1
  2020  0004  00FF               	movwf	saved_w
  2021  0005  0803               	movf	status,w
  2022  0006  1683               	bsf	status, 5	;RP0=1, select bank1
  2023  0007  1303               	bcf	status, 6	;RP1=0, select bank1
  2024  0008  00A0               	movwf	(??_isr_t0+0)^080h
  2025  0009  0804               	movf	fsr0,w
  2026  000A  00A1               	movwf	(??_isr_t0+1)^080h
  2027  000B  080A               	movf	pclath,w
  2028  000C  00A2               	movwf	(??_isr_t0+2)^080h
  2029  000D  087E               	movf	btemp+0,w
  2030  000E  00A3               	movwf	(??_isr_t0+3)^080h
  2031  000F  120A  118A  2B2A   	ljmp	_isr_t0
  2032                           psect	text154
  2033                           	line	48
  2034                           	
  2035  032A                     i1l30000680:	
  2036                           ;T10.C: 48: init_timer();
  2037  032A  120A  118A  24AB   	fcall	i1_init_timer
              120A  118A         
  2038                           	line	49
  2039                           ;T10.C: 49: delay_1sec();
  2040  032F  120A  118A  22C5   	fcall	_delay_1sec
              120A  118A         
  2041                           	
  2042  0334                     i1l30000681:	
  2043                           	line	51
  2044                           ;T10.C: 51: scanner();
  2045  0334  120A  118A  2015   	fcall	_scanner
              120A  118A         
  2046                           	
  2047  0339                     i1l30000682:	
  2048                           	line	53
  2049                           ;T10.C: 53: if(s1_over==1)
  2050  0339  3001               	movlw	01h
  2051  033A  1283               	bcf	status, 5	;RP0=0, select bank0
  2052  033B  1303               	bcf	status, 6	;RP1=0, select bank0
  2053  033C  066C               	xorwf	(_s1_over),w
  2054  033D  046D               	iorwf	(_s1_over+1),w
  2055  033E  1D03               	skipz
  2056  033F  2B41               	goto	u37_21
  2057  0340  2B42               	goto	u37_20
  2058  0341                     u37_21:
  2059  0341  2B4D               	goto	i1l2
  2060  0342                     u37_20:
  2061                           	
  2062  0342                     i1l30000683:	
  2063                           	line	55
  2064                           ;T10.C: 54: {
  2065                           ;T10.C: 55: incrementd();
  2066  0342  120A  118A  2288   	fcall	_incrementd
              120A  118A         
  2067                           	
  2068  0347                     i1l30000684:	
  2069                           	line	56
  2070                           ;T10.C: 56: s1_over=0;
  2071  0347  3000               	movlw	low(0)
  2072  0348  1283               	bcf	status, 5	;RP0=0, select bank0
  2073  0349  1303               	bcf	status, 6	;RP1=0, select bank0
  2074  034A  00EC               	movwf	(_s1_over)
  2075  034B  3000               	movlw	high(0)
  2076  034C  00ED               	movwf	((_s1_over))+1
  2077                           	
  2078  034D                     i1l2:	
  2079  034D  1683               	bsf	status, 5	;RP0=1, select bank1
  2080  034E  1303               	bcf	status, 6	;RP1=0, select bank1
  2081  034F  0823               	movf	(??_isr_t0+3)^080h,w
  2082  0350  00FE               	movwf	btemp+0
  2083  0351  0822               	movf	(??_isr_t0+2)^080h,w
  2084  0352  008A               	movwf	pclath
  2085  0353  0821               	movf	(??_isr_t0+1)^080h,w
  2086  0354  0084               	movwf	fsr0
  2087  0355  0820               	movf	(??_isr_t0+0)^080h,w
  2088  0356  0083               	movwf	status
  2089  0357  0EFF               	swapf	saved_w,f
  2090  0358  0E7F               	swapf	saved_w,w
  2091  0359  0009               	retfie
  2092                           	opt stack 0
  2093                           GLOBAL	__end_of_isr_t0
  2094  035A                     	__end_of_isr_t0:
  2095                           ; =============== function _isr_t0 ends ============
  2096                           
  2097                           psect	text155,local,class=CODE,delta=2
  2098                           global __ptext155
  2099  0015                     __ptext155:
  2100                           	line	58
  2101                           	signat	_isr_t0,88
  2102                           	global	_scanner
  2103                           
  2104                           ; *************** function _scanner *****************
  2105                           ; Defined at:
  2106                           ;		line 148 in file "D:\ABHISHEK JOSHI\PIC\T10\T10.C"
  2107                           ; Parameters:    Size  Location     Type
  2108                           ;		None
  2109                           ; Auto vars:     Size  Location     Type
  2110                           ;		None
  2111                           ; Return value:  Size  Location     Type
  2112                           ;		None               void
  2113                           ; Registers used:
  2114                           ;		wreg, fsr0l, fsr0h, status,2, status,0, pclath, cstack
  2115                           ; Tracked objects:
  2116                           ;		On entry : 0/0
  2117                           ;		On exit  : 0/0
  2118                           ;		Unchanged: 0/0
  2119                           ; Data sizes:     COMMON   BANK0   BANK1   BANK3   BANK2
  2120                           ;      Locals:         2       0       0       0       0
  2121                           ;      Temp:     2
  2122                           ;      Total:    2
  2123                           ; This function calls:
  2124                           ;		_adisp1
  2125                           ;		_k1
  2126                           ;		_disp_blank
  2127                           ;		_adisp2
  2128                           ;		_adisp3
  2129                           ;		_adisp4
  2130                           ; This function is called by:
  2131                           ;		_isr_t0
  2132                           ; This function uses a non-reentrant model
  2133                           ; 
  2134                           psect	text155
  2135                           	file	"D:\ABHISHEK JOSHI\PIC\T10\T10.C"
  2136                           	line	148
  2137                           	global	__size_of_scanner
  2138  0202                     	__size_of_scanner	equ	__end_of_scanner-_scanner
  2139                           ;T10.C: 147: void scanner()
  2140                           ;T10.C: 148: {
  2141                           	
  2142  0015                     _scanner:	
  2143                           	opt stack 5
  2144                           ; Regs used in _scanner: [wreg-fsr0h+status,2+status,0+pclath+cstack]
  2145                           	
  2146  0015                     i1l30000548:	
  2147  0015  29DC               	goto	i1l30000606
  2148                           	
  2149  0016                     i1l21:	
  2150                           	line	152
  2151                           ;T10.C: 152: RA1=0;
  2152  0016  1085               	bcf	(41/8),(41)&7
  2153                           	line	153
  2154                           ;T10.C: 153: RC0=1;
  2155  0017  1407               	bsf	(56/8),(56)&7
  2156                           	line	154
  2157                           ;T10.C: 154: RC1=1;
  2158  0018  1487               	bsf	(57/8),(57)&7
  2159                           	line	155
  2160                           ;T10.C: 155: RC2=1;
  2161  0019  1507               	bsf	(58/8),(58)&7
  2162                           	
  2163  001A                     i1l30000549:	
  2164                           	line	156
  2165                           ;T10.C: 156: adisp1();
  2166  001A  120A  118A  246D   	fcall	_adisp1
              120A  118A         
  2167                           	
  2168  001F                     i1l30000550:	
  2169                           	line	157
  2170                           ;T10.C: 157: c=RA2;
  2171  001F  1003               	clrc
  2172  0020  1283               	bcf	status, 5	;RP0=0, select bank0
  2173  0021  1303               	bcf	status, 6	;RP1=0, select bank0
  2174  0022  1905               	btfsc	(42/8),(42)&7
  2175  0023  1403               	setc
  2176  0024  3000               	movlw	0
  2177  0025  1803               	skipnc
  2178  0026  3001               	movlw	1
  2179                           
  2180  0027  00F6               	movwf	(??_scanner+0+0)
  2181  0028  01F7               	clrf	(??_scanner+0+0+1)
  2182  0029  0876               	movf	0+(??_scanner+0+0),w
  2183  002A  00D4               	movwf	(_c)
  2184  002B  0877               	movf	1+(??_scanner+0+0),w
  2185  002C  00D5               	movwf	(_c+1)
  2186                           	
  2187  002D                     i1l30000551:	
  2188                           	line	158
  2189                           ;T10.C: 158: k1();
  2190  002D  120A  118A  2217   	fcall	_k1
              120A  118A         
  2191                           	
  2192  0032                     i1l30000552:	
  2193                           	line	159
  2194                           ;T10.C: 159: scan_no=1;
  2195  0032  3001               	movlw	low(01h)
  2196  0033  1283               	bcf	status, 5	;RP0=0, select bank0
  2197  0034  1303               	bcf	status, 6	;RP1=0, select bank0
  2198  0035  00DC               	movwf	(_scan_no)
  2199  0036  3000               	movlw	high(01h)
  2200  0037  00DD               	movwf	((_scan_no))+1
  2201  0038  2A16               	goto	i1l18
  2202                           	
  2203  0039                     i1l30000553:	
  2204                           	line	163
  2205                           ;T10.C: 163: c=RA3;
  2206  0039  1003               	clrc
  2207  003A  1985               	btfsc	(43/8),(43)&7
  2208  003B  1403               	setc
  2209  003C  3000               	movlw	0
  2210  003D  1803               	skipnc
  2211  003E  3001               	movlw	1
  2212                           
  2213  003F  00F6               	movwf	(??_scanner+0+0)
  2214  0040  01F7               	clrf	(??_scanner+0+0+1)
  2215  0041  0876               	movf	0+(??_scanner+0+0),w
  2216  0042  00D4               	movwf	(_c)
  2217  0043  0877               	movf	1+(??_scanner+0+0),w
  2218  0044  00D5               	movwf	(_c+1)
  2219                           	
  2220  0045                     i1l30000554:	
  2221                           	line	164
  2222                           ;T10.C: 164: k1();
  2223  0045  120A  118A  2217   	fcall	_k1
              120A  118A         
  2224                           	
  2225  004A                     i1l30000555:	
  2226                           	line	165
  2227                           ;T10.C: 165: scan_no=2;
  2228  004A  3002               	movlw	low(02h)
  2229  004B  1283               	bcf	status, 5	;RP0=0, select bank0
  2230  004C  1303               	bcf	status, 6	;RP1=0, select bank0
  2231  004D  00DC               	movwf	(_scan_no)
  2232  004E  3000               	movlw	high(02h)
  2233  004F  00DD               	movwf	((_scan_no))+1
  2234  0050  2A16               	goto	i1l18
  2235                           	
  2236  0051                     i1l30000556:	
  2237                           	line	169
  2238                           ;T10.C: 169: c=RA4;
  2239  0051  1003               	clrc
  2240  0052  1A05               	btfsc	(44/8),(44)&7
  2241  0053  1403               	setc
  2242  0054  3000               	movlw	0
  2243  0055  1803               	skipnc
  2244  0056  3001               	movlw	1
  2245                           
  2246  0057  00F6               	movwf	(??_scanner+0+0)
  2247  0058  01F7               	clrf	(??_scanner+0+0+1)
  2248  0059  0876               	movf	0+(??_scanner+0+0),w
  2249  005A  00D4               	movwf	(_c)
  2250  005B  0877               	movf	1+(??_scanner+0+0),w
  2251  005C  00D5               	movwf	(_c+1)
  2252                           	
  2253  005D                     i1l30000557:	
  2254                           	line	170
  2255                           ;T10.C: 170: k1();
  2256  005D  120A  118A  2217   	fcall	_k1
              120A  118A         
  2257                           	
  2258  0062                     i1l30000558:	
  2259                           	line	171
  2260                           ;T10.C: 171: scan_no=3;
  2261  0062  3003               	movlw	low(03h)
  2262  0063  1283               	bcf	status, 5	;RP0=0, select bank0
  2263  0064  1303               	bcf	status, 6	;RP1=0, select bank0
  2264  0065  00DC               	movwf	(_scan_no)
  2265  0066  3000               	movlw	high(03h)
  2266  0067  00DD               	movwf	((_scan_no))+1
  2267  0068  2A16               	goto	i1l18
  2268                           	
  2269  0069                     i1l30000559:	
  2270                           	line	175
  2271                           ;T10.C: 175: disp_blank();
  2272  0069  120A  118A  24D1   	fcall	_disp_blank
              120A  118A         
  2273                           	
  2274  006E                     i1l30000560:	
  2275                           	line	176
  2276                           ;T10.C: 176: c=RA5;
  2277  006E  1003               	clrc
  2278  006F  1283               	bcf	status, 5	;RP0=0, select bank0
  2279  0070  1303               	bcf	status, 6	;RP1=0, select bank0
  2280  0071  1A85               	btfsc	(45/8),(45)&7
  2281  0072  1403               	setc
  2282  0073  3000               	movlw	0
  2283  0074  1803               	skipnc
  2284  0075  3001               	movlw	1
  2285                           
  2286  0076  00F6               	movwf	(??_scanner+0+0)
  2287  0077  01F7               	clrf	(??_scanner+0+0+1)
  2288  0078  0876               	movf	0+(??_scanner+0+0),w
  2289  0079  00D4               	movwf	(_c)
  2290  007A  0877               	movf	1+(??_scanner+0+0),w
  2291  007B  00D5               	movwf	(_c+1)
  2292                           	
  2293  007C                     i1l30000561:	
  2294                           	line	177
  2295                           ;T10.C: 177: k1();
  2296  007C  120A  118A  2217   	fcall	_k1
              120A  118A         
  2297                           	
  2298  0081                     i1l30000562:	
  2299                           	line	178
  2300                           ;T10.C: 178: scan_no=4;
  2301  0081  3004               	movlw	low(04h)
  2302  0082  1283               	bcf	status, 5	;RP0=0, select bank0
  2303  0083  1303               	bcf	status, 6	;RP1=0, select bank0
  2304  0084  00DC               	movwf	(_scan_no)
  2305  0085  3000               	movlw	high(04h)
  2306  0086  00DD               	movwf	((_scan_no))+1
  2307  0087  2A16               	goto	i1l18
  2308                           	
  2309  0088                     i1l25:	
  2310                           	line	182
  2311                           ;T10.C: 182: RA1=1;
  2312  0088  1485               	bsf	(41/8),(41)&7
  2313                           	line	183
  2314                           ;T10.C: 183: RC0=0;
  2315  0089  1007               	bcf	(56/8),(56)&7
  2316                           	line	184
  2317                           ;T10.C: 184: RC1=1;
  2318  008A  1487               	bsf	(57/8),(57)&7
  2319                           	line	185
  2320                           ;T10.C: 185: RC2=1;
  2321  008B  1507               	bsf	(58/8),(58)&7
  2322                           	
  2323  008C                     i1l30000563:	
  2324                           	line	186
  2325                           ;T10.C: 186: adisp2();
  2326  008C  120A  118A  245D   	fcall	_adisp2
              120A  118A         
  2327                           	
  2328  0091                     i1l30000564:	
  2329                           	line	187
  2330                           ;T10.C: 187: c=RA2;
  2331  0091  1003               	clrc
  2332  0092  1283               	bcf	status, 5	;RP0=0, select bank0
  2333  0093  1303               	bcf	status, 6	;RP1=0, select bank0
  2334  0094  1905               	btfsc	(42/8),(42)&7
  2335  0095  1403               	setc
  2336  0096  3000               	movlw	0
  2337  0097  1803               	skipnc
  2338  0098  3001               	movlw	1
  2339                           
  2340  0099  00F6               	movwf	(??_scanner+0+0)
  2341  009A  01F7               	clrf	(??_scanner+0+0+1)
  2342  009B  0876               	movf	0+(??_scanner+0+0),w
  2343  009C  00D4               	movwf	(_c)
  2344  009D  0877               	movf	1+(??_scanner+0+0),w
  2345  009E  00D5               	movwf	(_c+1)
  2346                           	
  2347  009F                     i1l30000565:	
  2348                           	line	188
  2349                           ;T10.C: 188: k1();
  2350  009F  120A  118A  2217   	fcall	_k1
              120A  118A         
  2351                           	
  2352  00A4                     i1l30000566:	
  2353                           	line	189
  2354                           ;T10.C: 189: scan_no=5;
  2355  00A4  3005               	movlw	low(05h)
  2356  00A5  1283               	bcf	status, 5	;RP0=0, select bank0
  2357  00A6  1303               	bcf	status, 6	;RP1=0, select bank0
  2358  00A7  00DC               	movwf	(_scan_no)
  2359  00A8  3000               	movlw	high(05h)
  2360  00A9  00DD               	movwf	((_scan_no))+1
  2361  00AA  2A16               	goto	i1l18
  2362                           	
  2363  00AB                     i1l30000567:	
  2364                           	line	193
  2365                           ;T10.C: 193: c=RA3;
  2366  00AB  1003               	clrc
  2367  00AC  1985               	btfsc	(43/8),(43)&7
  2368  00AD  1403               	setc
  2369  00AE  3000               	movlw	0
  2370  00AF  1803               	skipnc
  2371  00B0  3001               	movlw	1
  2372                           
  2373  00B1  00F6               	movwf	(??_scanner+0+0)
  2374  00B2  01F7               	clrf	(??_scanner+0+0+1)
  2375  00B3  0876               	movf	0+(??_scanner+0+0),w
  2376  00B4  00D4               	movwf	(_c)
  2377  00B5  0877               	movf	1+(??_scanner+0+0),w
  2378  00B6  00D5               	movwf	(_c+1)
  2379                           	
  2380  00B7                     i1l30000568:	
  2381                           	line	194
  2382                           ;T10.C: 194: k1();
  2383  00B7  120A  118A  2217   	fcall	_k1
              120A  118A         
  2384                           	
  2385  00BC                     i1l30000569:	
  2386                           	line	195
  2387                           ;T10.C: 195: scan_no=6;
  2388  00BC  3006               	movlw	low(06h)
  2389  00BD  1283               	bcf	status, 5	;RP0=0, select bank0
  2390  00BE  1303               	bcf	status, 6	;RP1=0, select bank0
  2391  00BF  00DC               	movwf	(_scan_no)
  2392  00C0  3000               	movlw	high(06h)
  2393  00C1  00DD               	movwf	((_scan_no))+1
  2394  00C2  2A16               	goto	i1l18
  2395                           	
  2396  00C3                     i1l30000570:	
  2397                           	line	199
  2398                           ;T10.C: 199: c=RA4;
  2399  00C3  1003               	clrc
  2400  00C4  1A05               	btfsc	(44/8),(44)&7
  2401  00C5  1403               	setc
  2402  00C6  3000               	movlw	0
  2403  00C7  1803               	skipnc
  2404  00C8  3001               	movlw	1
  2405                           
  2406  00C9  00F6               	movwf	(??_scanner+0+0)
  2407  00CA  01F7               	clrf	(??_scanner+0+0+1)
  2408  00CB  0876               	movf	0+(??_scanner+0+0),w
  2409  00CC  00D4               	movwf	(_c)
  2410  00CD  0877               	movf	1+(??_scanner+0+0),w
  2411  00CE  00D5               	movwf	(_c+1)
  2412                           	
  2413  00CF                     i1l30000571:	
  2414                           	line	200
  2415                           ;T10.C: 200: k1();
  2416  00CF  120A  118A  2217   	fcall	_k1
              120A  118A         
  2417                           	
  2418  00D4                     i1l30000572:	
  2419                           	line	201
  2420                           ;T10.C: 201: scan_no=7;
  2421  00D4  3007               	movlw	low(07h)
  2422  00D5  1283               	bcf	status, 5	;RP0=0, select bank0
  2423  00D6  1303               	bcf	status, 6	;RP1=0, select bank0
  2424  00D7  00DC               	movwf	(_scan_no)
  2425  00D8  3000               	movlw	high(07h)
  2426  00D9  00DD               	movwf	((_scan_no))+1
  2427  00DA  2A16               	goto	i1l18
  2428                           	
  2429  00DB                     i1l30000573:	
  2430                           	line	205
  2431                           ;T10.C: 205: disp_blank();
  2432  00DB  120A  118A  24D1   	fcall	_disp_blank
              120A  118A         
  2433                           	
  2434  00E0                     i1l30000574:	
  2435                           	line	206
  2436                           ;T10.C: 206: c=RA5;
  2437  00E0  1003               	clrc
  2438  00E1  1283               	bcf	status, 5	;RP0=0, select bank0
  2439  00E2  1303               	bcf	status, 6	;RP1=0, select bank0
  2440  00E3  1A85               	btfsc	(45/8),(45)&7
  2441  00E4  1403               	setc
  2442  00E5  3000               	movlw	0
  2443  00E6  1803               	skipnc
  2444  00E7  3001               	movlw	1
  2445                           
  2446  00E8  00F6               	movwf	(??_scanner+0+0)
  2447  00E9  01F7               	clrf	(??_scanner+0+0+1)
  2448  00EA  0876               	movf	0+(??_scanner+0+0),w
  2449  00EB  00D4               	movwf	(_c)
  2450  00EC  0877               	movf	1+(??_scanner+0+0),w
  2451  00ED  00D5               	movwf	(_c+1)
  2452                           	
  2453  00EE                     i1l30000575:	
  2454                           	line	207
  2455                           ;T10.C: 207: k1();
  2456  00EE  120A  118A  2217   	fcall	_k1
              120A  118A         
  2457                           	
  2458  00F3                     i1l30000576:	
  2459                           	line	208
  2460                           ;T10.C: 208: scan_no=8;
  2461  00F3  3008               	movlw	low(08h)
  2462  00F4  1283               	bcf	status, 5	;RP0=0, select bank0
  2463  00F5  1303               	bcf	status, 6	;RP1=0, select bank0
  2464  00F6  00DC               	movwf	(_scan_no)
  2465  00F7  3000               	movlw	high(08h)
  2466  00F8  00DD               	movwf	((_scan_no))+1
  2467  00F9  2A16               	goto	i1l18
  2468                           	
  2469  00FA                     i1l29:	
  2470                           	line	212
  2471                           ;T10.C: 212: RA1=1;
  2472  00FA  1485               	bsf	(41/8),(41)&7
  2473                           	line	213
  2474                           ;T10.C: 213: RC0=1;
  2475  00FB  1407               	bsf	(56/8),(56)&7
  2476                           	line	214
  2477                           ;T10.C: 214: RC1=0;
  2478  00FC  1087               	bcf	(57/8),(57)&7
  2479                           	line	215
  2480                           ;T10.C: 215: RC2=1;
  2481  00FD  1507               	bsf	(58/8),(58)&7
  2482                           	
  2483  00FE                     i1l30000577:	
  2484                           	line	216
  2485                           ;T10.C: 216: adisp3();
  2486  00FE  120A  118A  243D   	fcall	_adisp3
              120A  118A         
  2487                           	
  2488  0103                     i1l30000578:	
  2489                           	line	217
  2490                           ;T10.C: 217: c=RA2;
  2491  0103  1003               	clrc
  2492  0104  1283               	bcf	status, 5	;RP0=0, select bank0
  2493  0105  1303               	bcf	status, 6	;RP1=0, select bank0
  2494  0106  1905               	btfsc	(42/8),(42)&7
  2495  0107  1403               	setc
  2496  0108  3000               	movlw	0
  2497  0109  1803               	skipnc
  2498  010A  3001               	movlw	1
  2499                           
  2500  010B  00F6               	movwf	(??_scanner+0+0)
  2501  010C  01F7               	clrf	(??_scanner+0+0+1)
  2502  010D  0876               	movf	0+(??_scanner+0+0),w
  2503  010E  00D4               	movwf	(_c)
  2504  010F  0877               	movf	1+(??_scanner+0+0),w
  2505  0110  00D5               	movwf	(_c+1)
  2506                           	
  2507  0111                     i1l30000579:	
  2508                           	line	218
  2509                           ;T10.C: 218: k1();
  2510  0111  120A  118A  2217   	fcall	_k1
              120A  118A         
  2511                           	
  2512  0116                     i1l30000580:	
  2513                           	line	219
  2514                           ;T10.C: 219: scan_no=9;
  2515  0116  3009               	movlw	low(09h)
  2516  0117  1283               	bcf	status, 5	;RP0=0, select bank0
  2517  0118  1303               	bcf	status, 6	;RP1=0, select bank0
  2518  0119  00DC               	movwf	(_scan_no)
  2519  011A  3000               	movlw	high(09h)
  2520  011B  00DD               	movwf	((_scan_no))+1
  2521  011C  2A16               	goto	i1l18
  2522                           	
  2523  011D                     i1l30000581:	
  2524                           	line	223
  2525                           ;T10.C: 223: c=RA3;
  2526  011D  1003               	clrc
  2527  011E  1985               	btfsc	(43/8),(43)&7
  2528  011F  1403               	setc
  2529  0120  3000               	movlw	0
  2530  0121  1803               	skipnc
  2531  0122  3001               	movlw	1
  2532                           
  2533  0123  00F6               	movwf	(??_scanner+0+0)
  2534  0124  01F7               	clrf	(??_scanner+0+0+1)
  2535  0125  0876               	movf	0+(??_scanner+0+0),w
  2536  0126  00D4               	movwf	(_c)
  2537  0127  0877               	movf	1+(??_scanner+0+0),w
  2538  0128  00D5               	movwf	(_c+1)
  2539                           	
  2540  0129                     i1l30000582:	
  2541                           	line	224
  2542                           ;T10.C: 224: k1();
  2543  0129  120A  118A  2217   	fcall	_k1
              120A  118A         
  2544                           	
  2545  012E                     i1l30000583:	
  2546                           	line	225
  2547                           ;T10.C: 225: scan_no=10;
  2548  012E  300A               	movlw	low(0Ah)
  2549  012F  1283               	bcf	status, 5	;RP0=0, select bank0
  2550  0130  1303               	bcf	status, 6	;RP1=0, select bank0
  2551  0131  00DC               	movwf	(_scan_no)
  2552  0132  3000               	movlw	high(0Ah)
  2553  0133  00DD               	movwf	((_scan_no))+1
  2554  0134  2A16               	goto	i1l18
  2555                           	
  2556  0135                     i1l30000584:	
  2557                           	line	229
  2558                           ;T10.C: 229: c=RA4;
  2559  0135  1003               	clrc
  2560  0136  1A05               	btfsc	(44/8),(44)&7
  2561  0137  1403               	setc
  2562  0138  3000               	movlw	0
  2563  0139  1803               	skipnc
  2564  013A  3001               	movlw	1
  2565                           
  2566  013B  00F6               	movwf	(??_scanner+0+0)
  2567  013C  01F7               	clrf	(??_scanner+0+0+1)
  2568  013D  0876               	movf	0+(??_scanner+0+0),w
  2569  013E  00D4               	movwf	(_c)
  2570  013F  0877               	movf	1+(??_scanner+0+0),w
  2571  0140  00D5               	movwf	(_c+1)
  2572                           	
  2573  0141                     i1l30000585:	
  2574                           	line	230
  2575                           ;T10.C: 230: k1();
  2576  0141  120A  118A  2217   	fcall	_k1
              120A  118A         
  2577                           	
  2578  0146                     i1l30000586:	
  2579                           	line	231
  2580                           ;T10.C: 231: scan_no=11;
  2581  0146  300B               	movlw	low(0Bh)
  2582  0147  1283               	bcf	status, 5	;RP0=0, select bank0
  2583  0148  1303               	bcf	status, 6	;RP1=0, select bank0
  2584  0149  00DC               	movwf	(_scan_no)
  2585  014A  3000               	movlw	high(0Bh)
  2586  014B  00DD               	movwf	((_scan_no))+1
  2587  014C  2A16               	goto	i1l18
  2588                           	
  2589  014D                     i1l30000587:	
  2590                           	line	235
  2591                           ;T10.C: 235: disp_blank();
  2592  014D  120A  118A  24D1   	fcall	_disp_blank
              120A  118A         
  2593                           	
  2594  0152                     i1l30000588:	
  2595                           	line	236
  2596                           ;T10.C: 236: c=RA5;
  2597  0152  1003               	clrc
  2598  0153  1283               	bcf	status, 5	;RP0=0, select bank0
  2599  0154  1303               	bcf	status, 6	;RP1=0, select bank0
  2600  0155  1A85               	btfsc	(45/8),(45)&7
  2601  0156  1403               	setc
  2602  0157  3000               	movlw	0
  2603  0158  1803               	skipnc
  2604  0159  3001               	movlw	1
  2605                           
  2606  015A  00F6               	movwf	(??_scanner+0+0)
  2607  015B  01F7               	clrf	(??_scanner+0+0+1)
  2608  015C  0876               	movf	0+(??_scanner+0+0),w
  2609  015D  00D4               	movwf	(_c)
  2610  015E  0877               	movf	1+(??_scanner+0+0),w
  2611  015F  00D5               	movwf	(_c+1)
  2612                           	
  2613  0160                     i1l30000589:	
  2614                           	line	237
  2615                           ;T10.C: 237: k1();
  2616  0160  120A  118A  2217   	fcall	_k1
              120A  118A         
  2617                           	
  2618  0165                     i1l30000590:	
  2619                           	line	238
  2620                           ;T10.C: 238: scan_no=12;
  2621  0165  300C               	movlw	low(0Ch)
  2622  0166  1283               	bcf	status, 5	;RP0=0, select bank0
  2623  0167  1303               	bcf	status, 6	;RP1=0, select bank0
  2624  0168  00DC               	movwf	(_scan_no)
  2625  0169  3000               	movlw	high(0Ch)
  2626  016A  00DD               	movwf	((_scan_no))+1
  2627  016B  2A16               	goto	i1l18
  2628                           	
  2629  016C                     i1l33:	
  2630                           	line	242
  2631                           ;T10.C: 242: RA1=1;
  2632  016C  1485               	bsf	(41/8),(41)&7
  2633                           	line	243
  2634                           ;T10.C: 243: RC0=1;
  2635  016D  1407               	bsf	(56/8),(56)&7
  2636                           	line	244
  2637                           ;T10.C: 244: RC1=1;
  2638  016E  1487               	bsf	(57/8),(57)&7
  2639                           	line	245
  2640                           ;T10.C: 245: RC2=0;
  2641  016F  1107               	bcf	(58/8),(58)&7
  2642                           	
  2643  0170                     i1l30000591:	
  2644                           	line	246
  2645                           ;T10.C: 246: adisp4();
  2646  0170  120A  118A  247D   	fcall	_adisp4
              120A  118A         
  2647                           	
  2648  0175                     i1l30000592:	
  2649                           	line	247
  2650                           ;T10.C: 247: c=RA2;
  2651  0175  1003               	clrc
  2652  0176  1283               	bcf	status, 5	;RP0=0, select bank0
  2653  0177  1303               	bcf	status, 6	;RP1=0, select bank0
  2654  0178  1905               	btfsc	(42/8),(42)&7
  2655  0179  1403               	setc
  2656  017A  3000               	movlw	0
  2657  017B  1803               	skipnc
  2658  017C  3001               	movlw	1
  2659                           
  2660  017D  00F6               	movwf	(??_scanner+0+0)
  2661  017E  01F7               	clrf	(??_scanner+0+0+1)
  2662  017F  0876               	movf	0+(??_scanner+0+0),w
  2663  0180  00D4               	movwf	(_c)
  2664  0181  0877               	movf	1+(??_scanner+0+0),w
  2665  0182  00D5               	movwf	(_c+1)
  2666                           	
  2667  0183                     i1l30000593:	
  2668                           	line	248
  2669                           ;T10.C: 248: k1();
  2670  0183  120A  118A  2217   	fcall	_k1
              120A  118A         
  2671                           	
  2672  0188                     i1l30000594:	
  2673                           	line	249
  2674                           ;T10.C: 249: scan_no=13;
  2675  0188  300D               	movlw	low(0Dh)
  2676  0189  1283               	bcf	status, 5	;RP0=0, select bank0
  2677  018A  1303               	bcf	status, 6	;RP1=0, select bank0
  2678  018B  00DC               	movwf	(_scan_no)
  2679  018C  3000               	movlw	high(0Dh)
  2680  018D  00DD               	movwf	((_scan_no))+1
  2681  018E  2A16               	goto	i1l18
  2682                           	
  2683  018F                     i1l30000595:	
  2684                           	line	253
  2685                           ;T10.C: 253: c=RA3;
  2686  018F  1003               	clrc
  2687  0190  1985               	btfsc	(43/8),(43)&7
  2688  0191  1403               	setc
  2689  0192  3000               	movlw	0
  2690  0193  1803               	skipnc
  2691  0194  3001               	movlw	1
  2692                           
  2693  0195  00F6               	movwf	(??_scanner+0+0)
  2694  0196  01F7               	clrf	(??_scanner+0+0+1)
  2695  0197  0876               	movf	0+(??_scanner+0+0),w
  2696  0198  00D4               	movwf	(_c)
  2697  0199  0877               	movf	1+(??_scanner+0+0),w
  2698  019A  00D5               	movwf	(_c+1)
  2699                           	
  2700  019B                     i1l30000596:	
  2701                           	line	254
  2702                           ;T10.C: 254: k1();
  2703  019B  120A  118A  2217   	fcall	_k1
              120A  118A         
  2704                           	
  2705  01A0                     i1l30000597:	
  2706                           	line	255
  2707                           ;T10.C: 255: scan_no=14;
  2708  01A0  300E               	movlw	low(0Eh)
  2709  01A1  1283               	bcf	status, 5	;RP0=0, select bank0
  2710  01A2  1303               	bcf	status, 6	;RP1=0, select bank0
  2711  01A3  00DC               	movwf	(_scan_no)
  2712  01A4  3000               	movlw	high(0Eh)
  2713  01A5  00DD               	movwf	((_scan_no))+1
  2714  01A6  2A16               	goto	i1l18
  2715                           	
  2716  01A7                     i1l30000598:	
  2717                           	line	259
  2718                           ;T10.C: 259: c=RA4;
  2719  01A7  1003               	clrc
  2720  01A8  1A05               	btfsc	(44/8),(44)&7
  2721  01A9  1403               	setc
  2722  01AA  3000               	movlw	0
  2723  01AB  1803               	skipnc
  2724  01AC  3001               	movlw	1
  2725                           
  2726  01AD  00F6               	movwf	(??_scanner+0+0)
  2727  01AE  01F7               	clrf	(??_scanner+0+0+1)
  2728  01AF  0876               	movf	0+(??_scanner+0+0),w
  2729  01B0  00D4               	movwf	(_c)
  2730  01B1  0877               	movf	1+(??_scanner+0+0),w
  2731  01B2  00D5               	movwf	(_c+1)
  2732                           	
  2733  01B3                     i1l30000599:	
  2734                           	line	260
  2735                           ;T10.C: 260: k1();
  2736  01B3  120A  118A  2217   	fcall	_k1
              120A  118A         
  2737                           	
  2738  01B8                     i1l30000600:	
  2739                           	line	261
  2740                           ;T10.C: 261: scan_no=15;
  2741  01B8  300F               	movlw	low(0Fh)
  2742  01B9  1283               	bcf	status, 5	;RP0=0, select bank0
  2743  01BA  1303               	bcf	status, 6	;RP1=0, select bank0
  2744  01BB  00DC               	movwf	(_scan_no)
  2745  01BC  3000               	movlw	high(0Fh)
  2746  01BD  00DD               	movwf	((_scan_no))+1
  2747  01BE  2A16               	goto	i1l18
  2748                           	
  2749  01BF                     i1l30000601:	
  2750                           	line	265
  2751                           ;T10.C: 265: c=RA5;
  2752  01BF  1003               	clrc
  2753  01C0  1A85               	btfsc	(45/8),(45)&7
  2754  01C1  1403               	setc
  2755  01C2  3000               	movlw	0
  2756  01C3  1803               	skipnc
  2757  01C4  3001               	movlw	1
  2758                           
  2759  01C5  00F6               	movwf	(??_scanner+0+0)
  2760  01C6  01F7               	clrf	(??_scanner+0+0+1)
  2761  01C7  0876               	movf	0+(??_scanner+0+0),w
  2762  01C8  00D4               	movwf	(_c)
  2763  01C9  0877               	movf	1+(??_scanner+0+0),w
  2764  01CA  00D5               	movwf	(_c+1)
  2765                           	
  2766  01CB                     i1l30000602:	
  2767                           	line	266
  2768                           ;T10.C: 266: k1();
  2769  01CB  120A  118A  2217   	fcall	_k1
              120A  118A         
  2770                           	
  2771  01D0                     i1l30000603:	
  2772                           	line	267
  2773                           ;T10.C: 267: disp_blank();
  2774  01D0  120A  118A  24D1   	fcall	_disp_blank
              120A  118A         
  2775                           	
  2776  01D5                     i1l30000604:	
  2777                           	line	268
  2778                           ;T10.C: 268: scan_no=0;
  2779  01D5  3000               	movlw	low(0)
  2780  01D6  1283               	bcf	status, 5	;RP0=0, select bank0
  2781  01D7  1303               	bcf	status, 6	;RP1=0, select bank0
  2782  01D8  00DC               	movwf	(_scan_no)
  2783  01D9  3000               	movlw	high(0)
  2784  01DA  00DD               	movwf	((_scan_no))+1
  2785  01DB  2A16               	goto	i1l18
  2786                           	
  2787  01DC                     i1l30000606:	
  2788                           	line	149
  2789  01DC  2A11               		goto	i1l30025
  2790  01DD                     i1l30026:
  2791  01DD  1283               	bcf	status, 5	;RP0=0, select bank0
  2792  01DE  1303               	bcf	status, 6	;RP1=0, select bank0
  2793  01DF  085C               	movf (_scan_no),w
  2794  01E0  3A00               	xorlw	0^0
  2795  01E1  1903               	skipnz
  2796  01E2  2816               	goto	i1l21
  2797  01E3  3A01               	xorlw	1^0
  2798  01E4  1903               	skipnz
  2799  01E5  2839               	goto	i1l30000553
  2800  01E6  3A03               	xorlw	2^1
  2801  01E7  1903               	skipnz
  2802  01E8  2851               	goto	i1l30000556
  2803  01E9  3A01               	xorlw	3^2
  2804  01EA  1903               	skipnz
  2805  01EB  2869               	goto	i1l30000559
  2806  01EC  3A07               	xorlw	4^3
  2807  01ED  1903               	skipnz
  2808  01EE  2888               	goto	i1l25
  2809  01EF  3A01               	xorlw	5^4
  2810  01F0  1903               	skipnz
  2811  01F1  28AB               	goto	i1l30000567
  2812  01F2  3A03               	xorlw	6^5
  2813  01F3  1903               	skipnz
  2814  01F4  28C3               	goto	i1l30000570
  2815  01F5  3A01               	xorlw	7^6
  2816  01F6  1903               	skipnz
  2817  01F7  28DB               	goto	i1l30000573
  2818  01F8  3A0F               	xorlw	8^7
  2819  01F9  1903               	skipnz
  2820  01FA  28FA               	goto	i1l29
  2821  01FB  3A01               	xorlw	9^8
  2822  01FC  1903               	skipnz
  2823  01FD  291D               	goto	i1l30000581
  2824  01FE  3A03               	xorlw	10^9
  2825  01FF  1903               	skipnz
  2826  0200  2935               	goto	i1l30000584
  2827  0201  3A01               	xorlw	11^10
  2828  0202  1903               	skipnz
  2829  0203  294D               	goto	i1l30000587
  2830  0204  3A07               	xorlw	12^11
  2831  0205  1903               	skipnz
  2832  0206  296C               	goto	i1l33
  2833  0207  3A01               	xorlw	13^12
  2834  0208  1903               	skipnz
  2835  0209  298F               	goto	i1l30000595
  2836  020A  3A03               	xorlw	14^13
  2837  020B  1903               	skipnz
  2838  020C  29A7               	goto	i1l30000598
  2839  020D  3A01               	xorlw	15^14
  2840  020E  1903               	skipnz
  2841  020F  29BF               	goto	i1l30000601
  2842  0210  2A16               	goto	i1l18
  2843                           
  2844  0211                     i1l30025:
  2845  0211  085D               	movf (_scan_no+1),w
  2846  0212  3A00               	xorlw	0^0
  2847  0213  1903               	skipnz
  2848  0214  29DD               	goto	i1l30026
  2849  0215  2A16               	goto	i1l18
  2850                           
  2851                           	
  2852  0216                     i1l18:	
  2853  0216  0008               	return
  2854                           	opt stack 0
  2855                           GLOBAL	__end_of_scanner
  2856  0217                     	__end_of_scanner:
  2857                           ; =============== function _scanner ends ============
  2858                           
  2859                           psect	text156,local,class=CODE,delta=2
  2860                           global __ptext156
  2861  0288                     __ptext156:
  2862                           	line	271
  2863                           	signat	_scanner,88
  2864                           	global	_incrementd
  2865                           
  2866                           ; *************** function _incrementd *****************
  2867                           ; Defined at:
  2868                           ;		line 362 in file "D:\ABHISHEK JOSHI\PIC\T10\T10.C"
  2869                           ; Parameters:    Size  Location     Type
  2870                           ;		None
  2871                           ; Auto vars:     Size  Location     Type
  2872                           ;		None
  2873                           ; Return value:  Size  Location     Type
  2874                           ;		None               void
  2875                           ; Registers used:
  2876                           ;		wreg, status,2, status,0
  2877                           ; Tracked objects:
  2878                           ;		On entry : 0/0
  2879                           ;		On exit  : 0/0
  2880                           ;		Unchanged: 0/0
  2881                           ; Data sizes:     COMMON   BANK0   BANK1   BANK3   BANK2
  2882                           ;      Locals:         0       0       0       0       0
  2883                           ;      Temp:     0
  2884                           ;      Total:    0
  2885                           ; This function calls:
  2886                           ;		Nothing
  2887                           ; This function is called by:
  2888                           ;		_isr_t0
  2889                           ; This function uses a non-reentrant model
  2890                           ; 
  2891                           psect	text156
  2892                           	file	"D:\ABHISHEK JOSHI\PIC\T10\T10.C"
  2893                           	line	362
  2894                           	global	__size_of_incrementd
  2895  003D                     	__size_of_incrementd	equ	__end_of_incrementd-_incrementd
  2896                           ;T10.C: 361: void incrementd()
  2897                           ;T10.C: 362: {
  2898                           	
  2899  0288                     _incrementd:	
  2900                           	opt stack 5
  2901                           ; Regs used in _incrementd: [wreg+status,2+status,0]
  2902                           	line	363
  2903                           	
  2904  0288                     i1l30000657:	
  2905                           ;T10.C: 363: if(start_sw==1)
  2906  0288  3001               	movlw	01h
  2907  0289  1283               	bcf	status, 5	;RP0=0, select bank0
  2908  028A  1303               	bcf	status, 6	;RP1=0, select bank0
  2909  028B  0660               	xorwf	(_start_sw),w
  2910  028C  0461               	iorwf	(_start_sw+1),w
  2911  028D  1D03               	skipz
  2912  028E  2A90               	goto	u29_21
  2913  028F  2A91               	goto	u29_20
  2914  0290                     u29_21:
  2915  0290  2AC4               	goto	i1l62
  2916  0291                     u29_20:
  2917                           	
  2918  0291                     i1l30000658:	
  2919                           	line	365
  2920                           ;T10.C: 364: {
  2921                           ;T10.C: 365: ds1=ds1+1;
  2922  0291  0870               	movf	(_ds1),w
  2923  0292  3E01               	addlw	01h
  2924  0293  00F0               	movwf	(_ds1)
  2925                           	
  2926  0294                     i1l30000659:	
  2927                           	line	366
  2928                           ;T10.C: 366: if (ds1>'9')
  2929  0294  303A               	movlw	(03Ah)
  2930  0295  0270               	subwf	(_ds1),w
  2931  0296  1C03               	skipc
  2932  0297  2A99               	goto	u30_21
  2933  0298  2A9A               	goto	u30_20
  2934  0299                     u30_21:
  2935  0299  2AC4               	goto	i1l62
  2936  029A                     u30_20:
  2937                           	
  2938  029A                     i1l30000660:	
  2939                           	line	368
  2940                           ;T10.C: 367: {
  2941                           ;T10.C: 368: ds1='0';
  2942  029A  3030               	movlw	(030h)
  2943  029B  00F0               	movwf	(_ds1)
  2944                           	
  2945  029C                     i1l30000661:	
  2946                           	line	369
  2947                           ;T10.C: 369: ds2=ds2+1;
  2948  029C  0871               	movf	(_ds2),w
  2949  029D  3E01               	addlw	01h
  2950  029E  00F1               	movwf	(_ds2)
  2951                           	
  2952  029F                     i1l30000662:	
  2953                           	line	371
  2954                           ;T10.C: 371: if (ds2>'9')
  2955  029F  303A               	movlw	(03Ah)
  2956  02A0  0271               	subwf	(_ds2),w
  2957  02A1  1C03               	skipc
  2958  02A2  2AA4               	goto	u31_21
  2959  02A3  2AA5               	goto	u31_20
  2960  02A4                     u31_21:
  2961  02A4  2AC4               	goto	i1l62
  2962  02A5                     u31_20:
  2963                           	
  2964  02A5                     i1l30000663:	
  2965                           	line	373
  2966                           ;T10.C: 372: {
  2967                           ;T10.C: 373: ds2='0';
  2968  02A5  3030               	movlw	(030h)
  2969  02A6  00F1               	movwf	(_ds2)
  2970                           	
  2971  02A7                     i1l30000664:	
  2972                           	line	374
  2973                           ;T10.C: 374: ds3=ds3+1;
  2974  02A7  0872               	movf	(_ds3),w
  2975  02A8  3E01               	addlw	01h
  2976  02A9  00F2               	movwf	(_ds3)
  2977                           	
  2978  02AA                     i1l30000665:	
  2979                           	line	376
  2980                           ;T10.C: 376: if (ds3>'9')
  2981  02AA  303A               	movlw	(03Ah)
  2982  02AB  0272               	subwf	(_ds3),w
  2983  02AC  1C03               	skipc
  2984  02AD  2AAF               	goto	u32_21
  2985  02AE  2AB0               	goto	u32_20
  2986  02AF                     u32_21:
  2987  02AF  2AC4               	goto	i1l62
  2988  02B0                     u32_20:
  2989                           	
  2990  02B0                     i1l30000666:	
  2991                           	line	378
  2992                           ;T10.C: 377: {
  2993                           ;T10.C: 378: ds3='0';
  2994  02B0  3030               	movlw	(030h)
  2995  02B1  00F2               	movwf	(_ds3)
  2996                           	
  2997  02B2                     i1l30000667:	
  2998                           	line	379
  2999                           ;T10.C: 379: ds4=ds4+1;
  3000  02B2  0873               	movf	(_ds4),w
  3001  02B3  3E01               	addlw	01h
  3002  02B4  00F3               	movwf	(_ds4)
  3003                           	
  3004  02B5                     i1l30000668:	
  3005                           	line	381
  3006                           ;T10.C: 381: if(ds4>'9')
  3007  02B5  303A               	movlw	(03Ah)
  3008  02B6  0273               	subwf	(_ds4),w
  3009  02B7  1C03               	skipc
  3010  02B8  2ABA               	goto	u33_21
  3011  02B9  2ABB               	goto	u33_20
  3012  02BA                     u33_21:
  3013  02BA  2AC4               	goto	i1l64
  3014  02BB                     u33_20:
  3015                           	
  3016  02BB                     i1l30000669:	
  3017                           	line	383
  3018                           ;T10.C: 382: {
  3019                           ;T10.C: 383: ds1='0';
  3020  02BB  3030               	movlw	(030h)
  3021  02BC  00F0               	movwf	(_ds1)
  3022                           	line	384
  3023                           ;T10.C: 384: ds2='0';
  3024  02BD  3030               	movlw	(030h)
  3025  02BE  00F1               	movwf	(_ds2)
  3026                           	line	385
  3027                           ;T10.C: 385: ds3='0';
  3028  02BF  3030               	movlw	(030h)
  3029  02C0  00F2               	movwf	(_ds3)
  3030                           	line	386
  3031                           ;T10.C: 386: ds4='0';
  3032  02C1  3030               	movlw	(030h)
  3033  02C2  00F3               	movwf	(_ds4)
  3034  02C3  2AC4               	goto	i1l62
  3035                           	
  3036  02C4                     i1l64:	
  3037                           	
  3038  02C4                     i1l62:	
  3039  02C4  0008               	return
  3040                           	opt stack 0
  3041                           GLOBAL	__end_of_incrementd
  3042  02C5                     	__end_of_incrementd:
  3043                           ; =============== function _incrementd ends ============
  3044                           
  3045                           psect	text157,local,class=CODE,delta=2
  3046                           global __ptext157
  3047  04AB                     __ptext157:
  3048                           	line	395
  3049                           	signat	_incrementd,88
  3050                           	global	i1_init_timer
  3051                           
  3052                           ; *************** function i1_init_timer *****************
  3053                           ; Defined at:
  3054                           ;		line 88 in file "D:\ABHISHEK JOSHI\PIC\T10\T10.C"
  3055                           ; Parameters:    Size  Location     Type
  3056                           ;		None
  3057                           ; Auto vars:     Size  Location     Type
  3058                           ;		None
  3059                           ; Return value:  Size  Location     Type
  3060                           ;		None               void
  3061                           ; Registers used:
  3062                           ;		wreg
  3063                           ; Tracked objects:
  3064                           ;		On entry : 0/0
  3065                           ;		On exit  : 0/0
  3066                           ;		Unchanged: 0/0
  3067                           ; Data sizes:     COMMON   BANK0   BANK1   BANK3   BANK2
  3068                           ;      Locals:         0       0       0       0       0
  3069                           ;      Temp:     0
  3070                           ;      Total:    0
  3071                           ; This function calls:
  3072                           ;		Nothing
  3073                           ; This function is called by:
  3074                           ;		_isr_t0
  3075                           ; This function uses a non-reentrant model
  3076                           ; 
  3077                           psect	text157
  3078                           	file	"D:\ABHISHEK JOSHI\PIC\T10\T10.C"
  3079                           	line	88
  3080                           	global	__size_ofi1_init_timer
  3081  000F                     	__size_ofi1_init_timer	equ	__end_ofi1_init_timer-i1_init_timer
  3082                           ;T10.C: 87: void init_timer()
  3083                           ;T10.C: 88: {
  3084                           	
  3085  04AB                     i1_init_timer:	
  3086                           	opt stack 5
  3087                           ; Regs used in i1_init_timer: [wreg]
  3088                           	line	89
  3089                           	
  3090  04AB                     i1l30000539:	
  3091                           ;T10.C: 89: TMR1H=0xFC;
  3092  04AB  30FC               	movlw	(0FCh)
  3093  04AC  1283               	bcf	status, 5	;RP0=0, select bank0
  3094  04AD  1303               	bcf	status, 6	;RP1=0, select bank0
  3095  04AE  008F               	movwf	(15)	;volatile
  3096                           	line	90
  3097                           ;T10.C: 90: TMR1L=0x18;
  3098  04AF  3018               	movlw	(018h)
  3099  04B0  008E               	movwf	(14)	;volatile
  3100                           	line	91
  3101                           ;T10.C: 91: T1CON=0x01;
  3102  04B1  3001               	movlw	(01h)
  3103  04B2  0090               	movwf	(16)	;volatile
  3104                           	
  3105  04B3                     i1l30000540:	
  3106                           	line	92
  3107                           ;T10.C: 92: TMR1IE=1;
  3108  04B3  1683               	bsf	status, 5	;RP0=1, select bank1
  3109  04B4  1303               	bcf	status, 6	;RP1=0, select bank1
  3110  04B5  140C               	bsf	(1120/8)^080h,(1120)&7
  3111                           	
  3112  04B6                     i1l30000541:	
  3113                           	line	93
  3114                           ;T10.C: 93: TMR1IF=0;
  3115  04B6  1283               	bcf	status, 5	;RP0=0, select bank0
  3116  04B7  1303               	bcf	status, 6	;RP1=0, select bank0
  3117  04B8  100C               	bcf	(96/8),(96)&7
  3118                           	
  3119  04B9                     i1l9:	
  3120  04B9  0008               	return
  3121                           	opt stack 0
  3122                           GLOBAL	__end_ofi1_init_timer
  3123  04BA                     	__end_ofi1_init_timer:
  3124                           ; =============== function i1_init_timer ends ============
  3125                           
  3126                           psect	text158,local,class=CODE,delta=2
  3127                           global __ptext158
  3128  02C5                     __ptext158:
  3129                           	line	94
  3130                           	signat	i1_init_timer,88
  3131                           	global	_delay_1sec
  3132                           
  3133                           ; *************** function _delay_1sec *****************
  3134                           ; Defined at:
  3135                           ;		line 127 in file "D:\ABHISHEK JOSHI\PIC\T10\T10.C"
  3136                           ; Parameters:    Size  Location     Type
  3137                           ;		None
  3138                           ; Auto vars:     Size  Location     Type
  3139                           ;		None
  3140                           ; Return value:  Size  Location     Type
  3141                           ;		None               void
  3142                           ; Registers used:
  3143                           ;		wreg, status,2, status,0
  3144                           ; Tracked objects:
  3145                           ;		On entry : 0/0
  3146                           ;		On exit  : 0/0
  3147                           ;		Unchanged: 0/0
  3148                           ; Data sizes:     COMMON   BANK0   BANK1   BANK3   BANK2
  3149                           ;      Locals:         0       0       0       0       0
  3150                           ;      Temp:     0
  3151                           ;      Total:    0
  3152                           ; This function calls:
  3153                           ;		Nothing
  3154                           ; This function is called by:
  3155                           ;		_isr_t0
  3156                           ; This function uses a non-reentrant model
  3157                           ; 
  3158                           psect	text158
  3159                           	file	"D:\ABHISHEK JOSHI\PIC\T10\T10.C"
  3160                           	line	127
  3161                           	global	__size_of_delay_1sec
  3162  0033                     	__size_of_delay_1sec	equ	__end_of_delay_1sec-_delay_1sec
  3163                           ;T10.C: 126: void delay_1sec()
  3164                           ;T10.C: 127: {
  3165                           	
  3166  02C5                     _delay_1sec:	
  3167                           	opt stack 5
  3168                           ; Regs used in _delay_1sec: [wreg+status,2+status,0]
  3169                           	line	128
  3170                           	
  3171  02C5                     i1l30000674:	
  3172                           ;T10.C: 128: if(s1_over!=1)
  3173  02C5  3001               	movlw	01h
  3174  02C6  1283               	bcf	status, 5	;RP0=0, select bank0
  3175  02C7  1303               	bcf	status, 6	;RP1=0, select bank0
  3176  02C8  066C               	xorwf	(_s1_over),w
  3177  02C9  046D               	iorwf	(_s1_over+1),w
  3178  02CA  1903               	skipnz
  3179  02CB  2ACD               	goto	u34_21
  3180  02CC  2ACE               	goto	u34_20
  3181  02CD                     u34_21:
  3182  02CD  2AF7               	goto	i1l13
  3183  02CE                     u34_20:
  3184                           	
  3185  02CE                     i1l30000675:	
  3186                           	line	130
  3187                           ;T10.C: 129: {
  3188                           ;T10.C: 130: cnt_1sl--;
  3189  02CE  30FF               	movlw	low(-1)
  3190  02CF  07E6               	addwf	(_cnt_1sl),f
  3191  02D0  1803               	skipnc
  3192  02D1  0AE7               	incf	(_cnt_1sl+1),f
  3193  02D2  30FF               	movlw	high(-1)
  3194  02D3  07E7               	addwf	(_cnt_1sl+1),f
  3195                           	
  3196  02D4                     i1l30000676:	
  3197                           	line	131
  3198                           ;T10.C: 131: if(cnt_1sl==0)
  3199  02D4  0867               	movf	((_cnt_1sl+1)),w
  3200  02D5  0466               	iorwf	((_cnt_1sl)),w
  3201  02D6  1D03               	skipz
  3202  02D7  2AD9               	goto	u35_21
  3203  02D8  2ADA               	goto	u35_20
  3204  02D9                     u35_21:
  3205  02D9  2AF7               	goto	i1l13
  3206  02DA                     u35_20:
  3207                           	
  3208  02DA                     i1l30000677:	
  3209                           	line	133
  3210                           ;T10.C: 132: {
  3211                           ;T10.C: 133: cnt_1sh--;
  3212  02DA  30FF               	movlw	low(-1)
  3213  02DB  07E4               	addwf	(_cnt_1sh),f
  3214  02DC  1803               	skipnc
  3215  02DD  0AE5               	incf	(_cnt_1sh+1),f
  3216  02DE  30FF               	movlw	high(-1)
  3217  02DF  07E5               	addwf	(_cnt_1sh+1),f
  3218                           	line	134
  3219                           ;T10.C: 134: if(cnt_1sh!=0)
  3220  02E0  0865               	movf	(_cnt_1sh+1),w
  3221  02E1  0464               	iorwf	(_cnt_1sh),w
  3222  02E2  1903               	skipnz
  3223  02E3  2AE5               	goto	u36_21
  3224  02E4  2AE6               	goto	u36_20
  3225  02E5                     u36_21:
  3226  02E5  2AEB               	goto	i1l30000679
  3227  02E6                     u36_20:
  3228                           	
  3229  02E6                     i1l30000678:	
  3230                           	line	135
  3231                           ;T10.C: 135: cnt_1sl=0x0ff;
  3232  02E6  30FF               	movlw	low(0FFh)
  3233  02E7  00E6               	movwf	(_cnt_1sl)
  3234  02E8  3000               	movlw	high(0FFh)
  3235  02E9  00E7               	movwf	((_cnt_1sl))+1
  3236  02EA  2AF7               	goto	i1l13
  3237                           	
  3238  02EB                     i1l30000679:	
  3239                           	line	138
  3240                           ;T10.C: 136: else
  3241                           ;T10.C: 137: {
  3242                           ;T10.C: 138: cnt_1sl=0x0e8;
  3243  02EB  30E8               	movlw	low(0E8h)
  3244  02EC  00E6               	movwf	(_cnt_1sl)
  3245  02ED  3000               	movlw	high(0E8h)
  3246  02EE  00E7               	movwf	((_cnt_1sl))+1
  3247                           	line	139
  3248                           ;T10.C: 139: cnt_1sh=0x04;
  3249  02EF  3004               	movlw	low(04h)
  3250  02F0  00E4               	movwf	(_cnt_1sh)
  3251  02F1  3000               	movlw	high(04h)
  3252  02F2  00E5               	movwf	((_cnt_1sh))+1
  3253                           	line	140
  3254                           ;T10.C: 140: s1_over=1;
  3255  02F3  3001               	movlw	low(01h)
  3256  02F4  00EC               	movwf	(_s1_over)
  3257  02F5  3000               	movlw	high(01h)
  3258  02F6  00ED               	movwf	((_s1_over))+1
  3259                           	
  3260  02F7                     i1l13:	
  3261  02F7  0008               	return
  3262                           	opt stack 0
  3263                           GLOBAL	__end_of_delay_1sec
  3264  02F8                     	__end_of_delay_1sec:
  3265                           ; =============== function _delay_1sec ends ============
  3266                           
  3267                           psect	text159,local,class=CODE,delta=2
  3268                           global __ptext159
  3269  043D                     __ptext159:
  3270                           	line	145
  3271                           	signat	_delay_1sec,88
  3272                           	global	_adisp3
  3273                           
  3274                           ; *************** function _adisp3 *****************
  3275                           ; Defined at:
  3276                           ;		line 340 in file "D:\ABHISHEK JOSHI\PIC\T10\T10.C"
  3277                           ; Parameters:    Size  Location     Type
  3278                           ;		None
  3279                           ; Auto vars:     Size  Location     Type
  3280                           ;		None
  3281                           ; Return value:  Size  Location     Type
  3282                           ;		None               void
  3283                           ; Registers used:
  3284                           ;		wreg, fsr0l, fsr0h, status,2, status,0
  3285                           ; Tracked objects:
  3286                           ;		On entry : 0/0
  3287                           ;		On exit  : 0/0
  3288                           ;		Unchanged: 0/0
  3289                           ; Data sizes:     COMMON   BANK0   BANK1   BANK3   BANK2
  3290                           ;      Locals:         0       0       0       0       0
  3291                           ;      Temp:     0
  3292                           ;      Total:    0
  3293                           ; This function calls:
  3294                           ;		Nothing
  3295                           ; This function is called by:
  3296                           ;		_scanner
  3297                           ; This function uses a non-reentrant model
  3298                           ; 
  3299                           psect	text159
  3300                           	file	"D:\ABHISHEK JOSHI\PIC\T10\T10.C"
  3301                           	line	340
  3302                           	global	__size_of_adisp3
  3303  0010                     	__size_of_adisp3	equ	__end_of_adisp3-_adisp3
  3304                           ;T10.C: 339: void adisp3()
  3305                           ;T10.C: 340: {
  3306                           	
  3307  043D                     _adisp3:	
  3308                           	opt stack 4
  3309                           ; Regs used in _adisp3: [wreg-fsr0h+status,2+status,0]
  3310                           	line	341
  3311                           	
  3312  043D                     i1l30000625:	
  3313                           ;T10.C: 341: k=ds3-'0';
  3314  043D  0872               	movf	(_ds3),w
  3315  043E  3ED0               	addlw	low(0FFD0h)
  3316  043F  00F8               	movwf	(_k)
  3317  0440  30FF               	movlw	high(0FFD0h)
  3318  0441  1803               	skipnc
  3319  0442  3000               	movlw	high(0FFD0h)+1
  3320  0443  00F9               	movwf	((_k))+1
  3321                           	
  3322  0444                     i1l30000626:	
  3323                           	line	342
  3324                           ;T10.C: 342: PORTB=disp[k];
  3325  0444  0878               	movf	(_k),w
  3326  0445  3E39               	addlw	(_disp)&0ffh
  3327  0446  0084               	movwf	fsr0
  3328  0447  1383               	bcf	status, 7	;select IRP bank0
  3329  0448  0800               	movf	indf,w
  3330  0449  1283               	bcf	status, 5	;RP0=0, select bank0
  3331  044A  1303               	bcf	status, 6	;RP1=0, select bank0
  3332  044B  0086               	movwf	(6)	;volatile
  3333                           	
  3334  044C                     i1l52:	
  3335  044C  0008               	return
  3336                           	opt stack 0
  3337                           GLOBAL	__end_of_adisp3
  3338  044D                     	__end_of_adisp3:
  3339                           ; =============== function _adisp3 ends ============
  3340                           
  3341                           psect	text160,local,class=CODE,delta=2
  3342                           global __ptext160
  3343  047D                     __ptext160:
  3344                           	line	343
  3345                           	signat	_adisp3,88
  3346                           	global	_adisp4
  3347                           
  3348                           ; *************** function _adisp4 *****************
  3349                           ; Defined at:
  3350                           ;		line 346 in file "D:\ABHISHEK JOSHI\PIC\T10\T10.C"
  3351                           ; Parameters:    Size  Location     Type
  3352                           ;		None
  3353                           ; Auto vars:     Size  Location     Type
  3354                           ;		None
  3355                           ; Return value:  Size  Location     Type
  3356                           ;		None               void
  3357                           ; Registers used:
  3358                           ;		wreg, fsr0l, fsr0h, status,2, status,0
  3359                           ; Tracked objects:
  3360                           ;		On entry : 0/0
  3361                           ;		On exit  : 0/0
  3362                           ;		Unchanged: 0/0
  3363                           ; Data sizes:     COMMON   BANK0   BANK1   BANK3   BANK2
  3364                           ;      Locals:         0       0       0       0       0
  3365                           ;      Temp:     0
  3366                           ;      Total:    0
  3367                           ; This function calls:
  3368                           ;		Nothing
  3369                           ; This function is called by:
  3370                           ;		_scanner
  3371                           ; This function uses a non-reentrant model
  3372                           ; 
  3373                           psect	text160
  3374                           	file	"D:\ABHISHEK JOSHI\PIC\T10\T10.C"
  3375                           	line	346
  3376                           	global	__size_of_adisp4
  3377  0010                     	__size_of_adisp4	equ	__end_of_adisp4-_adisp4
  3378                           ;T10.C: 345: void adisp4()
  3379                           ;T10.C: 346: {
  3380                           	
  3381  047D                     _adisp4:	
  3382                           	opt stack 4
  3383                           ; Regs used in _adisp4: [wreg-fsr0h+status,2+status,0]
  3384                           	line	347
  3385                           	
  3386  047D                     i1l30000623:	
  3387                           ;T10.C: 347: k=ds4-'0';
  3388  047D  0873               	movf	(_ds4),w
  3389  047E  3ED0               	addlw	low(0FFD0h)
  3390  047F  00F8               	movwf	(_k)
  3391  0480  30FF               	movlw	high(0FFD0h)
  3392  0481  1803               	skipnc
  3393  0482  3000               	movlw	high(0FFD0h)+1
  3394  0483  00F9               	movwf	((_k))+1
  3395                           	
  3396  0484                     i1l30000624:	
  3397                           	line	348
  3398                           ;T10.C: 348: PORTB=disp[k];
  3399  0484  0878               	movf	(_k),w
  3400  0485  3E39               	addlw	(_disp)&0ffh
  3401  0486  0084               	movwf	fsr0
  3402  0487  1383               	bcf	status, 7	;select IRP bank0
  3403  0488  0800               	movf	indf,w
  3404  0489  1283               	bcf	status, 5	;RP0=0, select bank0
  3405  048A  1303               	bcf	status, 6	;RP1=0, select bank0
  3406  048B  0086               	movwf	(6)	;volatile
  3407                           	
  3408  048C                     i1l53:	
  3409  048C  0008               	return
  3410                           	opt stack 0
  3411                           GLOBAL	__end_of_adisp4
  3412  048D                     	__end_of_adisp4:
  3413                           ; =============== function _adisp4 ends ============
  3414                           
  3415                           psect	text161,local,class=CODE,delta=2
  3416                           global __ptext161
  3417  045D                     __ptext161:
  3418                           	line	349
  3419                           	signat	_adisp4,88
  3420                           	global	_adisp2
  3421                           
  3422                           ; *************** function _adisp2 *****************
  3423                           ; Defined at:
  3424                           ;		line 334 in file "D:\ABHISHEK JOSHI\PIC\T10\T10.C"
  3425                           ; Parameters:    Size  Location     Type
  3426                           ;		None
  3427                           ; Auto vars:     Size  Location     Type
  3428                           ;		None
  3429                           ; Return value:  Size  Location     Type
  3430                           ;		None               void
  3431                           ; Registers used:
  3432                           ;		wreg, fsr0l, fsr0h, status,2, status,0
  3433                           ; Tracked objects:
  3434                           ;		On entry : 0/0
  3435                           ;		On exit  : 0/0
  3436                           ;		Unchanged: 0/0
  3437                           ; Data sizes:     COMMON   BANK0   BANK1   BANK3   BANK2
  3438                           ;      Locals:         0       0       0       0       0
  3439                           ;      Temp:     0
  3440                           ;      Total:    0
  3441                           ; This function calls:
  3442                           ;		Nothing
  3443                           ; This function is called by:
  3444                           ;		_scanner
  3445                           ; This function uses a non-reentrant model
  3446                           ; 
  3447                           psect	text161
  3448                           	file	"D:\ABHISHEK JOSHI\PIC\T10\T10.C"
  3449                           	line	334
  3450                           	global	__size_of_adisp2
  3451  0010                     	__size_of_adisp2	equ	__end_of_adisp2-_adisp2
  3452                           ;T10.C: 333: void adisp2()
  3453                           ;T10.C: 334: {
  3454                           	
  3455  045D                     _adisp2:	
  3456                           	opt stack 4
  3457                           ; Regs used in _adisp2: [wreg-fsr0h+status,2+status,0]
  3458                           	line	335
  3459                           	
  3460  045D                     i1l30000621:	
  3461                           ;T10.C: 335: k=ds2-'0';
  3462  045D  0871               	movf	(_ds2),w
  3463  045E  3ED0               	addlw	low(0FFD0h)
  3464  045F  00F8               	movwf	(_k)
  3465  0460  30FF               	movlw	high(0FFD0h)
  3466  0461  1803               	skipnc
  3467  0462  3000               	movlw	high(0FFD0h)+1
  3468  0463  00F9               	movwf	((_k))+1
  3469                           	
  3470  0464                     i1l30000622:	
  3471                           	line	336
  3472                           ;T10.C: 336: PORTB=disp[k];
  3473  0464  0878               	movf	(_k),w
  3474  0465  3E39               	addlw	(_disp)&0ffh
  3475  0466  0084               	movwf	fsr0
  3476  0467  1383               	bcf	status, 7	;select IRP bank0
  3477  0468  0800               	movf	indf,w
  3478  0469  1283               	bcf	status, 5	;RP0=0, select bank0
  3479  046A  1303               	bcf	status, 6	;RP1=0, select bank0
  3480  046B  0086               	movwf	(6)	;volatile
  3481                           	
  3482  046C                     i1l51:	
  3483  046C  0008               	return
  3484                           	opt stack 0
  3485                           GLOBAL	__end_of_adisp2
  3486  046D                     	__end_of_adisp2:
  3487                           ; =============== function _adisp2 ends ============
  3488                           
  3489                           psect	text162,local,class=CODE,delta=2
  3490                           global __ptext162
  3491  046D                     __ptext162:
  3492                           	line	337
  3493                           	signat	_adisp2,88
  3494                           	global	_adisp1
  3495                           
  3496                           ; *************** function _adisp1 *****************
  3497                           ; Defined at:
  3498                           ;		line 328 in file "D:\ABHISHEK JOSHI\PIC\T10\T10.C"
  3499                           ; Parameters:    Size  Location     Type
  3500                           ;		None
  3501                           ; Auto vars:     Size  Location     Type
  3502                           ;		None
  3503                           ; Return value:  Size  Location     Type
  3504                           ;		None               void
  3505                           ; Registers used:
  3506                           ;		wreg, fsr0l, fsr0h, status,2, status,0
  3507                           ; Tracked objects:
  3508                           ;		On entry : 0/0
  3509                           ;		On exit  : 0/0
  3510                           ;		Unchanged: 0/0
  3511                           ; Data sizes:     COMMON   BANK0   BANK1   BANK3   BANK2
  3512                           ;      Locals:         0       0       0       0       0
  3513                           ;      Temp:     0
  3514                           ;      Total:    0
  3515                           ; This function calls:
  3516                           ;		Nothing
  3517                           ; This function is called by:
  3518                           ;		_scanner
  3519                           ; This function uses a non-reentrant model
  3520                           ; 
  3521                           psect	text162
  3522                           	file	"D:\ABHISHEK JOSHI\PIC\T10\T10.C"
  3523                           	line	328
  3524                           	global	__size_of_adisp1
  3525  0010                     	__size_of_adisp1	equ	__end_of_adisp1-_adisp1
  3526                           ;T10.C: 327: void adisp1()
  3527                           ;T10.C: 328: {
  3528                           	
  3529  046D                     _adisp1:	
  3530                           	opt stack 4
  3531                           ; Regs used in _adisp1: [wreg-fsr0h+status,2+status,0]
  3532                           	line	329
  3533                           	
  3534  046D                     i1l30000627:	
  3535                           ;T10.C: 329: k=ds1-'0';
  3536  046D  0870               	movf	(_ds1),w
  3537  046E  3ED0               	addlw	low(0FFD0h)
  3538  046F  00F8               	movwf	(_k)
  3539  0470  30FF               	movlw	high(0FFD0h)
  3540  0471  1803               	skipnc
  3541  0472  3000               	movlw	high(0FFD0h)+1
  3542  0473  00F9               	movwf	((_k))+1
  3543                           	
  3544  0474                     i1l30000628:	
  3545                           	line	330
  3546                           ;T10.C: 330: PORTB=disp[k];
  3547  0474  0878               	movf	(_k),w
  3548  0475  3E39               	addlw	(_disp)&0ffh
  3549  0476  0084               	movwf	fsr0
  3550  0477  1383               	bcf	status, 7	;select IRP bank0
  3551  0478  0800               	movf	indf,w
  3552  0479  1283               	bcf	status, 5	;RP0=0, select bank0
  3553  047A  1303               	bcf	status, 6	;RP1=0, select bank0
  3554  047B  0086               	movwf	(6)	;volatile
  3555                           	
  3556  047C                     i1l50:	
  3557  047C  0008               	return
  3558                           	opt stack 0
  3559                           GLOBAL	__end_of_adisp1
  3560  047D                     	__end_of_adisp1:
  3561                           ; =============== function _adisp1 ends ============
  3562                           
  3563                           psect	text163,local,class=CODE,delta=2
  3564                           global __ptext163
  3565  0217                     __ptext163:
  3566                           	line	331
  3567                           	signat	_adisp1,88
  3568                           	global	_k1
  3569                           
  3570                           ; *************** function _k1 *****************
  3571                           ; Defined at:
  3572                           ;		line 274 in file "D:\ABHISHEK JOSHI\PIC\T10\T10.C"
  3573                           ; Parameters:    Size  Location     Type
  3574                           ;		None
  3575                           ; Auto vars:     Size  Location     Type
  3576                           ;		None
  3577                           ; Return value:  Size  Location     Type
  3578                           ;		None               void
  3579                           ; Registers used:
  3580                           ;		wreg, status,2, status,0
  3581                           ; Tracked objects:
  3582                           ;		On entry : 0/0
  3583                           ;		On exit  : 0/0
  3584                           ;		Unchanged: 0/0
  3585                           ; Data sizes:     COMMON   BANK0   BANK1   BANK3   BANK2
  3586                           ;      Locals:         0       0       0       0       0
  3587                           ;      Temp:     0
  3588                           ;      Total:    0
  3589                           ; This function calls:
  3590                           ;		Nothing
  3591                           ; This function is called by:
  3592                           ;		_scanner
  3593                           ; This function uses a non-reentrant model
  3594                           ; 
  3595                           psect	text163
  3596                           	file	"D:\ABHISHEK JOSHI\PIC\T10\T10.C"
  3597                           	line	274
  3598                           	global	__size_of_k1
  3599  0071                     	__size_of_k1	equ	__end_of_k1-_k1
  3600                           ;T10.C: 273: void k1()
  3601                           ;T10.C: 274: {
  3602                           	
  3603  0217                     _k1:	
  3604                           	opt stack 4
  3605                           ; Regs used in _k1: [wreg+status,2+status,0]
  3606                           	line	275
  3607                           	
  3608  0217                     i1l30000607:	
  3609                           ;T10.C: 275: if(key_ready==1)
  3610  0217  3001               	movlw	01h
  3611  0218  1283               	bcf	status, 5	;RP0=0, select bank0
  3612  0219  1303               	bcf	status, 6	;RP1=0, select bank0
  3613  021A  0658               	xorwf	(_key_ready),w
  3614  021B  0459               	iorwf	(_key_ready+1),w
  3615  021C  1D03               	skipz
  3616  021D  2A1F               	goto	u20_21
  3617  021E  2A20               	goto	u20_20
  3618  021F                     u20_21:
  3619  021F  2A46               	goto	i1l30000613
  3620  0220                     u20_20:
  3621                           	
  3622  0220                     i1l30000608:	
  3623                           	line	277
  3624                           ;T10.C: 276: {
  3625                           ;T10.C: 277: if(c==0)
  3626  0220  0855               	movf	((_c+1)),w
  3627  0221  0454               	iorwf	((_c)),w
  3628  0222  1D03               	skipz
  3629  0223  2A25               	goto	u21_21
  3630  0224  2A26               	goto	u21_20
  3631  0225                     u21_21:
  3632  0225  2A2B               	goto	i1l30000610
  3633  0226                     u21_20:
  3634                           	
  3635  0226                     i1l30000609:	
  3636                           	line	279
  3637                           ;T10.C: 278: {
  3638                           ;T10.C: 279: krcount=32;
  3639  0226  3020               	movlw	low(020h)
  3640  0227  00EA               	movwf	(_krcount)
  3641  0228  3000               	movlw	high(020h)
  3642  0229  00EB               	movwf	((_krcount))+1
  3643  022A  2A87               	goto	i1l37
  3644                           	
  3645  022B                     i1l30000610:	
  3646                           	line	283
  3647                           ;T10.C: 281: else
  3648                           ;T10.C: 282: {
  3649                           ;T10.C: 283: krcount=krcount-1;
  3650  022B  086A               	movf	(_krcount),w
  3651  022C  3EFF               	addlw	low(-1)
  3652  022D  00EA               	movwf	(_krcount)
  3653  022E  086B               	movf	(_krcount+1),w
  3654  022F  1803               	skipnc
  3655  0230  3E01               	addlw	1
  3656  0231  3EFF               	addlw	high(-1)
  3657  0232  00EB               	movwf	1+(_krcount)
  3658                           	
  3659  0233                     i1l30000611:	
  3660                           	line	285
  3661                           ;T10.C: 285: if(krcount==0)
  3662  0233  086B               	movf	((_krcount+1)),w
  3663  0234  046A               	iorwf	((_krcount)),w
  3664  0235  1D03               	skipz
  3665  0236  2A38               	goto	u22_21
  3666  0237  2A39               	goto	u22_20
  3667  0238                     u22_21:
  3668  0238  2A87               	goto	i1l37
  3669  0239                     u22_20:
  3670                           	
  3671  0239                     i1l30000612:	
  3672                           	line	287
  3673                           ;T10.C: 286: {
  3674                           ;T10.C: 287: nkp=1;
  3675  0239  3001               	movlw	low(01h)
  3676  023A  00DA               	movwf	(_nkp)
  3677  023B  3000               	movlw	high(01h)
  3678  023C  00DB               	movwf	((_nkp))+1
  3679                           	line	288
  3680                           ;T10.C: 288: start_buzzer=0;
  3681  023D  3000               	movlw	low(0)
  3682  023E  00DE               	movwf	(_start_buzzer)
  3683  023F  3000               	movlw	high(0)
  3684  0240  00DF               	movwf	((_start_buzzer))+1
  3685                           	line	289
  3686                           ;T10.C: 289: krcount=32;
  3687  0241  3020               	movlw	low(020h)
  3688  0242  00EA               	movwf	(_krcount)
  3689  0243  3000               	movlw	high(020h)
  3690  0244  00EB               	movwf	((_krcount))+1
  3691  0245  2A87               	goto	i1l37
  3692                           	
  3693  0246                     i1l30000613:	
  3694                           	line	293
  3695                           ;T10.C: 293: else if(dcount==33)
  3696  0246  3021               	movlw	021h
  3697  0247  0668               	xorwf	(_dcount),w
  3698  0248  0469               	iorwf	(_dcount+1),w
  3699  0249  1D03               	skipz
  3700  024A  2A4C               	goto	u23_21
  3701  024B  2A4D               	goto	u23_20
  3702  024C                     u23_21:
  3703  024C  2A62               	goto	i1l30000616
  3704  024D                     u23_20:
  3705                           	
  3706  024D                     i1l30000614:	
  3707                           	line	295
  3708                           ;T10.C: 294: {
  3709                           ;T10.C: 295: if(c==0)
  3710  024D  0855               	movf	((_c+1)),w
  3711  024E  0454               	iorwf	((_c)),w
  3712  024F  1D03               	skipz
  3713  0250  2A52               	goto	u24_21
  3714  0251  2A53               	goto	u24_20
  3715  0252                     u24_21:
  3716  0252  2A87               	goto	i1l37
  3717  0253                     u24_20:
  3718                           	
  3719  0253                     i1l30000615:	
  3720                           	line	297
  3721                           ;T10.C: 296: {
  3722                           ;T10.C: 297: dcount=dcount-1;
  3723  0253  0868               	movf	(_dcount),w
  3724  0254  3EFF               	addlw	low(-1)
  3725  0255  00E8               	movwf	(_dcount)
  3726  0256  0869               	movf	(_dcount+1),w
  3727  0257  1803               	skipnc
  3728  0258  3E01               	addlw	1
  3729  0259  3EFF               	addlw	high(-1)
  3730  025A  00E9               	movwf	1+(_dcount)
  3731                           	line	298
  3732                           ;T10.C: 298: key_code=scan_no;
  3733  025B  085D               	movf	(_scan_no+1),w
  3734  025C  01D7               	clrf	(_key_code+1)
  3735  025D  07D7               	addwf	(_key_code+1)
  3736  025E  085C               	movf	(_scan_no),w
  3737  025F  01D6               	clrf	(_key_code)
  3738  0260  07D6               	addwf	(_key_code)
  3739                           
  3740  0261  2A87               	goto	i1l37
  3741                           	
  3742  0262                     i1l30000616:	
  3743                           	line	305
  3744                           ;T10.C: 303: else
  3745                           ;T10.C: 304: {
  3746                           ;T10.C: 305: dcount=dcount-1;
  3747  0262  0868               	movf	(_dcount),w
  3748  0263  3EFF               	addlw	low(-1)
  3749  0264  00E8               	movwf	(_dcount)
  3750  0265  0869               	movf	(_dcount+1),w
  3751  0266  1803               	skipnc
  3752  0267  3E01               	addlw	1
  3753  0268  3EFF               	addlw	high(-1)
  3754  0269  00E9               	movwf	1+(_dcount)
  3755                           	
  3756  026A                     i1l30000617:	
  3757                           	line	306
  3758                           ;T10.C: 306: if(dcount==0)
  3759  026A  0869               	movf	((_dcount+1)),w
  3760  026B  0468               	iorwf	((_dcount)),w
  3761  026C  1D03               	skipz
  3762  026D  2A6F               	goto	u25_21
  3763  026E  2A70               	goto	u25_20
  3764  026F                     u25_21:
  3765  026F  2A87               	goto	i1l37
  3766  0270                     u25_20:
  3767                           	
  3768  0270                     i1l30000618:	
  3769                           	line	308
  3770                           ;T10.C: 307: {
  3771                           ;T10.C: 308: if(c==0)
  3772  0270  0855               	movf	((_c+1)),w
  3773  0271  0454               	iorwf	((_c)),w
  3774  0272  1D03               	skipz
  3775  0273  2A75               	goto	u26_21
  3776  0274  2A76               	goto	u26_20
  3777  0275                     u26_21:
  3778  0275  2A83               	goto	i1l30000620
  3779  0276                     u26_20:
  3780                           	
  3781  0276                     i1l30000619:	
  3782                           	line	310
  3783                           ;T10.C: 309: {
  3784                           ;T10.C: 310: key_ready=1;
  3785  0276  3001               	movlw	low(01h)
  3786  0277  00D8               	movwf	(_key_ready)
  3787  0278  3000               	movlw	high(01h)
  3788  0279  00D9               	movwf	((_key_ready))+1
  3789                           	line	311
  3790                           ;T10.C: 311: start_buzzer=1;
  3791  027A  3001               	movlw	low(01h)
  3792  027B  00DE               	movwf	(_start_buzzer)
  3793  027C  3000               	movlw	high(01h)
  3794  027D  00DF               	movwf	((_start_buzzer))+1
  3795                           	line	312
  3796                           ;T10.C: 312: dcount=33;
  3797  027E  3021               	movlw	low(021h)
  3798  027F  00E8               	movwf	(_dcount)
  3799  0280  3000               	movlw	high(021h)
  3800  0281  00E9               	movwf	((_dcount))+1
  3801  0282  2A87               	goto	i1l37
  3802                           	
  3803  0283                     i1l30000620:	
  3804                           	line	314
  3805                           ;T10.C: 314: else dcount=33;
  3806  0283  3021               	movlw	low(021h)
  3807  0284  00E8               	movwf	(_dcount)
  3808  0285  3000               	movlw	high(021h)
  3809  0286  00E9               	movwf	((_dcount))+1
  3810                           	
  3811  0287                     i1l37:	
  3812  0287  0008               	return
  3813                           	opt stack 0
  3814                           GLOBAL	__end_of_k1
  3815  0288                     	__end_of_k1:
  3816                           ; =============== function _k1 ends ============
  3817                           
  3818                           psect	text164,local,class=CODE,delta=2
  3819                           global __ptext164
  3820  04D1                     __ptext164:
  3821                           	line	318
  3822                           	signat	_k1,88
  3823                           	global	_disp_blank
  3824                           
  3825                           ; *************** function _disp_blank *****************
  3826                           ; Defined at:
  3827                           ;		line 323 in file "D:\ABHISHEK JOSHI\PIC\T10\T10.C"
  3828                           ; Parameters:    Size  Location     Type
  3829                           ;		None
  3830                           ; Auto vars:     Size  Location     Type
  3831                           ;		None
  3832                           ; Return value:  Size  Location     Type
  3833                           ;		None               void
  3834                           ; Registers used:
  3835                           ;		wreg, status,2, status,0
  3836                           ; Tracked objects:
  3837                           ;		On entry : 0/0
  3838                           ;		On exit  : 0/0
  3839                           ;		Unchanged: 0/0
  3840                           ; Data sizes:     COMMON   BANK0   BANK1   BANK3   BANK2
  3841                           ;      Locals:         0       0       0       0       0
  3842                           ;      Temp:     0
  3843                           ;      Total:    0
  3844                           ; This function calls:
  3845                           ;		Nothing
  3846                           ; This function is called by:
  3847                           ;		_scanner
  3848                           ; This function uses a non-reentrant model
  3849                           ; 
  3850                           psect	text164
  3851                           	file	"D:\ABHISHEK JOSHI\PIC\T10\T10.C"
  3852                           	line	323
  3853                           	global	__size_of_disp_blank
  3854  0008                     	__size_of_disp_blank	equ	__end_of_disp_blank-_disp_blank
  3855                           ;T10.C: 322: void disp_blank()
  3856                           ;T10.C: 323: {
  3857                           	
  3858  04D1                     _disp_blank:	
  3859                           	opt stack 4
  3860                           ; Regs used in _disp_blank: [wreg+status,2+status,0]
  3861                           	line	324
  3862                           	
  3863  04D1                     i1l30000547:	
  3864                           ;T10.C: 324: PORTB=0x00;
  3865  04D1  1003               	clrc
  3866  04D2  3000               	movlw	0
  3867  04D3  1803               	btfsc	status,0
  3868  04D4  3001               	movlw	1
  3869  04D5  1283               	bcf	status, 5	;RP0=0, select bank0
  3870  04D6  1303               	bcf	status, 6	;RP1=0, select bank0
  3871  04D7  0086               	movwf	(6)	;volatile
  3872                           	
  3873  04D8                     i1l49:	
  3874  04D8  0008               	return
  3875                           	opt stack 0
  3876                           GLOBAL	__end_of_disp_blank
  3877  04D9                     	__end_of_disp_blank:
  3878                           ; =============== function _disp_blank ends ============
  3879                           
  3880                           psect	text165,local,class=CODE,delta=2
  3881                           global __ptext165
  3882  04EB                     __ptext165:
  3883                           	line	325
  3884                           	signat	_disp_blank,88
  3885                           	global	btemp
  3886  007E                     	btemp set 07Eh


HI-TECH Software PICC Macro Assembler V9.70 build 5239 
Symbol Table                                                                                   Wed Jan 02 16:31:37 2002

                       l8 045C                         l9 04C8                         _a 0052  
                       _c 0054                         _k 0078                         pc 0002  
             ?_keyprocess 0074                        l11 03FE                        l12 04AA  
                      _DA 04A5                        _BF 04A0                        _DC 0019  
                      l74 0419                        l84 04E6                        l68 042B  
                      l85 04DF                        l86 049B                        l78 03B2  
                      _PD 001B                        _RD 0C60                        _UA 04A1  
                      _TO 001C                        _RW 04A2                        _WR 0C61  
                      _k1 0217                        _tb 0062                        fsr 0004  
            ??_incrementd 0076               __pbssCOMMON 0078              i1_init_timer 04AB  
         __size_of_adisp1 0010           __size_of_adisp2 0010           __size_of_adisp3 0010  
         __size_of_adisp4 0010                       ?_k1 006E                       _CM0 04E0  
                     _CM1 04E1                       _CM2 04E2                       _CKE 04A6  
                     _CIS 04E3                       _CKP 00A4                       _GIE 005F  
                     _BOR 0470                       _RA0 0028                       _RA1 0029  
                     _RB0 0030                       _RA2 002A                       _RB1 0031  
                     _RA3 002B                       _RC0 0038                       _RB2 0032  
                     _RA4 002C                       _RC1 0039                       _RB3 0033  
                     _RA5 002D                       _RC2 003A                       _RB4 0034  
                     _RC3 003B                       _RB5 0035                       _RC4 003C  
                     _RB6 0036                       _RC5 003D                       _RB7 0037  
                     _RC6 003E                       _RC7 003F                       _FSR 0004  
                     _PCL 0002                       u270 0408                       _PS0 0408  
                     _PR2 0092                       u271 0407                       _PS1 0409  
                     u280 0423                       _PS2 040A                       _PEN 048A  
                     _RP0 001D                       _IRP 001F                       u281 0422  
                     _RP1 001E                       i1l2 034D                       _SEN 0488  
                     i1l9 04B9                       _PSA 040B                       _POR 0471  
                     _RX9 00C6                       _SMP 04A7                       _TX9 04C6  
         __size_of_isr_t0 0030                       _ds1 0070                       _ds2 0071  
                     _ds3 0072                       _ds4 0073                       _nkp 005A  
                     fsr0 0004                       indf 0000      __end_ofi1_init_timer 04BA  
            ??_init_timer 0074              _start_buzzer 005E                      ??_k1 0076  
     __size_of_delay_1sec 0033          __size_of_get_key 001B                      _ADIE 0466  
                    _ADIF 0066                      _ADFM 04FF                      _ADGO 00FA  
                    _ADON 00F8                      _CHS0 00FB                      _CHS1 00FC  
                    _CHS2 00FD                      _EEIE 046C                      _EEIF 006C  
                    _GCEN 048F              ??_keyprocess 0074                      _CMIE 046E  
                    _CMIF 006E                      _BRGH 04C2                      _T0IE 005D  
                    _T0IF 005A                      _CREN 00C4                      _T0CS 040D  
                    _FERR 00C2                      _CVR0 04E8                      _CVR1 04E9  
                    _CVR2 04EA                      _CVR3 04EB                      _T0SE 040C  
                    _CSRC 04C7                      _INDF 0000                      _PIE1 008C  
                    _PIE2 008D                      _CVRR 04ED                      _PEIE 005E  
                    i1l13 02F7                      i1l21 0016                      _INTE 005C  
                    _INTF 0059                      _RBIE 005B                      _RBIF 0058  
                    i1l33 016C                      i1l25 0088                      i1l50 047C  
                    i1l18 0216                      i1l51 046C                      _RCIE 0465  
                    i1l52 044C                      _RCEN 048B                      _RCIF 0065  
                    i1l37 0287                      i1l53 048C                      i1l29 00FA  
                    i1l62 02C4                      i1l64 02C4                      _PCON 008E  
                    i1l49 04D8                      _PIR1 000C                      _PIR2 000D  
                    _OERR 00C1                      _RBPU 040F              __pidataBANK0 02F8  
                    _RX9D 00C0                      _TMR0 0001                      _TMR2 0011  
                    _WCOL 00A7                      _SPEN 00C7                      _RSEN 0489  
                    _TX9D 04C0                      _SREN 00C5                      _TRMT 04C1  
                    _STOP 04A4                      _TXIE 0464                      _ZERO 001A  
                    _WREN 0C62                      _TXEN 04C5                      _TXIF 0064  
                    _SYNC 04C4             ??_key_release 0074             ??_init_keypad 0074  
        __size_of_scanner 0202                      _disp 0039                      _main 035A  
                    _init 044D                      btemp 007E                  _key_code 0056  
                    start 0012         interrupt_function 0004       start_initialization 03B3  
                clear_ram 04C9                 __pnvBANK0 0064                   ?_adisp1 006E  
                 ?_adisp2 006E                   ?_adisp3 006E                   ?_adisp4 006E  
                ??_adisp1 0076                  ??_adisp2 0076                  ??_adisp3 0076  
                ??_adisp4 0076                   _CCP1CON 0017                   _CCP2CON 001D  
     __size_of_disp_blank 0008                   _ACKSTAT 048E                   ?_isr_t0 006E  
                   l30023 03A8                     l30024 039B             ?i1_init_timer 0076  
                   _C1INV 04E4                  ??_isr_t0 00A0                     _C2INV 04E5  
                _start_sw 0060                     _C1OUT 04E6                 _ascii_tab 0020  
                   _C2OUT 04E7                     _ADCS0 00FE                     _ADCS1 00FF  
                   _ADCS2 04FE                     _ADDEN 00C3                     ?_main 0076  
                   _ACKEN 048C                     _ACKDT 048D                     ?_init 0074  
               __ptext150 04E0                 __ptext151 049C                 __ptext160 047D  
               __ptext152 03DC                 __ptext144 03FF                 __ptext161 045D  
               __ptext153 04BA                 __ptext145 0387                 __ptext162 046D  
               __ptext154 032A                 __ptext146 044D                 __ptext163 0217  
               __ptext155 0015                 __ptext147 04D9                 __ptext164 04D1  
               __ptext156 0288                 __ptext148 048D                 __ptext165 04EB  
               __ptext157 04AB                 __ptext149 041A                     _BCLIE 046B  
               __ptext158 02C5                     _BCLIF 006B                 __ptext159 043D  
                   _CCP1X 00BD                     _CCP1Y 00BC                     _CCP2X 00ED  
                   _CCP2Y 00EC                     _EEADR 010D                     _CARRY 0018  
                   _EEPGD 0C67                     _CMCON 009C                     _T1CON 0010  
                   _T2CON 0012                   _T1CKPS0 0084                   _T1CKPS1 0085  
                   _PCFG0 04F8                     _PCFG1 04F9                     _PCFG2 04FA  
                   _PCFG3 04FB                   _T2CKPS0 0090                   _T2CKPS1 0091  
                   _CVREN 04EF                     _CVROE 04EE           __end_of_get_key 041A  
                   _RCREG 001A                     _RCSTA 0018                     u20_20 0220  
                   u20_21 021F                     u21_20 0226                     u21_21 0225  
                   u22_20 0239                     u30_20 029A                     u22_21 0238  
                   u30_21 0299                     u23_20 024D                     u31_20 02A5  
                   u23_21 024C                     u31_21 02A4                     u24_20 0253  
                   u32_20 02B0                     u24_21 0252                     u32_21 02AF  
                   u25_20 0270                     u33_20 02BB                     u25_21 026F  
                   u33_21 02BA                     _TMR1H 000F                     _TMR1L 000E  
                   u26_20 0276                     u34_20 02CE                     u26_21 0275  
                   u34_21 02CD                     _SPBRG 0099                     u35_20 02DA  
                   u35_21 02D9                     _PORTA 0005                     _PORTB 0006  
                 _T1OSCEN 0083                     _PORTC 0007                     u36_20 02E6  
                   u36_21 02E5                     u29_20 0291                     u37_20 0342  
                   u29_21 0290                     u37_21 0341                     _START 04A3  
                   _SSPM0 00A0                     _SSPM1 00A1                     _SSPM2 00A2  
                   _SSPM3 00A3                     _TRISA 0085                     _TRISB 0086  
                   _TRISC 0087                     _SSPIE 0463                     _SSPIF 0063  
                   _SSPEN 00A5                   i1l30025 0211                   i1l30026 01DD  
                   _SSPOV 00A6                     _WRERR 0C63                     _TXREG 0019  
                   _TXSTA 0098             __pidataCOMMON 04E7           __end_of_scanner 0217  
             __size_of_k1 0071            __pcstackCOMMON 0074                   _SSPCON2 0091  
   __size_ofi1_init_timer 000F                __end_of_k1 0288                   _SSPSTAT 0094  
                 _TOUTPS0 0093                   _TOUTPS1 0094                   _TOUTPS2 0095  
                 _TOUTPS3 0096                     pclath 000A  __size_of_init_delay_1sec 000F  
                intlevel1 0004                 _key_ready 0058       __size_of_incrementd 003D  
                   status 0003       __size_of_init_timer 000F             __size_of_main 002D  
              __pbssBANK0 0052             __size_of_init 0010                   _s1_over 006C  
                l30000630 03E2                  l30000631 044D                  l30000640 03FF  
                l30000632 035A                  l30000641 03FF                  l30000633 0361  
                l30000650 0394                  l30000642 0408                  l30000634 0363  
                l30000643 040E                  l30000635 0370                  l30000644 041A  
                l30000652 039A                  l30000636 0375                  l30000629 03DC  
                l30000645 041A                  l30000653 03AD                  l30000637 0378  
                l30000670 049C                  l30000646 0423                  l30000654 048D  
                l30000638 0379                  l30000671 04BA                  l30000655 04E0  
                l30000647 0387                  l30000639 037E                  l30000672 04C2  
                l30000656 04D9                  l30000648 0388                  l30000673 04C5  
                l30000649 038E                _delay_1sec 02C5       __size_of_keyprocess 002C  
      __end_of_delay_1sec 02F8                    ??_main 0076                   _cnt_1sh 0064  
                 _cnt_1sl 0066                    ??_init 0074                   _get_key 03FF  
               _process_a 04E0                 _process_b 04D9                 _process_c 048D  
                ?_get_key 0076         __end_of_process_a 04E7         __end_of_process_b 04E0  
       __end_of_process_c 049C                __pmaintext 035A                 ??_get_key 0074  
                 _scan_no 005C                   _scanner 0015               ?_delay_1sec 0076  
                 _krcount 006A                ?_process_a 0074                ?_process_b 0074  
              ?_process_c 0074                  ?_scanner 006E                __pintentry 0004  
               ??_scanner 0076                    _ADCON0 001F                    _ADCON1 009F  
                  _CCP1M0 00B8                    _CCP1M1 00B9                    _CCP1M2 00BA  
                  _CCP1M3 00BB                    _CCP2M0 00E8                    _CCP2M1 00E9  
                  _CCP2M2 00EA                    _CCP2M3 00EB                    _CCP1IE 0462  
                  _CCP1IF 0062                    _CCP2IE 0468                    _CCP2IF 0068  
          __end_of_adisp1 047D            __end_of_adisp2 046D            __end_of_adisp3 044D  
          __end_of_adisp4 048D                    _ADRESH 001E                    _EEADRH 010F  
                  _ADRESL 009E                    _EEADRL 010D                    _EEDATA 010C  
                  _CCPR1H 0016                    _EEDATH 010E                    _CCPR2H 001C  
                  _CCPR1L 0015                    _CCPR2L 001B                    _EECON1 018C  
                  _EECON2 018D           _init_delay_1sec 049C              __end_of_main 0387  
            __end_of_init 045D                    _GODONE 00FA      end_of_initialization 03D8  
                  _CVRCON 009D                    _T1SYNC 0082                    _INTEDG 040E  
                  _PCLATH 000A                    _INTCON 000B             __pcstackBANK0 006E  
           __pcstackBANK1 00A0            __end_of_isr_t0 035A               ??_process_a 0074  
             ??_process_b 0074               ??_process_c 0074          ?_init_delay_1sec 0074  
                  _TMR0IE 005D                    _TMR0IF 005A                    _TMR1IE 0460  
                  _TMR1IF 0060                    _TMR1CS 0081                    _TMR2IE 0461  
                  _TMR2IF 0061                    _OPTION 0081                    _TMR1ON 0080  
                  _TMR2ON 0092                    _SSPADD 0093                    _TRISA0 0428  
                  _TRISA1 0429                    _TRISB0 0430                    _TRISA2 042A  
                  _TRISB1 0431                    _TRISA3 042B                    _TRISC0 0438  
                  _TRISB2 0432                    _TRISA4 042C                    _TRISC1 0439  
                  _TRISB3 0433                    _TRISA5 042D                    _TRISC2 043A  
                  _TRISB4 0434                    _TRISC3 043B                    _TRISB5 0435  
                  _TRISC4 043C                    _TRISB6 0436                    _TRISC5 043D  
                  _TRISB7 0437                    _TRISC6 043E                    _TRISC7 043F  
                  _STATUS 0003                    _SSPCON 0014                    _SSPBUF 0013  
                 init_ram 0430                _disp_blank 04D1        __end_of_disp_blank 04D9  
            ??_delay_1sec 0076         ??_init_delay_1sec 0074                    _adisp1 046D  
                  _adisp2 045D                    _adisp3 043D                    _adisp4 047D  
             ?_disp_blank 006E                    _dcount 0068               _key_release 041A  
                  _isr_t0 032A                i1l30000600 01B8                i1l30000601 01BF  
              i1l30000610 022B                i1l30000602 01CB                i1l30000611 0233  
              i1l30000603 01D0                i1l30000620 0283                i1l30000612 0239  
              i1l30000540 04B3                i1l30000604 01D5                i1l30000613 0246  
              i1l30000621 045D                i1l30000541 04B6                i1l30000614 024D  
              i1l30000622 0464                i1l30000550 001F                i1l30000606 01DC  
              i1l30000615 0253                i1l30000607 0217                i1l30000623 047D  
              i1l30000551 002D                i1l30000616 0262                i1l30000608 0220  
              i1l30000624 0484                i1l30000560 006E                i1l30000552 0032  
              i1l30000617 026A                i1l30000609 0226                i1l30000625 043D  
              i1l30000561 007C                i1l30000553 0039                i1l30000618 0270  
              i1l30000626 0444                i1l30000570 00C3                i1l30000562 0081  
              i1l30000554 0045                i1l30000547 04D1                i1l30000619 0276  
              i1l30000627 046D                i1l30000539 04AB                i1l30000571 00CF  
              i1l30000563 008C                i1l30000555 004A                i1l30000628 0474  
              i1l30000660 029A                i1l30000580 0116                i1l30000572 00D4  
              i1l30000564 0091                i1l30000556 0051                i1l30000548 0015  
              i1l30000661 029C                i1l30000581 011D                i1l30000573 00DB  
              i1l30000565 009F                i1l30000557 005D                i1l30000549 001A  
              i1l30000662 029F                i1l30000590 0165                i1l30000582 0129  
              i1l30000574 00E0                i1l30000566 00A4                i1l30000558 0062  
              i1l30000663 02A5                i1l30000591 0170                i1l30000583 012E  
              i1l30000575 00EE                i1l30000567 00AB                i1l30000559 0069  
              i1l30000664 02A7                i1l30000592 0175                i1l30000584 0135  
              i1l30000576 00F3                i1l30000568 00B7                i1l30000680 032A  
              i1l30000665 02AA                i1l30000657 0288                i1l30000593 0183  
              i1l30000585 0141                i1l30000577 00FE                i1l30000569 00BC  
              i1l30000681 0334                i1l30000674 02C5                i1l30000666 02B0  
              i1l30000658 0291                i1l30000594 0188                i1l30000586 0146  
              i1l30000578 0103                i1l30000682 0339                i1l30000675 02CE  
              i1l30000667 02B2                i1l30000659 0294                i1l30000595 018F  
              i1l30000587 014D                i1l30000579 0111                i1l30000683 0342  
              i1l30000676 02D4                i1l30000668 02B5                i1l30000596 019B  
              i1l30000588 0152                i1l30000684 0347                i1l30000677 02DA  
              i1l30000669 02BB                i1l30000597 01A0                i1l30000589 0160  
              i1l30000678 02E6                i1l30000598 01A7                i1l30000679 02EB  
              i1l30000599 01B3               _init_keypad 03DC                 init_fetch 042C  
     __end_of_key_release 042C            ??i1_init_timer 0076       __end_of_init_keypad 03FF  
                  clrloop 04CA                _incrementd 0288                    saved_w 007F  
      __end_of_incrementd 02C5        __size_of_process_a 0007        __size_of_process_b 0007  
      __size_of_process_c 000F              ??_disp_blank 0076                _init_timer 04BA  
      __end_of_init_timer 04C9               ?_incrementd 0076              ?_key_release 0074  
            ?_init_keypad 0074      __size_of_key_release 0012                _keyprocess 0387  
             ?_init_timer 0074        __end_of_keyprocess 03B3      __size_of_init_keypad 0023  
 __end_of_init_delay_1sec 04AB               __pdataBANK0 0020              __pdataCOMMON 0070  
